 sub96k

 Timestamp is 5068544e (Sun Sep 30 16:16:46 2012)

 Preferred load address is 00400000

 Start         Length     Name                   Class
 0001:00000000 0001fc4aH .text                   CODE
 0001:0001fc4a 00000384H .text$x                 CODE
 0001:0001ffce 000005edH .text$yc                CODE
 0001:000205bb 00000084H .text$yd                CODE
 0002:00000000 00000220H .idata$5                DATA
 0002:00000220 00000004H .CRT$XCA                DATA
 0002:00000224 00000004H .CRT$XCAA               DATA
 0002:00000228 00000020H .CRT$XCU                DATA
 0002:00000248 00000004H .CRT$XCZ                DATA
 0002:0000024c 00000004H .CRT$XIA                DATA
 0002:00000250 00000004H .CRT$XIAA               DATA
 0002:00000254 00000004H .CRT$XIC                DATA
 0002:00000258 00000004H .CRT$XIY                DATA
 0002:0000025c 00000004H .CRT$XIZ                DATA
 0002:00000260 00000af0H .rdata                  DATA
 0002:00000d50 00000048H .rdata$r                DATA
 0002:00000da0 0000016cH .rdata$sxdata           DATA
 0002:00000f0c 00000004H .rtc$IAA                DATA
 0002:00000f10 00000004H .rtc$IZZ                DATA
 0002:00000f14 00000004H .rtc$TAA                DATA
 0002:00000f18 00000004H .rtc$TZZ                DATA
 0002:00000f20 000025a4H .xdata$x                DATA
 0002:000034c4 000000b4H .idata$2                DATA
 0002:00003578 00000014H .idata$3                DATA
 0002:0000358c 00000220H .idata$4                DATA
 0002:000037ac 0000116eH .idata$6                DATA
 0002:0000491a 00000000H .edata                  DATA
 0003:00000000 000045e0H .data                   DATA
 0003:000045e0 00001514H .bss                    DATA

  Address         Publics by Value              Rva+Base       Lib:Object

 0000:0000005b       ___safe_se_handler_count   0000005b     <absolute>
 0000:00000000       ___ImageBase               00400000     <linker-defined>
 0001:00000000       ??_I@YGXPAXIHP6EX0@Z@Z     00401000 f i GameApp.obj
 0001:00000023       ??0GameApp@@QAE@AAPAUHINSTANCE__@@HH_NV?$basic_string@_WU?$char_traits@_W@std@@V?$allocator@_W@2@@std@@1@Z 00401023 f   GameApp.obj
 0001:00000089       ??_GGameApp@@UAEPAXI@Z     00401089 f i GameApp.obj
 0001:00000089       ??_EGameApp@@UAEPAXI@Z     00401089 f i  CIL library: CIL module
 0001:000000a5       ??1GameApp@@UAE@XZ         004010a5 f   GameApp.obj
 0001:000000cc       ?onResize@GameApp@@UAEXXZ  004010cc f   GameApp.obj
 0001:000000d1       ?main@GameApp@@UAEHXZ      004010d1 f   GameApp.obj
 0001:000001d8       ?drawScene@GameApp@@QAEXXZ 004011d8 f   GameApp.obj
 0001:000001e3       ?getLapsedTime@GameApp@@AAENXZ 004011e3 f   GameApp.obj
 0001:00000218       ?displayFPSandDebugInfo@GameApp@@AAEXXZ 00401218 f   GameApp.obj
 0001:00000319       ??A?$vector@_NV?$allocator@_N@std@@@std@@QAE?AV?$_Vb_reference@IHV?$vector@_NV?$allocator@_N@std@@@std@@@1@I@Z 00401319 f i GameApp.obj
 0001:00000346       ??B?$_Vb_reference@IHV?$vector@_NV?$allocator@_N@std@@@std@@@std@@QBE_NXZ 00401346 f i GameApp.obj
 0001:00000360       ?begin@?$vector@_NV?$allocator@_N@std@@@std@@QAE?AV?$_Vb_iterator@IHV?$vector@_NV?$allocator@_N@std@@@std@@@2@XZ 00401360 f i GameApp.obj
 0001:000003a3       ?_Getptr@?$_Vb_reference@IHV?$vector@_NV?$allocator@_N@std@@@std@@@std@@QBEPAIXZ 004013a3 f i GameApp.obj
 0001:000003d6       ??0sentry@?$basic_ostream@DU?$char_traits@D@std@@@std@@QAE@AAV12@@Z 004013d6 f i GameApp.obj
 0001:0000041a       ??1sentry@?$basic_ostream@DU?$char_traits@D@std@@@std@@QAE@XZ 0040141a f i GameApp.obj
 0001:00000444       ??H?$_Vb_iterator@IHV?$vector@_NV?$allocator@_N@std@@@std@@@std@@QBE?AV01@H@Z 00401444 f i GameApp.obj
 0001:00000471       ??0?$_Vb_reference@IHV?$vector@_NV?$allocator@_N@std@@@std@@@std@@QAE@ABV?$_Vb_iter_base@IHV?$vector@_NV?$allocator@_N@std@@@std@@@1@@Z 00401471 f i GameApp.obj
 0001:0000049f       ?_My_actual_offset@?$_Vb_iter_base@IHV?$vector@_NV?$allocator@_N@std@@@std@@@std@@QBEIXZ 0040149f f i GameApp.obj
 0001:000004bb       ?_My_cont_begin@?$_Vb_iter_base@IHV?$vector@_NV?$allocator@_N@std@@@std@@@std@@QBEPAIXZ 004014bb f i GameApp.obj
 0001:000004e5       ??Y?$_Vb_const_iterator@IHV?$vector@_NV?$allocator@_N@std@@@std@@@std@@QAEAAV01@H@Z 004014e5 f i GameApp.obj
 0001:0000056c       ??$?6U?$char_traits@D@std@@@std@@YAAAV?$basic_ostream@DU?$char_traits@D@std@@@0@AAV10@PBD@Z 0040156c f i GameApp.obj
 0001:000006ca       ??1ShaderClassData@@QAE@XZ 004016ca f i StoredShaders.obj
 0001:0000070f       ??0bad_alloc@std@@QAE@PBD@Z 0040170f f i BaseDX.obj
 0001:0000072d       ??1bad_alloc@std@@UAE@XZ   0040172d f i BaseDX.obj
 0001:00000739       ??_Gbad_alloc@std@@UAEPAXI@Z 00401739 f i BaseDX.obj
 0001:00000739       ??_Ebad_alloc@std@@UAEPAXI@Z 00401739 f i  CIL library: CIL module
 0001:0000075c       ??1logic_error@std@@UAE@XZ 0040175c f i BaseDX.obj
 0001:00000777       ?what@logic_error@std@@UBEPBDXZ 00401777 f i BaseDX.obj
 0001:00000785       ??_Elogic_error@std@@UAEPAXI@Z 00401785 f i  CIL library: CIL module
 0001:00000785       ??_Glogic_error@std@@UAEPAXI@Z 00401785 f i BaseDX.obj
 0001:000007a1       ??0length_error@std@@QAE@ABV?$basic_string@DU?$char_traits@D@std@@V?$allocator@D@2@@1@@Z 004017a1 f i BaseDX.obj
 0001:000007c7       ??1length_error@std@@UAE@XZ 004017c7 f i BaseDX.obj
 0001:000007d2       ??_Glength_error@std@@UAEPAXI@Z 004017d2 f i BaseDX.obj
 0001:000007d2       ??_Elength_error@std@@UAEPAXI@Z 004017d2 f i  CIL library: CIL module
 0001:000007f4       ??0logic_error@std@@QAE@ABV01@@Z 004017f4 f i BaseDX.obj
 0001:0000081d       ??0Log@@QAE@XZ             0040181d f i BaseDX.obj
 0001:0000083f       ?initLog@Log@@AAEXXZ       0040183f f i BaseDX.obj
 0001:000008f4       ??_E?$basic_ofstream@DU?$char_traits@D@std@@@std@@UAEPAXI@Z 004018f4 f i  CIL library: CIL module
 0001:000008f4       ??_G?$basic_ofstream@DU?$char_traits@D@std@@@std@@UAEPAXI@Z 004018f4 f i BaseDX.obj
 0001:00000914       ?WndProc@@YGJPAUHWND__@@IIJ@Z 00401914 f   BaseDX.obj
 0001:0000094e       ??0BaseDX@@QAE@AAPAUHINSTANCE__@@HH_NV?$basic_string@_WU?$char_traits@_W@std@@V?$allocator@_W@2@@std@@1@Z 0040194e f   BaseDX.obj
 0001:00000aa2       ??_EBaseDX@@UAEPAXI@Z      00401aa2 f i  CIL library: CIL module
 0001:00000aa2       ??_GBaseDX@@UAEPAXI@Z      00401aa2 f i BaseDX.obj
 0001:00000abe       ??1BaseDX@@UAE@XZ          00401abe f   BaseDX.obj
 0001:00000b04       ?initDX@BaseDX@@QAE_NXZ    00401b04 f   BaseDX.obj
 0001:00000bc9       ?initWindowsApp@BaseDX@@QAE_NXZ 00401bc9 f   BaseDX.obj
 0001:00000cd8       ?getMessage@BaseDX@@UAEJIIJ@Z 00401cd8 f   BaseDX.obj
 0001:00000e95       ?startTimer@BaseDX@@QAEXXZ 00401e95 f   BaseDX.obj
 0001:00000ecb       ?getmDeltaTime@BaseDX@@QBEMXZ 00401ecb f   BaseDX.obj
 0001:00000f03       ?getCentiseconds@BaseDX@@QAEMXZ 00401f03 f   BaseDX.obj
 0001:00000f3b       ?keybCleanAll@BaseDX@@QAEXXZ 00401f3b f   BaseDX.obj
 0001:00000f76       ?incrementFrameCounter@BaseDX@@QAEXXZ 00401f76 f   BaseDX.obj
 0001:00000fbd       ?onResize@BaseDX@@UAEXXZ   00401fbd f   BaseDX.obj
 0001:00000fde       ??0?$vector@_NV?$allocator@_N@std@@@std@@QAE@I_N@Z 00401fde f i BaseDX.obj
 0001:00001032       ??1?$vector@_NV?$allocator@_N@std@@@std@@QAE@XZ 00402032 f i BaseDX.obj
 0001:00001049       ??4?$auto_ptr@VLog@@@std@@QAEAAV01@U?$auto_ptr_ref@VLog@@@1@@Z 00402049 f i BaseDX.obj
 0001:0000106b       ??4?$_Vb_reference@IHV?$vector@_NV?$allocator@_N@std@@@std@@@std@@QAEAAV01@_N@Z 0040206b f i BaseDX.obj
 0001:0000108e       ??_GLog@@QAEPAXI@Z         0040208e f i BaseDX.obj
 0001:000010d7       ?_Trim@?$vector@_NV?$allocator@_N@std@@@std@@IAEXI@Z 004020d7 f i BaseDX.obj
 0001:0000118e       ?_Xlen@?$vector@_NV?$allocator@_N@std@@@std@@IBEXXZ 0040218e f i BaseDX.obj
 0001:000011bd       ??0length_error@std@@QAE@ABV01@@Z 004021bd f i BaseDX.obj
 0001:000011d5       ??0bad_alloc@std@@QAE@ABV01@@Z 004021d5 f i BaseDX.obj
 0001:000011ee       _WinMain@16                004021ee f   main.obj
 0001:00001248       ?release@DxRenderTarget@@QAEXXZ 00402248 f i DeferredEngine.obj
 0001:0000127a       ??0DeferredEngine@@QAE@PAUID3D10Device@@PAUIDXGISwapChain@@HH@Z 0040227a f   DeferredEngine.obj
 0001:0000138b       ??_EDeferredEngine@@UAEPAXI@Z 0040238b f i  CIL library: CIL module
 0001:0000138b       ??_GDeferredEngine@@UAEPAXI@Z 0040238b f i DeferredEngine.obj
 0001:000013a7       ??1DeferredEngine@@UAE@XZ  004023a7 f   DeferredEngine.obj
 0001:000014bd       ?init@DeferredEngine@@QAE_NXZ 004024bd f   DeferredEngine.obj
 0001:000014df       ?initDirectxFonts@DeferredEngine@@AAE_NXZ 004024df f   DeferredEngine.obj
 0001:00001556       ?startScene@DeferredEngine@@QAEXXZ 00402556 f   DeferredEngine.obj
 0001:000015e6       ?onResize@DeferredEngine@@QAEXXZ 004025e6 f   DeferredEngine.obj
 0001:000018a3       ?vectorOverSemiSphere@DeferredEngine@@AAE?AUD3DXVECTOR3@@XZ 004028a3 f   DeferredEngine.obj
 0001:00001947       ?setUpDeferred@DeferredEngine@@AAEXXZ 00402947 f   DeferredEngine.obj
 0001:00001a83       ?setUpSSDO@DeferredEngine@@AAEXXZ 00402a83 f   DeferredEngine.obj
 0001:00001b59       ?set@DeferredEngine@@QAEXXZ 00402b59 f   DeferredEngine.obj
 0001:00001c22       ?composite@DeferredEngine@@QAEXXZ 00402c22 f   DeferredEngine.obj
 0001:00001c27       ?compositeFinal@DeferredEngine@@AAEXXZ 00402c27 f   DeferredEngine.obj
 0001:00001f13       ?createRenderTarget@DeferredEngine@@AAE_NAAVDxRenderTarget@@HHH@Z 00402f13 f   DeferredEngine.obj
 0001:00001fed       ?generatePermutationTexture@DeferredEngine@@AAEXXZ 00402fed f   DeferredEngine.obj
 0001:000020d7       ?resize@DeferredEngine@@QAEXHH@Z 004030d7 f   DeferredEngine.obj
 0001:000020ea       ?drawText@DeferredEngine@@QBEXAAV?$basic_string@DU?$char_traits@D@std@@V?$allocator@D@2@@std@@_NUD3DXCOLOR@@@Z 004030ea f   DeferredEngine.obj
 0001:0000215c       ??0Camera@@QAE@XZ          0040315c f   Camera.obj
 0001:00002192       ?updateCamera@Camera@@QAEXPAUD3DXMATRIX@@@Z 00403192 f   Camera.obj
 0001:000021a7       ?setPositionAndAt@Camera@@QAEXPAUD3DXVECTOR3@@0@Z 004031a7 f   Camera.obj
 0001:000021c0       ?setUp@Camera@@QAEXPAUD3DXVECTOR3@@@Z 004031c0 f   Camera.obj
 0001:000021c0       ?modifyVertex@HE_vert@@QAEXABVVertexObj@@@Z 004031c0 f   HE_vert.obj
 0001:000021cc       ?recomputeTbnView@Camera@@AAEXXZ 004031cc f   Camera.obj
 0001:000022c5       ??0Camera3rdPersonView@@QAE@PAVCamera@@@Z 004032c5 f   CameraThidPerson.obj
 0001:0000232c       ?updateTargetParameters@Camera3rdPersonView@@QAEXABUD3DXVECTOR3@@00M@Z 0040332c f   CameraThidPerson.obj
 0001:0000243d       ?updateCamera@Camera3rdPersonView@@QBEXXZ 0040343d f   CameraThidPerson.obj
 0001:000024cb       ?_Swap_aux@_Container_base_aux@std@@QAEXAAV12@@Z 004034cb f i Mesh.obj
 0001:000024ea       ??4ProcTex@ObjEd@@QAEAAV01@ABV01@@Z 004034ea f i Mesh.obj
 0001:00002532       ??1BevelEInfo@ObjEd@@QAE@XZ 00403532 f i Mesh.obj
 0001:00002575       ??0BevelEInfo@ObjEd@@QAE@XZ 00403575 f i Mesh.obj
 0001:0000259a       ??0Mesh@@QAE@XZ            0040359a f   Mesh.obj
 0001:00002684       ?setMode@Mesh@@QAEXH@Z     00403684 f   Mesh.obj
 0001:000026bc       ??1Face@@QAE@XZ            004036bc f i Mesh.obj
 0001:000026de       ?opTranslate@Mesh@@QAEXABVOpTranslate@OpInfo@@@Z 004036de f   Mesh.obj
 0001:0000275b       ?opScale@Mesh@@QAEXABVOpScale@OpInfo@@@Z 0040375b f   Mesh.obj
 0001:00002806       ?opTranslateVertex@Mesh@@AAEXUD3DXVECTOR3@@ABV?$vector@USelection@ObjEd@@V?$allocator@USelection@ObjEd@@@std@@@std@@@Z 00403806 f   Mesh.obj
 0001:00002880       ?opScaleVertices@Mesh@@AAEXUD3DXVECTOR3@@0ABV?$vector@USelection@ObjEd@@V?$allocator@USelection@ObjEd@@@std@@@std@@@Z 00403880 f   Mesh.obj
 0001:00002901       ?opExtrude@Mesh@@QAEXM@Z   00403901 f   Mesh.obj
 0001:000029a4       ?opExtrude@Mesh@@QAEXABVOpExtrude@OpInfo@@@Z 004039a4 f   Mesh.obj
 0001:00002a78       ??1ExtrudeInnerInfo@ObjEd@@QAE@XZ 00403a78 f i Mesh.obj
 0001:00002aba       ??4ExtrudeInnerInfo@ObjEd@@QAEAAU01@ABU01@@Z 00403aba f i Mesh.obj
 0001:00002af5       ?opExtrudeInner@Mesh@@QAEXM@Z 00403af5 f   Mesh.obj
 0001:00002b94       ?opExtrudeInner@Mesh@@QAEXABVOpExtrudeInner@OpInfo@@@Z 00403b94 f   Mesh.obj
 0001:00002c68       ??1ExtrudeInfo@ObjEd@@QAE@XZ 00403c68 f i Mesh.obj
 0001:00002c68       ??1ExtrudeMatrixInfo@ObjEd@@QAE@XZ 00403c68 f i Mesh.obj
 0001:00002c8a       ??4ExtrudeMatrixInfo@ObjEd@@QAEAAU01@ABU01@@Z 00403c8a f i Mesh.obj
 0001:00002c8a       ??4ExtrudeInfo@ObjEd@@QAEAAU01@ABU01@@Z 00403c8a f i Mesh.obj
 0001:00002cc4       ?opExtrudeMatrix@Mesh@@QAEXM@Z 00403cc4 f   Mesh.obj
 0001:00002d4e       ?opExtrudeMatrix@Mesh@@QAEXABVOpExtrudeMatrix@OpInfo@@@Z 00403d4e f   Mesh.obj
 0001:00002e0a       ??4BevelVInfo@ObjEd@@QAEAAU01@ABU01@@Z 00403e0a f i Mesh.obj
 0001:00002e4e       ?opBevelV@Mesh@@QAEXABVOpBevelV@OpInfo@@@Z 00403e4e f   Mesh.obj
 0001:00002f70       ??4BevelEInfo@ObjEd@@QAEAAU01@ABU01@@Z 00403f70 f i Mesh.obj
 0001:00002fb1       ?opBevelE@Mesh@@QAEXABVOpBevelE@OpInfo@@@Z 00403fb1 f   Mesh.obj
 0001:00003038       ??1BevelVInfo@ObjEd@@QAE@XZ 00404038 f i Mesh.obj
 0001:00003038       ??1NorScaleInfo@ObjEd@@QAE@XZ 00404038 f i Mesh.obj
 0001:0000305b       ??4NorScaleInfo@ObjEd@@QAEAAU01@ABU01@@Z 0040405b f i Mesh.obj
 0001:00003099       ?opNorScale@Mesh@@QAEXM@Z  00404099 f   Mesh.obj
 0001:0000312f       ?opNorScale@Mesh@@QAEXABVOpNormScale@OpInfo@@@Z 0040412f f   Mesh.obj
 0001:000031f7       ?opTranslateEdges@Mesh@@AAEXUD3DXVECTOR3@@ABV?$vector@USelection@ObjEd@@V?$allocator@USelection@ObjEd@@@std@@@std@@@Z 004041f7 f   Mesh.obj
 0001:0000328d       ?opTranslateFaces@Mesh@@AAEXUD3DXVECTOR3@@ABV?$vector@USelection@ObjEd@@V?$allocator@USelection@ObjEd@@@std@@@std@@@Z 0040428d f   Mesh.obj
 0001:00003324       ?opScaleEdges@Mesh@@AAEXUD3DXVECTOR3@@0ABV?$vector@USelection@ObjEd@@V?$allocator@USelection@ObjEd@@@std@@@std@@@Z 00404324 f   Mesh.obj
 0001:000033bc       ?opScaleFaces@Mesh@@AAEXUD3DXVECTOR3@@0ABV?$vector@USelection@ObjEd@@V?$allocator@USelection@ObjEd@@@std@@@std@@@Z 004043bc f   Mesh.obj
 0001:00003455       ?verticesOfEdgeSelection@Mesh@@AAE?AV?$list@HV?$allocator@H@std@@@std@@ABV?$vector@USelection@ObjEd@@V?$allocator@USelection@ObjEd@@@std@@@3@@Z 00404455 f   Mesh.obj
 0001:00003506       ?verticesOfFaceSelection@Mesh@@AAE?AV?$list@HV?$allocator@H@std@@@std@@ABV?$vector@USelection@ObjEd@@V?$allocator@USelection@ObjEd@@@std@@@3@@Z 00404506 f   Mesh.obj
 0001:000035de       ??4OpKnifeLine@OpInfo@@QAEAAV01@ABV01@@Z 004045de f i Mesh.obj
 0001:00003609       ?opKnifeLine@Mesh@@QAEXABVOpKnifeLine@OpInfo@@@Z 00404609 f   Mesh.obj
 0001:00003628       ?opPrimCube@Mesh@@QAEXABVOpPrimCube@OpInfo@@@Z 00404628 f   Mesh.obj
 0001:0000366c       ?reconstructFromStack@Mesh@@AAEXXZ 0040466c f   Mesh.obj
 0001:00003878       ?opTranslateObject@Mesh@@AAEXUD3DXVECTOR3@@ABV?$vector@USelection@ObjEd@@V?$allocator@USelection@ObjEd@@@std@@@std@@@Z 00404878 f   Mesh.obj
 0001:0000392c       ?opScaleObjects@Mesh@@AAEXUD3DXVECTOR3@@0ABV?$vector@USelection@ObjEd@@V?$allocator@USelection@ObjEd@@@std@@@std@@@Z 0040492c f   Mesh.obj
 0001:00003a03       ?addComponent@Mesh@@AAEHPAVMeshComponent@@@Z 00404a03 f   Mesh.obj
 0001:00003a71       ?nComponents@Mesh@@QBEHXZ  00404a71 f   Mesh.obj
 0001:00003a7b       ?release@Mesh@@QAEXXZ      00404a7b f   Mesh.obj
 0001:00003ba7       ?init@Mesh@@QAEXXZ         00404ba7 f   Mesh.obj
 0001:00003bd4       ?convertToDeferred@Mesh@@QAE?AV?$vector@PAVDeferredMeshModel@@V?$allocator@PAVDeferredMeshModel@@@std@@@std@@PAUID3D10Device@@UD3DXVECTOR3@@PAUColourMapping@ObjEd@@@Z 00404bd4 f   Mesh.obj
 0001:00003c8a       ?boundingSphere@Mesh@@QBE?AVBoundingSphere@Intersections@@XZ 00404c8a f   Mesh.obj
 0001:00003cae       ??0?$vector@HV?$allocator@H@std@@@std@@QAE@ABV01@@Z 00404cae f i Mesh.obj
 0001:00003d77       ??0?$vector@UD3DXVECTOR3@@V?$allocator@UD3DXVECTOR3@@@std@@@std@@QAE@ABV01@@Z 00404d77 f i Mesh.obj
 0001:00003e46       ??4?$vector@UD3DXVECTOR3@@V?$allocator@UD3DXVECTOR3@@@std@@@std@@QAEAAV01@ABV01@@Z 00404e46 f i Mesh.obj
 0001:00003f44       ??4?$vector@V?$vector@PAVHE_vert@@V?$allocator@PAVHE_vert@@@std@@@std@@V?$allocator@V?$vector@PAVHE_vert@@V?$allocator@PAVHE_vert@@@std@@@std@@@2@@std@@QAEAAV01@ABV01@@Z 00404f44 f i Mesh.obj
 0001:00004067       ??4?$vector@PAVHE_edge@@V?$allocator@PAVHE_edge@@@std@@@std@@QAEAAV01@ABV01@@Z 00405067 f i BevelE.obj
 0001:00004067       ??4?$vector@PAVHE_vert@@V?$allocator@PAVHE_vert@@@std@@@std@@QAEAAV01@ABV01@@Z 00405067 f i Mesh.obj
 0001:00004067       ??4?$vector@HV?$allocator@H@std@@@std@@QAEAAV01@ABV01@@Z 00405067 f i Mesh.obj
 0001:0000412b       ??0?$vector@HV?$allocator@H@std@@@std@@QAE@XZ 0040512b f i Mesh.obj
 0001:0000412b       ??0?$vector@USelection@ObjEd@@V?$allocator@USelection@ObjEd@@@std@@@std@@QAE@XZ 0040512b f i Mesh.obj
 0001:0000414b       ??0?$vector@USelection@ObjEd@@V?$allocator@USelection@ObjEd@@@std@@@std@@QAE@ABV01@@Z 0040514b f i Mesh.obj
 0001:000041ea       ??4?$vector@USelection@ObjEd@@V?$allocator@USelection@ObjEd@@@std@@@std@@QAEAAV01@ABV01@@Z 004051ea f i Mesh.obj
 0001:000042e8       ?begin@?$vector@USelection@ObjEd@@V?$allocator@USelection@ObjEd@@@std@@@std@@QBE?AV?$_Vector_const_iterator@USelection@ObjEd@@V?$allocator@USelection@ObjEd@@@std@@@2@XZ 004052e8 f i Mesh.obj
 0001:000042fd       ?end@?$vector@USelection@ObjEd@@V?$allocator@USelection@ObjEd@@@std@@@std@@QBE?AV?$_Vector_const_iterator@USelection@ObjEd@@V?$allocator@USelection@ObjEd@@@std@@@2@XZ 004052fd f i Mesh.obj
 0001:00004312       ??A?$vector@USelection@ObjEd@@V?$allocator@USelection@ObjEd@@@std@@@std@@QAEAAUSelection@ObjEd@@I@Z 00405312 f i Mesh.obj
 0001:00004312       ??A?$vector@USelection@ObjEd@@V?$allocator@USelection@ObjEd@@@std@@@std@@QBEABUSelection@ObjEd@@I@Z 00405312 f i Mesh.obj
 0001:00004312       ??A?$vector@UD3DXVECTOR3@@V?$allocator@UD3DXVECTOR3@@@std@@@std@@QAEAAUD3DXVECTOR3@@I@Z 00405312 f i BevelE.obj
 0001:00004312       ??A?$vector@UD3DXVECTOR3@@V?$allocator@UD3DXVECTOR3@@@std@@@std@@QBEABUD3DXVECTOR3@@I@Z 00405312 f i Terrain.obj
 0001:00004337       ?clear@?$vector@USelection@ObjEd@@V?$allocator@USelection@ObjEd@@@std@@@std@@QAEXXZ 00405337 f i Mesh.obj
 0001:0000439d       ??4?$vector@UEdgeIntersection@ObjEd@@V?$allocator@UEdgeIntersection@ObjEd@@@std@@@std@@QAEAAV01@ABV01@@Z 0040539d f i Mesh.obj
 0001:00004462       ??0?$vector@_NV?$allocator@_N@std@@@std@@QAE@XZ 00405462 f i Mesh.obj
 0001:000044a2       ?resize@?$vector@_NV?$allocator@_N@std@@@std@@QAEXI_N@Z 004054a2 f i Mesh.obj
 0001:00004525       ??A?$vector@_NV?$allocator@_N@std@@@std@@QBE_NI@Z 00405525 f i Mesh.obj
 0001:00004585       ?clear@?$vector@_NV?$allocator@_N@std@@@std@@QAEXXZ 00405585 f i Mesh.obj
 0001:000045d4       ?clear@?$vector@VProcTex@ObjEd@@V?$allocator@VProcTex@ObjEd@@@std@@@std@@QAEXXZ 004055d4 f i Mesh.obj
 0001:00004611       ?resize@?$vector@UBevelVInfo@ObjEd@@V?$allocator@UBevelVInfo@ObjEd@@@std@@@std@@QAEXI@Z 00405611 f i Mesh.obj
 0001:0000463c       ??A?$vector@UBevelVInfo@ObjEd@@V?$allocator@UBevelVInfo@ObjEd@@@std@@@std@@QAEAAUBevelVInfo@ObjEd@@I@Z 0040563c f i Mesh.obj
 0001:0000463c       ??A?$vector@UExtrudeMatrixInfo@ObjEd@@V?$allocator@UExtrudeMatrixInfo@ObjEd@@@std@@@std@@QAEAAUExtrudeMatrixInfo@ObjEd@@I@Z 0040563c f i Mesh.obj
 0001:0000463c       ??A?$vector@UExtrudeInfo@ObjEd@@V?$allocator@UExtrudeInfo@ObjEd@@@std@@@std@@QAEAAUExtrudeInfo@ObjEd@@I@Z 0040563c f i Mesh.obj
 0001:00004661       ?clear@?$vector@UBevelVInfo@ObjEd@@V?$allocator@UBevelVInfo@ObjEd@@@std@@@std@@QAEXXZ 00405661 f i Mesh.obj
 0001:0000469d       ?resize@?$vector@UExtrudeInfo@ObjEd@@V?$allocator@UExtrudeInfo@ObjEd@@@std@@@std@@QAEXI@Z 0040569d f i Mesh.obj
 0001:0000469d       ?resize@?$vector@UExtrudeMatrixInfo@ObjEd@@V?$allocator@UExtrudeMatrixInfo@ObjEd@@@std@@@std@@QAEXI@Z 0040569d f i Mesh.obj
 0001:000046c1       ?clear@?$vector@UExtrudeMatrixInfo@ObjEd@@V?$allocator@UExtrudeMatrixInfo@ObjEd@@@std@@@std@@QAEXXZ 004056c1 f i Mesh.obj
 0001:000046c1       ?clear@?$vector@UExtrudeInfo@ObjEd@@V?$allocator@UExtrudeInfo@ObjEd@@@std@@@std@@QAEXXZ 004056c1 f i Mesh.obj
 0001:000046fd       ??A?$vector@UExtrudeInnerInfo@ObjEd@@V?$allocator@UExtrudeInnerInfo@ObjEd@@@std@@@std@@QAEAAUExtrudeInnerInfo@ObjEd@@I@Z 004056fd f i Mesh.obj
 0001:00004722       ?clear@?$vector@UExtrudeInnerInfo@ObjEd@@V?$allocator@UExtrudeInnerInfo@ObjEd@@@std@@@std@@QAEXXZ 00405722 f i Mesh.obj
 0001:0000475e       ?resize@?$vector@UNorScaleInfo@ObjEd@@V?$allocator@UNorScaleInfo@ObjEd@@@std@@@std@@QAEXI@Z 0040575e f i Mesh.obj
 0001:00004789       ??A?$vector@UNorScaleInfo@ObjEd@@V?$allocator@UNorScaleInfo@ObjEd@@@std@@@std@@QAEAAUNorScaleInfo@ObjEd@@I@Z 00405789 f i Mesh.obj
 0001:000047ab       ?clear@?$vector@UNorScaleInfo@ObjEd@@V?$allocator@UNorScaleInfo@ObjEd@@@std@@@std@@QAEXXZ 004057ab f i Mesh.obj
 0001:000047e7       ??0?$list@HV?$allocator@H@std@@@std@@QAE@XZ 004057e7 f i Mesh.obj
 0001:0000480e       ??1?$list@HV?$allocator@H@std@@@std@@QAE@XZ 0040580e f i Mesh.obj
 0001:0000482d       ?unique@?$list@HV?$allocator@H@std@@@std@@QAEXXZ 0040582d f i Mesh.obj
 0001:000048cd       ?sort@?$list@HV?$allocator@H@std@@@std@@QAEXXZ 004058cd f i Mesh.obj
 0001:00004a37       ??0ExtrudeInnerInfo@ObjEd@@QAE@XZ 00405a37 f i Mesh.obj
 0001:00004a5b       ?clear@?$vector@PAVHE_vert@@V?$allocator@PAVHE_vert@@@std@@@std@@QAEXXZ 00405a5b f i Mesh.obj
 0001:00004a5b       ?clear@?$vector@HV?$allocator@H@std@@@std@@QAEXXZ 00405a5b f i Mesh.obj
 0001:00004a5b       ?clear@?$vector@PAVHE_edge@@V?$allocator@PAVHE_edge@@@std@@@std@@QAEXXZ 00405a5b f i BevelE.obj
 0001:00004a98       ?clear@?$vector@UD3DXVECTOR3@@V?$allocator@UD3DXVECTOR3@@@std@@@std@@QAEXXZ 00405a98 f i Mesh.obj
 0001:00004ad5       ?_Buy@?$vector@UD3DXVECTOR3@@V?$allocator@UD3DXVECTOR3@@@std@@@std@@IAE_NI@Z 00405ad5 f i Mesh.obj
 0001:00004ad5       ?_Buy@?$vector@USelection@ObjEd@@V?$allocator@USelection@ObjEd@@@std@@@std@@IAE_NI@Z 00405ad5 f i Mesh.obj
 0001:00004afe       ?_Tidy@?$vector@PAVHE_edge@@V?$allocator@PAVHE_edge@@@std@@@std@@IAEXXZ 00405afe f i BevelE.obj
 0001:00004afe       ?_Tidy@?$vector@UD3DXVECTOR3@@V?$allocator@UD3DXVECTOR3@@@std@@@std@@IAEXXZ 00405afe f i Mesh.obj
 0001:00004afe       ?_Tidy@?$vector@HV?$allocator@H@std@@@std@@IAEXXZ 00405afe f i DeferredEngine.obj
 0001:00004afe       ?_Tidy@?$vector@PAVHE_face@@V?$allocator@PAVHE_face@@@std@@@std@@IAEXXZ 00405afe f i BevelV.obj
 0001:00004afe       ?_Tidy@?$vector@USelection@ObjEd@@V?$allocator@USelection@ObjEd@@@std@@@std@@IAEXXZ 00405afe f i Mesh.obj
 0001:00004afe       ?_Tidy@?$vector@PAVStaticRigidBody@@V?$allocator@PAVStaticRigidBody@@@std@@@std@@IAEXXZ 00405afe f i Physics.obj
 0001:00004afe       ?_Tidy@?$vector@PAVHE_vert@@V?$allocator@PAVHE_vert@@@std@@@std@@IAEXXZ 00405afe f i Mesh.obj
 0001:00004b19       ?_Buy@?$vector@V?$vector@PAVHE_vert@@V?$allocator@PAVHE_vert@@@std@@@std@@V?$allocator@V?$vector@PAVHE_vert@@V?$allocator@PAVHE_vert@@@std@@@std@@@2@@std@@IAE_NI@Z 00405b19 f i Mesh.obj
 0001:00004b19       ?_Buy@?$vector@VVertexPosNor@@V?$allocator@VVertexPosNor@@@std@@@std@@IAE_NI@Z 00405b19 f i EditableMeshModelProcTex.obj
 0001:00004b42       ?_Tidy@?$vector@V?$vector@PAVHE_vert@@V?$allocator@PAVHE_vert@@@std@@@std@@V?$allocator@V?$vector@PAVHE_vert@@V?$allocator@PAVHE_vert@@@std@@@std@@@2@@std@@IAEXXZ 00405b42 f i Mesh.obj
 0001:00004b67       ??0?$_Vector_val@USelection@ObjEd@@V?$allocator@USelection@ObjEd@@@std@@@std@@IAE@V?$allocator@USelection@ObjEd@@@1@@Z 00405b67 f i Mesh.obj
 0001:00004b67       ??0?$_Vector_val@HV?$allocator@H@std@@@std@@IAE@V?$allocator@H@1@@Z 00405b67 f i Mesh.obj
 0001:00004b80       ?clear@?$vector@UEdgeIntersection@ObjEd@@V?$allocator@UEdgeIntersection@ObjEd@@@std@@@std@@QAEXXZ 00405b80 f i Mesh.obj
 0001:00004be4       ?_Buy@?$vector@UEdgeIntersection@ObjEd@@V?$allocator@UEdgeIntersection@ObjEd@@@std@@@std@@IAE_NI@Z 00405be4 f i Mesh.obj
 0001:00004c5e       ?end@?$vector@_NV?$allocator@_N@std@@@std@@QAE?AV?$_Vb_iterator@IHV?$vector@_NV?$allocator@_N@std@@@std@@@2@XZ 00405c5e f i Mesh.obj
 0001:00004c81       ?erase@?$vector@_NV?$allocator@_N@std@@@std@@QAE?AV?$_Vb_iterator@IHV?$vector@_NV?$allocator@_N@std@@@std@@@2@V?$_Vb_const_iterator@IHV?$vector@_NV?$allocator@_N@std@@@std@@@2@0@Z 00405c81 f i Mesh.obj
 0001:00004d60       ?_Insert_n@?$vector@_NV?$allocator@_N@std@@@std@@IAEXV?$_Vb_const_iterator@IHV?$vector@_NV?$allocator@_N@std@@@std@@@2@I_N@Z 00405d60 f i Mesh.obj
 0001:00004dfd       ?erase@?$vector@VProcTex@ObjEd@@V?$allocator@VProcTex@ObjEd@@@std@@@std@@QAE?AV?$_Vector_iterator@VProcTex@ObjEd@@V?$allocator@VProcTex@ObjEd@@@std@@@2@V?$_Vector_const_iterator@VProcTex@ObjEd@@V?$allocator@VProcTex@ObjEd@@@std@@@2@0@Z 00405dfd f i Mesh.obj
 0001:00004e5d       ?_Destroy@?$vector@VProcTex@ObjEd@@V?$allocator@VProcTex@ObjEd@@@std@@@std@@IAEXPAVProcTex@ObjEd@@0@Z 00405e5d f i Mesh.obj
 0001:00004e7e       ?resize@?$vector@PAVTimeTorque@@V?$allocator@PAVTimeTorque@@@std@@@std@@QAEXIPAVTimeTorque@@@Z 00405e7e f i RigidBodyExt.obj
 0001:00004e7e       ?resize@?$vector@PAVTimeForce@@V?$allocator@PAVTimeForce@@@std@@@std@@QAEXIPAVTimeForce@@@Z 00405e7e f i RigidBodyExt.obj
 0001:00004e7e       ?resize@?$vector@PAVMeshComponent@@V?$allocator@PAVMeshComponent@@@std@@@std@@QAEXIPAVMeshComponent@@@Z 00405e7e f i Mesh.obj
 0001:00004f34       ?resize@?$vector@UBevelVInfo@ObjEd@@V?$allocator@UBevelVInfo@ObjEd@@@std@@@std@@QAEXIUBevelVInfo@ObjEd@@@Z 00405f34 f i Mesh.obj
 0001:00004ff4       ?erase@?$vector@UBevelVInfo@ObjEd@@V?$allocator@UBevelVInfo@ObjEd@@@std@@@std@@QAE?AV?$_Vector_iterator@UBevelVInfo@ObjEd@@V?$allocator@UBevelVInfo@ObjEd@@@std@@@2@V?$_Vector_const_iterator@UBevelVInfo@ObjEd@@V?$allocator@UBevelVInfo@ObjEd@@@std@@@2@0@Z 00405ff4 f i Mesh.obj
 0001:0000509f       ?resize@?$vector@UExtrudeInfo@ObjEd@@V?$allocator@UExtrudeInfo@ObjEd@@@std@@@std@@QAEXIUExtrudeInfo@ObjEd@@@Z 0040609f f i Mesh.obj
 0001:0000509f       ?resize@?$vector@UExtrudeMatrixInfo@ObjEd@@V?$allocator@UExtrudeMatrixInfo@ObjEd@@@std@@@std@@QAEXIUExtrudeMatrixInfo@ObjEd@@@Z 0040609f f i Mesh.obj
 0001:0000515f       ?erase@?$vector@UExtrudeMatrixInfo@ObjEd@@V?$allocator@UExtrudeMatrixInfo@ObjEd@@@std@@@std@@QAE?AV?$_Vector_iterator@UExtrudeMatrixInfo@ObjEd@@V?$allocator@UExtrudeMatrixInfo@ObjEd@@@std@@@2@V?$_Vector_const_iterator@UExtrudeMatrixInfo@ObjEd@@V?$allocator@UExtrudeMatrixInfo@ObjEd@@@std@@@2@0@Z 0040615f f i Mesh.obj
 0001:0000515f       ?erase@?$vector@UExtrudeInfo@ObjEd@@V?$allocator@UExtrudeInfo@ObjEd@@@std@@@std@@QAE?AV?$_Vector_iterator@UExtrudeInfo@ObjEd@@V?$allocator@UExtrudeInfo@ObjEd@@@std@@@2@V?$_Vector_const_iterator@UExtrudeInfo@ObjEd@@V?$allocator@UExtrudeInfo@ObjEd@@@std@@@2@0@Z 0040615f f i Mesh.obj
 0001:000051d5       ?resize@?$vector@UExtrudeInnerInfo@ObjEd@@V?$allocator@UExtrudeInnerInfo@ObjEd@@@std@@@std@@QAEXIUExtrudeInnerInfo@ObjEd@@@Z 004061d5 f i Mesh.obj
 0001:00005295       ?erase@?$vector@UExtrudeInnerInfo@ObjEd@@V?$allocator@UExtrudeInnerInfo@ObjEd@@@std@@@std@@QAE?AV?$_Vector_iterator@UExtrudeInnerInfo@ObjEd@@V?$allocator@UExtrudeInnerInfo@ObjEd@@@std@@@2@V?$_Vector_const_iterator@UExtrudeInnerInfo@ObjEd@@V?$allocator@UExtrudeInnerInfo@ObjEd@@@std@@@2@0@Z 00406295 f i Mesh.obj
 0001:0000530b       ?resize@?$vector@UNorScaleInfo@ObjEd@@V?$allocator@UNorScaleInfo@ObjEd@@@std@@@std@@QAEXIUNorScaleInfo@ObjEd@@@Z 0040630b f i Mesh.obj
 0001:000053c5       ?erase@?$vector@UNorScaleInfo@ObjEd@@V?$allocator@UNorScaleInfo@ObjEd@@@std@@@std@@QAE?AV?$_Vector_iterator@UNorScaleInfo@ObjEd@@V?$allocator@UNorScaleInfo@ObjEd@@@std@@@2@V?$_Vector_const_iterator@UNorScaleInfo@ObjEd@@V?$allocator@UNorScaleInfo@ObjEd@@@std@@@2@0@Z 004063c5 f i Mesh.obj
 0001:00005463       ?_Insert@?$list@HV?$allocator@H@std@@@std@@QAEXV?$_Const_iterator@$00@12@ABH@Z 00406463 f i Mesh.obj
 0001:00005494       ?erase@?$list@HV?$allocator@H@std@@@std@@QAE?AV?$_Iterator@$00@12@V?$_Const_iterator@$00@12@@Z 00406494 f i Mesh.obj
 0001:000054dd       ?swap@?$list@HV?$allocator@H@std@@@std@@QAEXAAV12@@Z 004064dd f i Mesh.obj
 0001:00005515       ?splice@?$list@HV?$allocator@H@std@@@std@@QAEXV?$_Const_iterator@$00@12@AAV12@@Z 00406515 f i Mesh.obj
 0001:00005547       ?merge@?$list@HV?$allocator@H@std@@@std@@QAEXAAV12@@Z 00406547 f i Mesh.obj
 0001:0000564b       ?_Splice@?$list@HV?$allocator@H@std@@@std@@QAEXV?$_Const_iterator@$00@12@AAV12@00I_N@Z 0040664b f i Mesh.obj
 0001:000056a2       ?_Buynode@?$list@HV?$allocator@H@std@@@std@@IAEPAU_Node@?$_List_nod@HV?$allocator@H@std@@@2@XZ 004066a2 f i Mesh.obj
 0001:000056f8       ??E?$_Const_iterator@$00@?$list@HV?$allocator@H@std@@@std@@QAEAAV012@XZ 004066f8 f i Mesh.obj
 0001:00005729       ?_Ufill@?$vector@PAVDeferredMeshModel@@V?$allocator@PAVDeferredMeshModel@@@std@@@std@@IAEPAPAVDeferredMeshModel@@PAPAV3@IABQAV3@@Z 00406729 f i Mesh.obj
 0001:00005729       ?_Ufill@?$vector@PAVRigidBody@@V?$allocator@PAVRigidBody@@@std@@@std@@IAEPAPAVRigidBody@@PAPAV3@IABQAV3@@Z 00406729 f i Physics.obj
 0001:00005729       ?_Ufill@?$vector@PAVHeightZone@@V?$allocator@PAVHeightZone@@@std@@@std@@IAEPAPAVHeightZone@@PAPAV3@IABQAV3@@Z 00406729 f i HeightFunction.obj
 0001:00005729       ?_Ufill@?$vector@PAVHE_face@@V?$allocator@PAVHE_face@@@std@@@std@@IAEPAPAVHE_face@@PAPAV3@IABQAV3@@Z 00406729 f i Extrusion.obj
 0001:00005729       ?_Ufill@?$vector@PAVStaticRigidBody@@V?$allocator@PAVStaticRigidBody@@@std@@@std@@IAEPAPAVStaticRigidBody@@PAPAV3@IABQAV3@@Z 00406729 f i Physics.obj
 0001:00005729       ?_Ufill@?$vector@IV?$allocator@I@std@@@std@@IAEPAIPAIIABI@Z 00406729 f i BaseDX.obj
 0001:00005729       ?_Ufill@?$vector@HV?$allocator@H@std@@@std@@IAEPAHPAHIABH@Z 00406729 f i BevelE.obj
 0001:00005729       ?_Ufill@?$vector@PAVTimeTorque@@V?$allocator@PAVTimeTorque@@@std@@@std@@IAEPAPAVTimeTorque@@PAPAV3@IABQAV3@@Z 00406729 f i RigidBodyExt.obj
 0001:00005729       ?_Ufill@?$vector@PAVTimeForce@@V?$allocator@PAVTimeForce@@@std@@@std@@IAEPAPAVTimeForce@@PAPAV3@IABQAV3@@Z 00406729 f i RigidBodyExt.obj
 0001:00005729       ?_Ufill@?$vector@PAVRigidBodyExt@@V?$allocator@PAVRigidBodyExt@@@std@@@std@@IAEPAPAVRigidBodyExt@@PAPAV3@IABQAV3@@Z 00406729 f i Physics.obj
 0001:00005729       ?_Ufill@?$vector@PAVMeshComponent@@V?$allocator@PAVMeshComponent@@@std@@@std@@IAEPAPAVMeshComponent@@PAPAV3@IABQAV3@@Z 00406729 f i Mesh.obj
 0001:00005729       ?_Ufill@?$vector@PAV?$LineListModel@UD3DXVECTOR3@@@@V?$allocator@PAV?$LineListModel@UD3DXVECTOR3@@@@@std@@@std@@IAEPAPAV?$LineListModel@UD3DXVECTOR3@@@@PAPAV3@IABQAV3@@Z 00406729 f i WorldTerrain.obj
 0001:00005729       ?_Ufill@?$vector@PAVHE_vert@@V?$allocator@PAVHE_vert@@@std@@@std@@IAEPAPAVHE_vert@@PAPAV3@IABQAV3@@Z 00406729 f i BevelE.obj
 0001:00005729       ?_Ufill@?$vector@PAVHE_edge@@V?$allocator@PAVHE_edge@@@std@@@std@@IAEPAPAVHE_edge@@PAPAV3@IABQAV3@@Z 00406729 f i BevelE.obj
 0001:00005749       ?erase@?$vector@HV?$allocator@H@std@@@std@@QAE?AV?$_Vector_iterator@HV?$allocator@H@std@@@2@V?$_Vector_const_iterator@HV?$allocator@H@std@@@2@0@Z 00406749 f i Mesh.obj
 0001:00005749       ?erase@?$vector@IV?$allocator@I@std@@@std@@QAE?AV?$_Vector_iterator@IV?$allocator@I@std@@@2@V?$_Vector_const_iterator@IV?$allocator@I@std@@@2@0@Z 00406749 f i BaseDX.obj
 0001:00005749       ?erase@?$vector@PAVHE_edge@@V?$allocator@PAVHE_edge@@@std@@@std@@QAE?AV?$_Vector_iterator@PAVHE_edge@@V?$allocator@PAVHE_edge@@@std@@@2@V?$_Vector_const_iterator@PAVHE_edge@@V?$allocator@PAVHE_edge@@@std@@@2@0@Z 00406749 f i BevelE.obj
 0001:00005749       ?erase@?$vector@PAVHE_vert@@V?$allocator@PAVHE_vert@@@std@@@std@@QAE?AV?$_Vector_iterator@PAVHE_vert@@V?$allocator@PAVHE_vert@@@std@@@2@V?$_Vector_const_iterator@PAVHE_vert@@V?$allocator@PAVHE_vert@@@std@@@2@0@Z 00406749 f i Mesh.obj
 0001:0000579e       ?erase@?$vector@UD3DXVECTOR3@@V?$allocator@UD3DXVECTOR3@@@std@@@std@@QAE?AV?$_Vector_iterator@UD3DXVECTOR3@@V?$allocator@UD3DXVECTOR3@@@std@@@2@V?$_Vector_const_iterator@UD3DXVECTOR3@@V?$allocator@UD3DXVECTOR3@@@std@@@2@0@Z 0040679e f i Mesh.obj
 0001:000057f4       ?allocate@?$allocator@UD3DXVECTOR3@@@std@@QAEPAUD3DXVECTOR3@@I@Z 004067f4 f i Mesh.obj
 0001:000057f4       ?allocate@?$allocator@USelection@ObjEd@@@std@@QAEPAUSelection@ObjEd@@I@Z 004067f4 f i Mesh.obj
 0001:0000582e       ?erase@?$vector@V?$vector@PAVHE_vert@@V?$allocator@PAVHE_vert@@@std@@@std@@V?$allocator@V?$vector@PAVHE_vert@@V?$allocator@PAVHE_vert@@@std@@@std@@@2@@std@@QAE?AV?$_Vector_iterator@V?$vector@PAVHE_vert@@V?$allocator@PAVHE_vert@@@std@@@std@@V?$allocator@V?$vector@PAVHE_vert@@V?$allocator@PAVHE_vert@@@std@@@std@@@2@@2@V?$_Vector_const_iterator@V?$vector@PAVHE_vert@@V?$allocator@PAVHE_vert@@@std@@@std@@V?$allocator@V?$vector@PAVHE_vert@@V?$allocator@PAVHE_vert@@@std@@@std@@@2@@2@0@Z 0040682e f i Mesh.obj
 0001:0000588c       ?_Make_iter@?$vector@_NV?$allocator@_N@std@@@std@@QAE?AV?$_Vb_iterator@IHV?$vector@_NV?$allocator@_N@std@@@std@@@2@V?$_Vb_const_iterator@IHV?$vector@_NV?$allocator@_N@std@@@std@@@2@@Z 0040688c f i Mesh.obj
 0001:000058ce       ?_Insert_x@?$vector@_NV?$allocator@_N@std@@@std@@IAEIV?$_Vb_const_iterator@IHV?$vector@_NV?$allocator@_N@std@@@std@@@2@I@Z 004068ce f i Mesh.obj
 0001:000059a5       ?_Insert_n@?$vector@PAVTimeTorque@@V?$allocator@PAVTimeTorque@@@std@@@std@@IAEXV?$_Vector_const_iterator@PAVTimeTorque@@V?$allocator@PAVTimeTorque@@@std@@@2@IABQAVTimeTorque@@@Z 004069a5 f i RigidBodyExt.obj
 0001:000059a5       ?_Insert_n@?$vector@PAVMeshComponent@@V?$allocator@PAVMeshComponent@@@std@@@std@@IAEXV?$_Vector_const_iterator@PAVMeshComponent@@V?$allocator@PAVMeshComponent@@@std@@@2@IABQAVMeshComponent@@@Z 004069a5 f i Mesh.obj
 0001:000059a5       ?_Insert_n@?$vector@PAVTimeForce@@V?$allocator@PAVTimeForce@@@std@@@std@@IAEXV?$_Vector_const_iterator@PAVTimeForce@@V?$allocator@PAVTimeForce@@@std@@@2@IABQAVTimeForce@@@Z 004069a5 f i RigidBodyExt.obj
 0001:00005b80       ?_Xlen@?$vector@PAVHE_vert@@V?$allocator@PAVHE_vert@@@std@@@std@@KAXXZ 00406b80 f i Mesh.obj
 0001:00005b80       ?_Xlen@?$vector@VOpExtrudeMatrix@OpInfo@@V?$allocator@VOpExtrudeMatrix@OpInfo@@@std@@@std@@KAXXZ 00406b80 f i OpStack.obj
 0001:00005b80       ?_Xlen@?$vector@PAVMeshComponent@@V?$allocator@PAVMeshComponent@@@std@@@std@@KAXXZ 00406b80 f i Mesh.obj
 0001:00005b80       ?_Xlen@?$vector@V?$vector@PAVHE_vert@@V?$allocator@PAVHE_vert@@@std@@@std@@V?$allocator@V?$vector@PAVHE_vert@@V?$allocator@PAVHE_vert@@@std@@@std@@@2@@std@@KAXXZ 00406b80 f i Mesh.obj
 0001:00005b80       ?_Xlen@?$vector@UD3DXVECTOR2@@V?$allocator@UD3DXVECTOR2@@@std@@@std@@KAXXZ 00406b80 f i SplineLengthMapped.obj
 0001:00005b80       ?_Xlen@?$vector@UExtrudeInnerInfo@ObjEd@@V?$allocator@UExtrudeInnerInfo@ObjEd@@@std@@@std@@KAXXZ 00406b80 f i Mesh.obj
 0001:00005b80       ?_Xlen@?$vector@VOpKnifeLine@OpInfo@@V?$allocator@VOpKnifeLine@OpInfo@@@std@@@std@@KAXXZ 00406b80 f i OpStack.obj
 0001:00005b80       ?_Xlen@?$vector@VOpExtrude@OpInfo@@V?$allocator@VOpExtrude@OpInfo@@@std@@@std@@KAXXZ 00406b80 f i OpStack.obj
 0001:00005b80       ?_Xlen@?$vector@UBevelVInfo@ObjEd@@V?$allocator@UBevelVInfo@ObjEd@@@std@@@std@@KAXXZ 00406b80 f i Mesh.obj
 0001:00005b80       ?_Xlen@?$vector@PAVTimeTorque@@V?$allocator@PAVTimeTorque@@@std@@@std@@KAXXZ 00406b80 f i RigidBodyExt.obj
 0001:00005b80       ?_Xlen@?$vector@PAVRigidBodyExt@@V?$allocator@PAVRigidBodyExt@@@std@@@std@@KAXXZ 00406b80 f i Physics.obj
 0001:00005b80       ?_Xlen@?$vector@VOpBevelV@OpInfo@@V?$allocator@VOpBevelV@OpInfo@@@std@@@std@@KAXXZ 00406b80 f i OpStack.obj
 0001:00005b80       ?_Xlen@?$vector@UExtrudeInfo@ObjEd@@V?$allocator@UExtrudeInfo@ObjEd@@@std@@@std@@KAXXZ 00406b80 f i Mesh.obj
 0001:00005b80       ?_Xlen@?$vector@UExtrudeMatrixInfo@ObjEd@@V?$allocator@UExtrudeMatrixInfo@ObjEd@@@std@@@std@@KAXXZ 00406b80 f i Mesh.obj
 0001:00005b80       ?_Xlen@?$vector@VOpPrimCube@OpInfo@@V?$allocator@VOpPrimCube@OpInfo@@@std@@@std@@KAXXZ 00406b80 f i OpStack.obj
 0001:00005b80       ?_Xlen@?$vector@PAVRigidBody@@V?$allocator@PAVRigidBody@@@std@@@std@@KAXXZ 00406b80 f i Physics.obj
 0001:00005b80       ?_Xlen@?$vector@VPrecision@@V?$allocator@VPrecision@@@std@@@std@@KAXXZ 00406b80 f i Physics.obj
 0001:00005b80       ?_Xlen@?$vector@PAV?$LineListModel@UD3DXVECTOR3@@@@V?$allocator@PAV?$LineListModel@UD3DXVECTOR3@@@@@std@@@std@@KAXXZ 00406b80 f i WorldTerrain.obj
 0001:00005b80       ?_Xlen@?$vector@PAVStaticRigidBody@@V?$allocator@PAVStaticRigidBody@@@std@@@std@@KAXXZ 00406b80 f i Physics.obj
 0001:00005b80       ?_Xlen@?$vector@MV?$allocator@M@std@@@std@@KAXXZ 00406b80 f i SplineLengthMapped.obj
 0001:00005b80       ?_Xlen@?$vector@PAVHE_edge@@V?$allocator@PAVHE_edge@@@std@@@std@@KAXXZ 00406b80 f i BevelE.obj
 0001:00005b80       ?_Xlen@?$vector@HV?$allocator@H@std@@@std@@KAXXZ 00406b80 f i Mesh.obj
 0001:00005b80       ?_Xlen@?$vector@PAVHeightZone@@V?$allocator@PAVHeightZone@@@std@@@std@@KAXXZ 00406b80 f i HeightFunction.obj
 0001:00005b80       ?_Xlen@?$vector@VOpExtrudeInner@OpInfo@@V?$allocator@VOpExtrudeInner@OpInfo@@@std@@@std@@KAXXZ 00406b80 f i OpStack.obj
 0001:00005b80       ?_Xlen@?$vector@VOpTranslate@OpInfo@@V?$allocator@VOpTranslate@OpInfo@@@std@@@std@@KAXXZ 00406b80 f i OpStack.obj
 0001:00005b80       ?_Xlen@?$vector@UD3DXVECTOR3@@V?$allocator@UD3DXVECTOR3@@@std@@@std@@KAXXZ 00406b80 f i Mesh.obj
 0001:00005b80       ?_Xlen@?$vector@UBevelEIntermidiateSharedNEdge@MeshComponent@@V?$allocator@UBevelEIntermidiateSharedNEdge@MeshComponent@@@std@@@std@@KAXXZ 00406b80 f i BevelE.obj
 0001:00005b80       ?_Xlen@?$vector@VOpNormScale@OpInfo@@V?$allocator@VOpNormScale@OpInfo@@@std@@@std@@KAXXZ 00406b80 f i OpStack.obj
 0001:00005b80       ?_Xlen@?$vector@PAVDeferredMeshModel@@V?$allocator@PAVDeferredMeshModel@@@std@@@std@@KAXXZ 00406b80 f i Mesh.obj
 0001:00005b80       ?_Xlen@?$vector@USelection@ObjEd@@V?$allocator@USelection@ObjEd@@@std@@@std@@KAXXZ 00406b80 f i Mesh.obj
 0001:00005b80       ?_Xlen@?$vector@UNorScaleInfo@ObjEd@@V?$allocator@UNorScaleInfo@ObjEd@@@std@@@std@@KAXXZ 00406b80 f i Mesh.obj
 0001:00005b80       ?_Xlen@?$vector@IV?$allocator@I@std@@@std@@KAXXZ 00406b80 f i BaseDX.obj
 0001:00005b80       ?_Xlen@?$vector@PAVTimeForce@@V?$allocator@PAVTimeForce@@@std@@@std@@KAXXZ 00406b80 f i RigidBodyExt.obj
 0001:00005b80       ?_Xlen@?$vector@PAVHE_face@@V?$allocator@PAVHE_face@@@std@@@std@@KAXXZ 00406b80 f i Extrusion.obj
 0001:00005b80       ?_Xlen@?$vector@UPairBodies@@V?$allocator@UPairBodies@@@std@@@std@@KAXXZ 00406b80 f i Physics.obj
 0001:00005b80       ?_Xlen@?$vector@VOpBevelE@OpInfo@@V?$allocator@VOpBevelE@OpInfo@@@std@@@std@@KAXXZ 00406b80 f i OpStack.obj
 0001:00005b80       ?_Xlen@?$vector@VOpScale@OpInfo@@V?$allocator@VOpScale@OpInfo@@@std@@@std@@KAXXZ 00406b80 f i OpStack.obj
 0001:00005b80       ?_Xlen@?$vector@V?$vector@HV?$allocator@H@std@@@std@@V?$allocator@V?$vector@HV?$allocator@H@std@@@std@@@2@@std@@KAXXZ 00406b80 f i SimpleGraph.obj
 0001:00005b80       ?_Xlen@?$vector@VVertexPosNor@@V?$allocator@VVertexPosNor@@@std@@@std@@KAXXZ 00406b80 f i EditableMeshModelProcTex.obj
 0001:00005b80       ?_Xlen@?$vector@UVertPNT@@V?$allocator@UVertPNT@@@std@@@std@@KAXXZ 00406b80 f i MeshComponent.obj
 0001:00005b80       ?_Xlen@?$vector@V?$vector@PAVHE_edge@@V?$allocator@PAVHE_edge@@@std@@@std@@V?$allocator@V?$vector@PAVHE_edge@@V?$allocator@PAVHE_edge@@@std@@@std@@@2@@std@@KAXXZ 00406b80 f i BevelE.obj
 0001:00005baf       ?_Insert_n@?$vector@UBevelVInfo@ObjEd@@V?$allocator@UBevelVInfo@ObjEd@@@std@@@std@@IAEXV?$_Vector_const_iterator@UBevelVInfo@ObjEd@@V?$allocator@UBevelVInfo@ObjEd@@@std@@@2@IABUBevelVInfo@ObjEd@@@Z 00406baf f i Mesh.obj
 0001:00005e04       ?_Insert_n@?$vector@UExtrudeInfo@ObjEd@@V?$allocator@UExtrudeInfo@ObjEd@@@std@@@std@@IAEXV?$_Vector_const_iterator@UExtrudeInfo@ObjEd@@V?$allocator@UExtrudeInfo@ObjEd@@@std@@@2@IABUExtrudeInfo@ObjEd@@@Z 00406e04 f i Mesh.obj
 0001:00005e04       ?_Insert_n@?$vector@UExtrudeMatrixInfo@ObjEd@@V?$allocator@UExtrudeMatrixInfo@ObjEd@@@std@@@std@@IAEXV?$_Vector_const_iterator@UExtrudeMatrixInfo@ObjEd@@V?$allocator@UExtrudeMatrixInfo@ObjEd@@@std@@@2@IABUExtrudeMatrixInfo@ObjEd@@@Z 00406e04 f i Mesh.obj
 0001:00006040       ?allocate@?$allocator@UExtrudeMatrixInfo@ObjEd@@@std@@QAEPAUExtrudeMatrixInfo@ObjEd@@I@Z 00407040 f i Mesh.obj
 0001:00006040       ?allocate@?$allocator@UBevelVInfo@ObjEd@@@std@@QAEPAUBevelVInfo@ObjEd@@I@Z 00407040 f i Mesh.obj
 0001:00006040       ?allocate@?$allocator@UExtrudeInfo@ObjEd@@@std@@QAEPAUExtrudeInfo@ObjEd@@I@Z 00407040 f i Mesh.obj
 0001:0000607a       ?_Insert_n@?$vector@UExtrudeInnerInfo@ObjEd@@V?$allocator@UExtrudeInnerInfo@ObjEd@@@std@@@std@@IAEXV?$_Vector_const_iterator@UExtrudeInnerInfo@ObjEd@@V?$allocator@UExtrudeInnerInfo@ObjEd@@@std@@@2@IABUExtrudeInnerInfo@ObjEd@@@Z 0040707a f i Mesh.obj
 0001:000062c6       ?allocate@?$allocator@UExtrudeInnerInfo@ObjEd@@@std@@QAEPAUExtrudeInnerInfo@ObjEd@@I@Z 004072c6 f i Mesh.obj
 0001:00006300       ?_Insert_n@?$vector@UNorScaleInfo@ObjEd@@V?$allocator@UNorScaleInfo@ObjEd@@@std@@@std@@IAEXV?$_Vector_const_iterator@UNorScaleInfo@ObjEd@@V?$allocator@UNorScaleInfo@ObjEd@@@std@@@2@IABUNorScaleInfo@ObjEd@@@Z 00407300 f i Mesh.obj
 0001:00006542       ?allocate@?$allocator@UNorScaleInfo@ObjEd@@@std@@QAEPAUNorScaleInfo@ObjEd@@I@Z 00407542 f i Mesh.obj
 0001:0000657c       ?clear@?$list@HV?$allocator@H@std@@@std@@QAEXXZ 0040757c f i Mesh.obj
 0001:000065a5       ?_Buynode@?$list@HV?$allocator@H@std@@@std@@IAEPAU_Node@?$_List_nod@HV?$allocator@H@std@@@2@PAU342@0ABH@Z 004075a5 f i Mesh.obj
 0001:00006611       ?_Incsize@?$list@HV?$allocator@H@std@@@std@@IAEXI@Z 00407611 f i Mesh.obj
 0001:00006655       ??0BevelVInfo@ObjEd@@QAE@ABU01@@Z 00407655 f i Mesh.obj
 0001:00006693       ??0ExtrudeMatrixInfo@ObjEd@@QAE@ABU01@@Z 00407693 f i Mesh.obj
 0001:00006693       ??0ExtrudeInfo@ObjEd@@QAE@ABU01@@Z 00407693 f i Mesh.obj
 0001:000066cd       ??0ExtrudeInnerInfo@ObjEd@@QAE@ABU01@@Z 004076cd f i Mesh.obj
 0001:0000670c       ??0NorScaleInfo@ObjEd@@QAE@ABU01@@Z 0040770c f i Mesh.obj
 0001:00006744       ??0?$vector@V?$vector@PAVHE_vert@@V?$allocator@PAVHE_vert@@@std@@@std@@V?$allocator@V?$vector@PAVHE_vert@@V?$allocator@PAVHE_vert@@@std@@@std@@@2@@std@@QAE@ABV01@@Z 00407744 f i Mesh.obj
 0001:00006813       ??0?$vector@PAVHE_vert@@V?$allocator@PAVHE_vert@@@std@@@std@@QAE@ABV01@@Z 00407813 f i Mesh.obj
 0001:00006813       ??0?$vector@PAVHE_edge@@V?$allocator@PAVHE_edge@@@std@@@std@@QAE@ABV01@@Z 00407813 f i BevelE.obj
 0001:00006813       ??0?$vector@PAVStaticRigidBody@@V?$allocator@PAVStaticRigidBody@@@std@@@std@@QAE@ABV01@@Z 00407813 f i Physics.obj
 0001:000068e7       ?_Ufill@?$vector@UBevelVInfo@ObjEd@@V?$allocator@UBevelVInfo@ObjEd@@@std@@@std@@IAEPAUBevelVInfo@ObjEd@@PAU34@IABU34@@Z 004078e7 f i Mesh.obj
 0001:00006918       ?_Ufill@?$vector@UExtrudeMatrixInfo@ObjEd@@V?$allocator@UExtrudeMatrixInfo@ObjEd@@@std@@@std@@IAEPAUExtrudeMatrixInfo@ObjEd@@PAU34@IABU34@@Z 00407918 f i Mesh.obj
 0001:00006918       ?_Ufill@?$vector@UExtrudeInfo@ObjEd@@V?$allocator@UExtrudeInfo@ObjEd@@@std@@@std@@IAEPAUExtrudeInfo@ObjEd@@PAU34@IABU34@@Z 00407918 f i Mesh.obj
 0001:00006949       ?_Ufill@?$vector@UExtrudeInnerInfo@ObjEd@@V?$allocator@UExtrudeInnerInfo@ObjEd@@@std@@@std@@IAEPAUExtrudeInnerInfo@ObjEd@@PAU34@IABU34@@Z 00407949 f i Mesh.obj
 0001:0000697a       ?_Ufill@?$vector@UNorScaleInfo@ObjEd@@V?$allocator@UNorScaleInfo@ObjEd@@@std@@@std@@IAEPAUNorScaleInfo@ObjEd@@PAU34@IABU34@@Z 0040797a f i Mesh.obj
 0001:000069ab       ??0?$_Vector_iterator@PAVTimeForce@@V?$allocator@PAVTimeForce@@@std@@@std@@QAE@PAPAVTimeForce@@PBV_Container_base_aux@1@@Z 004079ab f i RigidBodyExt.obj
 0001:000069ab       ??0?$_Vector_const_iterator@USelection@ObjEd@@V?$allocator@USelection@ObjEd@@@std@@@std@@QAE@PAUSelection@ObjEd@@PBV_Container_base_aux@1@@Z 004079ab f i Mesh.obj
 0001:000069ab       ??0?$_Vector_iterator@UExtrudeMatrixInfo@ObjEd@@V?$allocator@UExtrudeMatrixInfo@ObjEd@@@std@@@std@@QAE@PAUExtrudeMatrixInfo@ObjEd@@PBV_Container_base_aux@1@@Z 004079ab f i Mesh.obj
 0001:000069ab       ??0?$_Vector_iterator@VOpScale@OpInfo@@V?$allocator@VOpScale@OpInfo@@@std@@@std@@QAE@PAVOpScale@OpInfo@@PBV_Container_base_aux@1@@Z 004079ab f i OpStack.obj
 0001:000069ab       ??0?$_Vector_iterator@UExtrudeInfo@ObjEd@@V?$allocator@UExtrudeInfo@ObjEd@@@std@@@std@@QAE@PAUExtrudeInfo@ObjEd@@PBV_Container_base_aux@1@@Z 004079ab f i Mesh.obj
 0001:000069ab       ??0?$_Vector_iterator@VOpExtrudeInner@OpInfo@@V?$allocator@VOpExtrudeInner@OpInfo@@@std@@@std@@QAE@PAVOpExtrudeInner@OpInfo@@PBV_Container_base_aux@1@@Z 004079ab f i OpStack.obj
 0001:000069ab       ??0?$_Vector_const_iterator@VProcTex@ObjEd@@V?$allocator@VProcTex@ObjEd@@@std@@@std@@QAE@PAVProcTex@ObjEd@@PBV_Container_base_aux@1@@Z 004079ab f i Mesh.obj
 0001:000069ab       ??0?$_Vector_iterator@V?$vector@PAVHE_edge@@V?$allocator@PAVHE_edge@@@std@@@std@@V?$allocator@V?$vector@PAVHE_edge@@V?$allocator@PAVHE_edge@@@std@@@std@@@2@@std@@QAE@PAV?$vector@PAVHE_edge@@V?$allocator@PAVHE_edge@@@std@@@1@PBV_Container_base_aux@1@@Z 004079ab f i BevelE.obj
 0001:000069ab       ??0?$_Vector_iterator@VOpExtrudeMatrix@OpInfo@@V?$allocator@VOpExtrudeMatrix@OpInfo@@@std@@@std@@QAE@PAVOpExtrudeMatrix@OpInfo@@PBV_Container_base_aux@1@@Z 004079ab f i OpStack.obj
 0001:000069ab       ??0?$_Vector_iterator@VOpBevelE@OpInfo@@V?$allocator@VOpBevelE@OpInfo@@@std@@@std@@QAE@PAVOpBevelE@OpInfo@@PBV_Container_base_aux@1@@Z 004079ab f i OpStack.obj
 0001:000069ab       ??0?$_Vector_iterator@VOpKnifeLine@OpInfo@@V?$allocator@VOpKnifeLine@OpInfo@@@std@@@std@@QAE@PAVOpKnifeLine@OpInfo@@PBV_Container_base_aux@1@@Z 004079ab f i OpStack.obj
 0001:000069ab       ??0?$_Vector_iterator@PAVRigidBody@@V?$allocator@PAVRigidBody@@@std@@@std@@QAE@PAPAVRigidBody@@PBV_Container_base_aux@1@@Z 004079ab f i Physics.obj
 0001:000069ab       ??0?$_Vector_iterator@VOpExtrude@OpInfo@@V?$allocator@VOpExtrude@OpInfo@@@std@@@std@@QAE@PAVOpExtrude@OpInfo@@PBV_Container_base_aux@1@@Z 004079ab f i OpStack.obj
 0001:000069ab       ??0?$_Vector_iterator@VOpTranslate@OpInfo@@V?$allocator@VOpTranslate@OpInfo@@@std@@@std@@QAE@PAVOpTranslate@OpInfo@@PBV_Container_base_aux@1@@Z 004079ab f i OpStack.obj
 0001:000069ab       ??0?$_Vector_iterator@UD3DXVECTOR2@@V?$allocator@UD3DXVECTOR2@@@std@@@std@@QAE@PAUD3DXVECTOR2@@PBV_Container_base_aux@1@@Z 004079ab f i SplineLengthMapped.obj
 0001:000069ab       ??0?$_Vector_iterator@VVertexPosNor@@V?$allocator@VVertexPosNor@@@std@@@std@@QAE@PAVVertexPosNor@@PBV_Container_base_aux@1@@Z 004079ab f i EditableMeshModelProcTex.obj
 0001:000069ab       ??0?$_Vector_iterator@PAVTimeTorque@@V?$allocator@PAVTimeTorque@@@std@@@std@@QAE@PAPAVTimeTorque@@PBV_Container_base_aux@1@@Z 004079ab f i RigidBodyExt.obj
 0001:000069ab       ??0?$_Vector_iterator@PAVMeshComponent@@V?$allocator@PAVMeshComponent@@@std@@@std@@QAE@PAPAVMeshComponent@@PBV_Container_base_aux@1@@Z 004079ab f i Mesh.obj
 0001:000069ab       ??0?$_Vector_iterator@VDcelEdge@@V?$allocator@VDcelEdge@@@std@@@std@@QAE@PAVDcelEdge@@PBV_Container_base_aux@1@@Z 004079ab f i Delaunay.obj
 0001:000069ab       ??0?$_Vector_iterator@UPairBodies@@V?$allocator@UPairBodies@@@std@@@std@@QAE@PAUPairBodies@@PBV_Container_base_aux@1@@Z 004079ab f i Physics.obj
 0001:000069ab       ??0?$_Vector_const_iterator@HV?$allocator@H@std@@@std@@QAE@PAHPBV_Container_base_aux@1@@Z 004079ab f i Mesh.obj
 0001:000069ab       ??0?$_Vector_iterator@UExtrudeInnerInfo@ObjEd@@V?$allocator@UExtrudeInnerInfo@ObjEd@@@std@@@std@@QAE@PAUExtrudeInnerInfo@ObjEd@@PBV_Container_base_aux@1@@Z 004079ab f i Mesh.obj
 0001:000069ab       ??0?$_Vector_iterator@VOpBevelV@OpInfo@@V?$allocator@VOpBevelV@OpInfo@@@std@@@std@@QAE@PAVOpBevelV@OpInfo@@PBV_Container_base_aux@1@@Z 004079ab f i OpStack.obj
 0001:000069ab       ??0?$_Vector_const_iterator@V?$vector@PAVHE_vert@@V?$allocator@PAVHE_vert@@@std@@@std@@V?$allocator@V?$vector@PAVHE_vert@@V?$allocator@PAVHE_vert@@@std@@@std@@@2@@std@@QAE@PAV?$vector@PAVHE_vert@@V?$allocator@PAVHE_vert@@@std@@@1@PBV_Container_base_aux@1@@Z 004079ab f i Mesh.obj
 0001:000069ab       ??0?$_Vector_iterator@VOpNormScale@OpInfo@@V?$allocator@VOpNormScale@OpInfo@@@std@@@std@@QAE@PAVOpNormScale@OpInfo@@PBV_Container_base_aux@1@@Z 004079ab f i OpStack.obj
 0001:000069ab       ??0?$_Vector_iterator@UVertPNT@@V?$allocator@UVertPNT@@@std@@@std@@QAE@PAUVertPNT@@PBV_Container_base_aux@1@@Z 004079ab f i MeshComponent.obj
 0001:000069ab       ??0?$_Vector_iterator@MV?$allocator@M@std@@@std@@QAE@PAMPBV_Container_base_aux@1@@Z 004079ab f i SplineLengthMapped.obj
 0001:000069ab       ??0?$_Vector_iterator@UBevelVInfo@ObjEd@@V?$allocator@UBevelVInfo@ObjEd@@@std@@@std@@QAE@PAUBevelVInfo@ObjEd@@PBV_Container_base_aux@1@@Z 004079ab f i Mesh.obj
 0001:000069ab       ??0?$_Vector_iterator@IV?$allocator@I@std@@@std@@QAE@PAIPBV_Container_base_aux@1@@Z 004079ab f i GameApp.obj
 0001:000069ab       ??0?$_Vector_iterator@VOpPrimCube@OpInfo@@V?$allocator@VOpPrimCube@OpInfo@@@std@@@std@@QAE@PAVOpPrimCube@OpInfo@@PBV_Container_base_aux@1@@Z 004079ab f i OpStack.obj
 0001:000069ab       ??0?$_Vector_iterator@VPrecision@@V?$allocator@VPrecision@@@std@@@std@@QAE@PAVPrecision@@PBV_Container_base_aux@1@@Z 004079ab f i Physics.obj
 0001:000069ab       ??0?$_Vector_const_iterator@PAVHE_vert@@V?$allocator@PAVHE_vert@@@std@@@std@@QAE@PAPAVHE_vert@@PBV_Container_base_aux@1@@Z 004079ab f i Mesh.obj
 0001:000069ab       ??0?$_Vector_const_iterator@PAVDeferredMeshModel@@V?$allocator@PAVDeferredMeshModel@@@std@@@std@@QAE@PAPAVDeferredMeshModel@@PBV_Container_base_aux@1@@Z 004079ab f i Mesh.obj
 0001:000069ab       ??0?$_Vector_iterator@UEdgeIntersection@ObjEd@@V?$allocator@UEdgeIntersection@ObjEd@@@std@@@std@@QAE@PAUEdgeIntersection@ObjEd@@PBV_Container_base_aux@1@@Z 004079ab f i Mesh.obj
 0001:000069ab       ??0?$_Vector_const_iterator@PAVHE_face@@V?$allocator@PAVHE_face@@@std@@@std@@QAE@PAPAVHE_face@@PBV_Container_base_aux@1@@Z 004079ab f i HE_vert.obj
 0001:000069ab       ??0?$_Vector_const_iterator@UD3DXVECTOR3@@V?$allocator@UD3DXVECTOR3@@@std@@@std@@QAE@PAUD3DXVECTOR3@@PBV_Container_base_aux@1@@Z 004079ab f i Mesh.obj
 0001:000069ab       ??0?$_Vector_const_iterator@PAVStaticRigidBody@@V?$allocator@PAVStaticRigidBody@@@std@@@std@@QAE@PAPAVStaticRigidBody@@PBV_Container_base_aux@1@@Z 004079ab f i Physics.obj
 0001:000069ab       ??0?$_Vector_iterator@V?$vector@HV?$allocator@H@std@@@std@@V?$allocator@V?$vector@HV?$allocator@H@std@@@std@@@2@@std@@QAE@PAV?$vector@HV?$allocator@H@std@@@1@PBV_Container_base_aux@1@@Z 004079ab f i SimpleGraph.obj
 0001:000069ab       ??0?$_Vector_iterator@UNorScaleInfo@ObjEd@@V?$allocator@UNorScaleInfo@ObjEd@@@std@@@std@@QAE@PAUNorScaleInfo@ObjEd@@PBV_Container_base_aux@1@@Z 004079ab f i Mesh.obj
 0001:000069ab       ??0?$_Vector_const_iterator@PAVHE_edge@@V?$allocator@PAVHE_edge@@@std@@@std@@QAE@PAPAVHE_edge@@PBV_Container_base_aux@1@@Z 004079ab f i BevelE.obj
 0001:000069cc       ??$?0V?$_Vector_const_iterator@USelection@ObjEd@@V?$allocator@USelection@ObjEd@@@std@@@std@@@?$vector@USelection@ObjEd@@V?$allocator@USelection@ObjEd@@@std@@@std@@QAE@V?$_Vector_const_iterator@USelection@ObjEd@@V?$allocator@USelection@ObjEd@@@std@@@1@0@Z 004079cc f i Mesh.obj
 0001:000069f8       ??$unchecked_copy@PAV?$vector@PAVHE_vert@@V?$allocator@PAVHE_vert@@@std@@@std@@PAV12@@stdext@@YAPAV?$vector@PAVHE_vert@@V?$allocator@PAVHE_vert@@@std@@@std@@PAV12@00@Z 004079f8 f i Mesh.obj
 0001:00006a33       ??$_Ucopy@PAV?$vector@PAVHE_vert@@V?$allocator@PAVHE_vert@@@std@@@std@@@?$vector@V?$vector@PAVHE_vert@@V?$allocator@PAVHE_vert@@@std@@@std@@V?$allocator@V?$vector@PAVHE_vert@@V?$allocator@PAVHE_vert@@@std@@@std@@@2@@std@@IAEPAV?$vector@PAVHE_vert@@V?$allocator@PAVHE_vert@@@std@@@1@PAV21@00@Z 00407a33 f i Mesh.obj
 0001:00006a5b       ??$_Ucopy@V?$_Vector_const_iterator@USelection@ObjEd@@V?$allocator@USelection@ObjEd@@@std@@@std@@@?$vector@USelection@ObjEd@@V?$allocator@USelection@ObjEd@@@std@@@std@@IAEPAUSelection@ObjEd@@V?$_Vector_const_iterator@USelection@ObjEd@@V?$allocator@USelection@ObjEd@@@std@@@1@0PAU23@@Z 00407a5b f i Mesh.obj
 0001:00006a82       ??$unchecked_copy@PAUD3DXVECTOR3@@PAU1@@stdext@@YAPAUD3DXVECTOR3@@PAU1@00@Z 00407a82 f i Mesh.obj
 0001:00006a82       ??$unchecked_copy@PAUSelection@ObjEd@@PAU12@@stdext@@YAPAUSelection@ObjEd@@PAU12@00@Z 00407a82 f i Mesh.obj
 0001:00006ab6       ??$unchecked_copy@PAUEdgeIntersection@ObjEd@@PAU12@@stdext@@YAPAUEdgeIntersection@ObjEd@@PAU12@00@Z 00407ab6 f i Mesh.obj
 0001:00006ae3       ??$_Ucopy@PAUEdgeIntersection@ObjEd@@@?$vector@UEdgeIntersection@ObjEd@@V?$allocator@UEdgeIntersection@ObjEd@@@std@@@std@@IAEPAUEdgeIntersection@ObjEd@@PAU23@00@Z 00407ae3 f i Mesh.obj
 0001:00006b0a       ??$unchecked_copy@PAVProcTex@ObjEd@@PAV12@@stdext@@YAPAVProcTex@ObjEd@@PAV12@00@Z 00407b0a f i Mesh.obj
 0001:00006b5f       ??$unchecked_copy@PAUExtrudeMatrixInfo@ObjEd@@PAU12@@stdext@@YAPAUExtrudeMatrixInfo@ObjEd@@PAU12@00@Z 00407b5f f i Mesh.obj
 0001:00006b5f       ??$unchecked_copy@PAUExtrudeInfo@ObjEd@@PAU12@@stdext@@YAPAUExtrudeInfo@ObjEd@@PAU12@00@Z 00407b5f f i Mesh.obj
 0001:00006ba6       ??$unchecked_copy@PAUExtrudeInnerInfo@ObjEd@@PAU12@@stdext@@YAPAUExtrudeInnerInfo@ObjEd@@PAU12@00@Z 00407ba6 f i Mesh.obj
 0001:00006bec       ??$_Umove@PAUD3DXVECTOR3@@@?$vector@UD3DXVECTOR3@@V?$allocator@UD3DXVECTOR3@@@std@@@std@@IAEPAUD3DXVECTOR3@@PAU2@00@Z 00407bec f i BevelE.obj
 0001:00006bec       ??$_Umove@PAUSelection@ObjEd@@@?$vector@USelection@ObjEd@@V?$allocator@USelection@ObjEd@@@std@@@std@@IAEPAUSelection@ObjEd@@PAU23@00@Z 00407bec f i Mesh.obj
 0001:00006c03       ??$_Umove@PAUBevelVInfo@ObjEd@@@?$vector@UBevelVInfo@ObjEd@@V?$allocator@UBevelVInfo@ObjEd@@@std@@@std@@IAEPAUBevelVInfo@ObjEd@@PAU23@00@Z 00407c03 f i Mesh.obj
 0001:00006c2b       ??$_Umove@PAUExtrudeInfo@ObjEd@@@?$vector@UExtrudeInfo@ObjEd@@V?$allocator@UExtrudeInfo@ObjEd@@@std@@@std@@IAEPAUExtrudeInfo@ObjEd@@PAU23@00@Z 00407c2b f i Mesh.obj
 0001:00006c2b       ??$_Umove@PAUExtrudeMatrixInfo@ObjEd@@@?$vector@UExtrudeMatrixInfo@ObjEd@@V?$allocator@UExtrudeMatrixInfo@ObjEd@@@std@@@std@@IAEPAUExtrudeMatrixInfo@ObjEd@@PAU23@00@Z 00407c2b f i Mesh.obj
 0001:00006c53       ??$_Unchecked_move_backward@PAUExtrudeInfo@ObjEd@@PAU12@@stdext@@YAPAUExtrudeInfo@ObjEd@@PAU12@00@Z 00407c53 f i Mesh.obj
 0001:00006c53       ??$_Unchecked_move_backward@PAUExtrudeMatrixInfo@ObjEd@@PAU12@@stdext@@YAPAUExtrudeMatrixInfo@ObjEd@@PAU12@00@Z 00407c53 f i Mesh.obj
 0001:00006c98       ??$_Umove@PAUExtrudeInnerInfo@ObjEd@@@?$vector@UExtrudeInnerInfo@ObjEd@@V?$allocator@UExtrudeInnerInfo@ObjEd@@@std@@@std@@IAEPAUExtrudeInnerInfo@ObjEd@@PAU23@00@Z 00407c98 f i Mesh.obj
 0001:00006cc0       ??$_Unchecked_move_backward@PAUExtrudeInnerInfo@ObjEd@@PAU12@@stdext@@YAPAUExtrudeInnerInfo@ObjEd@@PAU12@00@Z 00407cc0 f i Mesh.obj
 0001:00006d04       ??$_Umove@PAUNorScaleInfo@ObjEd@@@?$vector@UNorScaleInfo@ObjEd@@V?$allocator@UNorScaleInfo@ObjEd@@@std@@@std@@IAEPAUNorScaleInfo@ObjEd@@PAU23@00@Z 00407d04 f i Mesh.obj
 0001:00006d2c       ??$_Construct@V?$_Vector_const_iterator@USelection@ObjEd@@V?$allocator@USelection@ObjEd@@@std@@@std@@@?$vector@USelection@ObjEd@@V?$allocator@USelection@ObjEd@@@std@@@std@@QAEXV?$_Vector_const_iterator@USelection@ObjEd@@V?$allocator@USelection@ObjEd@@@std@@@1@0Uinput_iterator_tag@1@@Z 00407d2c f i Mesh.obj
 0001:00006d9e       ??$unchecked_uninitialized_copy@PAPAVStaticRigidBody@@PAPAV1@V?$allocator@PAVStaticRigidBody@@@std@@@stdext@@YAPAPAVStaticRigidBody@@PAPAV1@00AAV?$allocator@PAVStaticRigidBody@@@std@@@Z 00407d9e f i Physics.obj
 0001:00006d9e       ??$unchecked_uninitialized_copy@PAPAVHE_vert@@PAPAV1@V?$allocator@PAVHE_vert@@@std@@@stdext@@YAPAPAVHE_vert@@PAPAV1@00AAV?$allocator@PAVHE_vert@@@std@@@Z 00407d9e f i Mesh.obj
 0001:00006d9e       ??$unchecked_uninitialized_copy@PAPAVRigidBody@@PAPAV1@V?$allocator@PAVRigidBody@@@std@@@stdext@@YAPAPAVRigidBody@@PAPAV1@00AAV?$allocator@PAVRigidBody@@@std@@@Z 00407d9e f i Physics.obj
 0001:00006d9e       ??$unchecked_uninitialized_copy@PAIPAIV?$allocator@I@std@@@stdext@@YAPAIPAI00AAV?$allocator@I@std@@@Z 00407d9e f i Mesh.obj
 0001:00006d9e       ??$unchecked_uninitialized_copy@PAHPAHV?$allocator@H@std@@@stdext@@YAPAHPAH00AAV?$allocator@H@std@@@Z 00407d9e f i Mesh.obj
 0001:00006d9e       ??$unchecked_uninitialized_copy@PAPAVDeferredMeshModel@@PAPAV1@V?$allocator@PAVDeferredMeshModel@@@std@@@stdext@@YAPAPAVDeferredMeshModel@@PAPAV1@00AAV?$allocator@PAVDeferredMeshModel@@@std@@@Z 00407d9e f i Mesh.obj
 0001:00006d9e       ??$unchecked_uninitialized_copy@PAPAVHE_edge@@PAPAV1@V?$allocator@PAVHE_edge@@@std@@@stdext@@YAPAPAVHE_edge@@PAPAV1@00AAV?$allocator@PAVHE_edge@@@std@@@Z 00407d9e f i BevelE.obj
 0001:00006dc6       ??$unchecked_uninitialized_copy@PAUSelection@ObjEd@@PAU12@V?$allocator@USelection@ObjEd@@@std@@@stdext@@YAPAUSelection@ObjEd@@PAU12@00AAV?$allocator@USelection@ObjEd@@@std@@@Z 00407dc6 f i Mesh.obj
 0001:00006dc6       ??$unchecked_uninitialized_copy@PAUD3DXVECTOR3@@PAU1@V?$allocator@UD3DXVECTOR3@@@std@@@stdext@@YAPAUD3DXVECTOR3@@PAU1@00AAV?$allocator@UD3DXVECTOR3@@@std@@@Z 00407dc6 f i Mesh.obj
 0001:00006deb       ??$_Copy_opt@V?$_Vb_iterator@IHV?$vector@_NV?$allocator@_N@std@@@std@@@std@@V12@@std@@YA?AV?$_Vb_iterator@IHV?$vector@_NV?$allocator@_N@std@@@std@@@0@V10@00Urandom_access_iterator_tag@0@U_Nonscalar_ptr_iterator_tag@0@U_Range_checked_iterator_tag@0@@Z 00407deb f i Mesh.obj
 0001:00006e7b       ??$_Copy_backward_opt@V?$_Vb_iterator@IHV?$vector@_NV?$allocator@_N@std@@@std@@@std@@V12@@std@@YA?AV?$_Vb_iterator@IHV?$vector@_NV?$allocator@_N@std@@@std@@@0@V10@00Urandom_access_iterator_tag@0@U_Nonscalar_ptr_iterator_tag@0@U_Range_checked_iterator_tag@0@@Z 00407e7b f i Mesh.obj
 0001:00006f15       ??$_Uninit_fill_n@PAUBevelVInfo@ObjEd@@IU12@V?$allocator@UBevelVInfo@ObjEd@@@std@@@std@@YAXPAUBevelVInfo@ObjEd@@IABU12@AAV?$allocator@UBevelVInfo@ObjEd@@@0@U_Nonscalar_ptr_iterator_tag@0@U_Range_checked_iterator_tag@0@@Z 00407f15 f i Mesh.obj
 0001:00006f7e       ??$_Uninit_fill_n@PAUExtrudeMatrixInfo@ObjEd@@IU12@V?$allocator@UExtrudeMatrixInfo@ObjEd@@@std@@@std@@YAXPAUExtrudeMatrixInfo@ObjEd@@IABU12@AAV?$allocator@UExtrudeMatrixInfo@ObjEd@@@0@U_Nonscalar_ptr_iterator_tag@0@U_Range_checked_iterator_tag@0@@Z 00407f7e f i Mesh.obj
 0001:00006f7e       ??$_Uninit_fill_n@PAUExtrudeInfo@ObjEd@@IU12@V?$allocator@UExtrudeInfo@ObjEd@@@std@@@std@@YAXPAUExtrudeInfo@ObjEd@@IABU12@AAV?$allocator@UExtrudeInfo@ObjEd@@@0@U_Nonscalar_ptr_iterator_tag@0@U_Range_checked_iterator_tag@0@@Z 00407f7e f i Mesh.obj
 0001:00006fe7       ??$_Uninit_fill_n@PAUExtrudeInnerInfo@ObjEd@@IU12@V?$allocator@UExtrudeInnerInfo@ObjEd@@@std@@@std@@YAXPAUExtrudeInnerInfo@ObjEd@@IABU12@AAV?$allocator@UExtrudeInnerInfo@ObjEd@@@0@U_Nonscalar_ptr_iterator_tag@0@U_Range_checked_iterator_tag@0@@Z 00407fe7 f i Mesh.obj
 0001:00007050       ??$_Uninit_fill_n@PAUNorScaleInfo@ObjEd@@IU12@V?$allocator@UNorScaleInfo@ObjEd@@@std@@@std@@YAXPAUNorScaleInfo@ObjEd@@IABU12@AAV?$allocator@UNorScaleInfo@ObjEd@@@0@U_Nonscalar_ptr_iterator_tag@0@U_Range_checked_iterator_tag@0@@Z 00408050 f i Mesh.obj
 0001:000070b9       ??E?$_Vb_iterator@IHV?$vector@_NV?$allocator@_N@std@@@std@@@std@@QAEAAV01@XZ 004080b9 f i Mesh.obj
 0001:00007106       ??9?$_Vb_const_iterator@IHV?$vector@_NV?$allocator@_N@std@@@std@@@std@@QBE_NABV01@@Z 00408106 f i Mesh.obj
 0001:00007127       ??$_Uninit_copy@PBUSelection@ObjEd@@PAU12@V?$allocator@USelection@ObjEd@@@std@@@std@@YAPAUSelection@ObjEd@@PBU12@0PAU12@AAV?$allocator@USelection@ObjEd@@@0@U_Nonscalar_ptr_iterator_tag@0@U_Range_checked_iterator_tag@0@@Z 00408127 f i Mesh.obj
 0001:00007127       ??$_Uninit_copy@PAUD3DXVECTOR3@@PAU1@V?$allocator@UD3DXVECTOR3@@@std@@@std@@YAPAUD3DXVECTOR3@@PAU1@00AAV?$allocator@UD3DXVECTOR3@@@0@U_Nonscalar_ptr_iterator_tag@0@U_Range_checked_iterator_tag@0@@Z 00408127 f i Mesh.obj
 0001:00007127       ??$_Uninit_copy@PAUSelection@ObjEd@@PAU12@V?$allocator@USelection@ObjEd@@@std@@@std@@YAPAUSelection@ObjEd@@PAU12@00AAV?$allocator@USelection@ObjEd@@@0@U_Nonscalar_ptr_iterator_tag@0@U_Range_checked_iterator_tag@0@@Z 00408127 f i Mesh.obj
 0001:00007127       ??$_Uninit_copy@PBUD3DXVECTOR3@@PAU1@V?$allocator@UD3DXVECTOR3@@@std@@@std@@YAPAUD3DXVECTOR3@@PBU1@0PAU1@AAV?$allocator@UD3DXVECTOR3@@@0@U_Nonscalar_ptr_iterator_tag@0@U_Range_checked_iterator_tag@0@@Z 00408127 f i Mesh.obj
 0001:0000717b       ??$_Uninit_copy@PAV?$vector@PAVHE_vert@@V?$allocator@PAVHE_vert@@@std@@@std@@PAV12@V?$allocator@V?$vector@PAVHE_vert@@V?$allocator@PAVHE_vert@@@std@@@std@@@2@@std@@YAPAV?$vector@PAVHE_vert@@V?$allocator@PAVHE_vert@@@std@@@0@PAV10@00AAV?$allocator@V?$vector@PAVHE_vert@@V?$allocator@PAVHE_vert@@@std@@@std@@@0@U_Nonscalar_ptr_iterator_tag@0@U_Range_checked_iterator_tag@0@@Z 0040817b f i Mesh.obj
 0001:0000717b       ??$_Uninit_copy@PBV?$vector@PAVHE_vert@@V?$allocator@PAVHE_vert@@@std@@@std@@PAV12@V?$allocator@V?$vector@PAVHE_vert@@V?$allocator@PAVHE_vert@@@std@@@std@@@2@@std@@YAPAV?$vector@PAVHE_vert@@V?$allocator@PAVHE_vert@@@std@@@0@PBV10@0PAV10@AAV?$allocator@V?$vector@PAVHE_vert@@V?$allocator@PAVHE_vert@@@std@@@std@@@0@U_Nonscalar_ptr_iterator_tag@0@U_Range_checked_iterator_tag@0@@Z 0040817b f i Mesh.obj
 0001:000071ed       ??$_Uninit_copy@PAUEdgeIntersection@ObjEd@@PAU12@V?$allocator@UEdgeIntersection@ObjEd@@@std@@@std@@YAPAUEdgeIntersection@ObjEd@@PAU12@00AAV?$allocator@UEdgeIntersection@ObjEd@@@0@U_Nonscalar_ptr_iterator_tag@0@U_Range_checked_iterator_tag@0@@Z 004081ed f i Mesh.obj
 0001:00007242       ?construct@?$allocator@V?$vector@PAVHE_vert@@V?$allocator@PAVHE_vert@@@std@@@std@@@std@@QAEXPAV?$vector@PAVHE_vert@@V?$allocator@PAVHE_vert@@@std@@@2@ABV32@@Z 00408242 f i Mesh.obj
 0001:0000725b       ??F?$_Vb_iterator@IHV?$vector@_NV?$allocator@_N@std@@@std@@@std@@QAEAAV01@XZ 0040825b f i Mesh.obj
 0001:00007299       ??$_Insert@V?$_Vector_const_iterator@USelection@ObjEd@@V?$allocator@USelection@ObjEd@@@std@@@std@@@?$vector@USelection@ObjEd@@V?$allocator@USelection@ObjEd@@@std@@@std@@QAEXV?$_Vector_const_iterator@USelection@ObjEd@@V?$allocator@USelection@ObjEd@@@std@@@1@00Uforward_iterator_tag@1@@Z 00408299 f i Mesh.obj
 0001:0000741d       ?_Reverse@?$vector@USelection@ObjEd@@V?$allocator@USelection@ObjEd@@@std@@@std@@QAEXPAUSelection@ObjEd@@0@Z 0040841d f i Mesh.obj
 0001:00007452       ??$_Uninit_copy@PAUBevelVInfo@ObjEd@@PAU12@V?$allocator@UBevelVInfo@ObjEd@@@std@@@std@@YAPAUBevelVInfo@ObjEd@@PAU12@00AAV?$allocator@UBevelVInfo@ObjEd@@@0@U_Nonscalar_ptr_iterator_tag@0@U_Range_checked_iterator_tag@0@@Z 00408452 f i Mesh.obj
 0001:000074be       ??$_Uninit_copy@PAUExtrudeInfo@ObjEd@@PAU12@V?$allocator@UExtrudeInfo@ObjEd@@@std@@@std@@YAPAUExtrudeInfo@ObjEd@@PAU12@00AAV?$allocator@UExtrudeInfo@ObjEd@@@0@U_Nonscalar_ptr_iterator_tag@0@U_Range_checked_iterator_tag@0@@Z 004084be f i Mesh.obj
 0001:000074be       ??$_Uninit_copy@PAUExtrudeMatrixInfo@ObjEd@@PAU12@V?$allocator@UExtrudeMatrixInfo@ObjEd@@@std@@@std@@YAPAUExtrudeMatrixInfo@ObjEd@@PAU12@00AAV?$allocator@UExtrudeMatrixInfo@ObjEd@@@0@U_Nonscalar_ptr_iterator_tag@0@U_Range_checked_iterator_tag@0@@Z 004084be f i Mesh.obj
 0001:0000752a       ??$_Uninit_copy@PAUExtrudeInnerInfo@ObjEd@@PAU12@V?$allocator@UExtrudeInnerInfo@ObjEd@@@std@@@std@@YAPAUExtrudeInnerInfo@ObjEd@@PAU12@00AAV?$allocator@UExtrudeInnerInfo@ObjEd@@@0@U_Nonscalar_ptr_iterator_tag@0@U_Range_checked_iterator_tag@0@@Z 0040852a f i Mesh.obj
 0001:00007597       ??$_Uninit_copy@PAUNorScaleInfo@ObjEd@@PAU12@V?$allocator@UNorScaleInfo@ObjEd@@@std@@@std@@YAPAUNorScaleInfo@ObjEd@@PAU12@00AAV?$allocator@UNorScaleInfo@ObjEd@@@0@U_Nonscalar_ptr_iterator_tag@0@U_Range_checked_iterator_tag@0@@Z 00408597 f i Mesh.obj
 0001:00007603       ?loadMesh@MeshFile@@YAPAVMesh@@PBD@Z 00408603 f   MeshLoad.obj
 0001:00007684       ?bevelEStart@MeshComponent@@QAE?AUBevelEInfo@ObjEd@@AAV?$vector@USelection@ObjEd@@V?$allocator@USelection@ObjEd@@@std@@@std@@@Z 00408684 f   BevelE.obj
 0001:00007d0b       ?bevelE@MeshComponent@@QAEXAAUBevelEInfo@ObjEd@@@Z 00408d0b f   BevelE.obj
 0001:00007de3       ?bevelESplitSharedBorderDeg2@MeshComponent@@AAEXHABV?$vector@HV?$allocator@H@std@@@std@@AAUBevelEInfo@ObjEd@@AAV?$vector@UBevelEIntermidiateSharedNEdge@MeshComponent@@V?$allocator@UBevelEIntermidiateSharedNEdge@MeshComponent@@@std@@@3@@Z 00408de3 f   BevelE.obj
 0001:00009611       ?bevelESplitSharedBorderDegN@MeshComponent@@AAEXHABV?$vector@HV?$allocator@H@std@@@std@@AAUBevelEInfo@ObjEd@@AAV?$vector@UBevelEIntermidiateSharedNEdge@MeshComponent@@V?$allocator@UBevelEIntermidiateSharedNEdge@MeshComponent@@@std@@@3@@Z 0040a611 f   BevelE.obj
 0001:00009d52       ?bevelESplitSingleBorder@MeshComponent@@AAE?AUBevelEIntermidiateSharedNEdge@1@HHAAUBevelEInfo@ObjEd@@@Z 0040ad52 f   BevelE.obj
 0001:0000a49d       ?bevelEGetEdge@MeshComponent@@AAEAAUBevelEIntermidiateSharedNEdge@1@AAV?$vector@UBevelEIntermidiateSharedNEdge@MeshComponent@@V?$allocator@UBevelEIntermidiateSharedNEdge@MeshComponent@@@std@@@std@@00PAVHE_edge@@@Z 0040b49d f   BevelE.obj
 0001:0000a4e3       ?bevelEGetIndex@MeshComponent@@AAEHAAV?$vector@UBevelEIntermidiateSharedNEdge@MeshComponent@@V?$allocator@UBevelEIntermidiateSharedNEdge@MeshComponent@@@std@@@std@@PAVHE_edge@@@Z 0040b4e3 f   BevelE.obj
 0001:0000a516       ?bevelECreateFace@MeshComponent@@AAEXAAUBevelEIntermidiateSharedNEdge@1@0@Z 0040b516 f   BevelE.obj
 0001:0000a67a       ??0?$vector@HV?$allocator@H@std@@@std@@QAE@I@Z 0040b67a f i BevelE.obj
 0001:0000a6a2       ?push_back@?$vector@UD3DXVECTOR3@@V?$allocator@UD3DXVECTOR3@@@std@@@std@@QAEXABUD3DXVECTOR3@@@Z 0040b6a2 f i BevelE.obj
 0001:0000a709       ??0?$vector@PAVHE_vert@@V?$allocator@PAVHE_vert@@@std@@@std@@QAE@I@Z 0040b709 f i BevelE.obj
 0001:0000a709       ??0?$vector@PAVHE_edge@@V?$allocator@PAVHE_edge@@@std@@@std@@QAE@I@Z 0040b709 f i BevelE.obj
 0001:0000a738       ??1?$vector@V?$vector@HV?$allocator@H@std@@@std@@V?$allocator@V?$vector@HV?$allocator@H@std@@@std@@@2@@std@@QAE@XZ 0040b738 f i BevelE.obj
 0001:0000a765       ??0?$vector@UBevelEIntermidiateSharedNEdge@MeshComponent@@V?$allocator@UBevelEIntermidiateSharedNEdge@MeshComponent@@@std@@@std@@QAE@I@Z 0040b765 f i BevelE.obj
 0001:0000a7a0       ??A?$vector@UBevelEIntermidiateSharedNEdge@MeshComponent@@V?$allocator@UBevelEIntermidiateSharedNEdge@MeshComponent@@@std@@@std@@QAEAAUBevelEIntermidiateSharedNEdge@MeshComponent@@I@Z 0040b7a0 f i BevelE.obj
 0001:0000a7c5       ?push_back@?$vector@UBevelEIntermidiateSharedNEdge@MeshComponent@@V?$allocator@UBevelEIntermidiateSharedNEdge@MeshComponent@@@std@@@std@@QAEXABUBevelEIntermidiateSharedNEdge@MeshComponent@@@Z 0040b7c5 f i BevelE.obj
 0001:0000a82b       ??0?$vector@UBevelESharedNEdgeGroup@MeshComponent@@V?$allocator@UBevelESharedNEdgeGroup@MeshComponent@@@std@@@std@@QAE@I@Z 0040b82b f i BevelE.obj
 0001:0000a860       ??A?$vector@VVertexPosNor@@V?$allocator@VVertexPosNor@@@std@@@std@@QAEAAVVertexPosNor@@I@Z 0040b860 f i EditableMeshModelProcTex.obj
 0001:0000a860       ??A?$vector@V?$vector@HV?$allocator@H@std@@@std@@V?$allocator@V?$vector@HV?$allocator@H@std@@@std@@@2@@std@@QAEAAV?$vector@HV?$allocator@H@std@@@1@I@Z 0040b860 f i SimpleGraph.obj
 0001:0000a860       ??A?$vector@V?$vector@HV?$allocator@H@std@@@std@@V?$allocator@V?$vector@HV?$allocator@H@std@@@std@@@2@@std@@QBEABV?$vector@HV?$allocator@H@std@@@1@I@Z 0040b860 f i SimpleGraph.obj
 0001:0000a860       ??A?$vector@V?$vector@PAVHE_edge@@V?$allocator@PAVHE_edge@@@std@@@std@@V?$allocator@V?$vector@PAVHE_edge@@V?$allocator@PAVHE_edge@@@std@@@std@@@2@@std@@QAEAAV?$vector@PAVHE_edge@@V?$allocator@PAVHE_edge@@@std@@@1@I@Z 0040b860 f i BevelE.obj
 0001:0000a860       ??A?$vector@V?$vector@PAVHE_vert@@V?$allocator@PAVHE_vert@@@std@@@std@@V?$allocator@V?$vector@PAVHE_vert@@V?$allocator@PAVHE_vert@@@std@@@std@@@2@@std@@QAEAAV?$vector@PAVHE_vert@@V?$allocator@PAVHE_vert@@@std@@@1@I@Z 0040b860 f i Extrusion.obj
 0001:0000a885       ?insert@?$vector@UD3DXVECTOR3@@V?$allocator@UD3DXVECTOR3@@@std@@@std@@QAE?AV?$_Vector_iterator@UD3DXVECTOR3@@V?$allocator@UD3DXVECTOR3@@@std@@@2@V?$_Vector_const_iterator@UD3DXVECTOR3@@V?$allocator@UD3DXVECTOR3@@@std@@@2@ABUD3DXVECTOR3@@@Z 0040b885 f i BevelE.obj
 0001:0000a904       ?_Ufill@?$vector@UD3DXVECTOR3@@V?$allocator@UD3DXVECTOR3@@@std@@@std@@IAEPAUD3DXVECTOR3@@PAU3@IABU3@@Z 0040b904 f i BevelE.obj
 0001:0000a904       ?_Ufill@?$vector@USelection@ObjEd@@V?$allocator@USelection@ObjEd@@@std@@@std@@IAEPAUSelection@ObjEd@@PAU34@IABU34@@Z 0040b904 f i Mesh.obj
 0001:0000a934       ?resize@?$vector@PAVHE_edge@@V?$allocator@PAVHE_edge@@@std@@@std@@QAEXIPAVHE_edge@@@Z 0040b934 f i BevelE.obj
 0001:0000a934       ?resize@?$vector@HV?$allocator@H@std@@@std@@QAEXIH@Z 0040b934 f i KniveLine.obj
 0001:0000a934       ?resize@?$vector@PAVHE_vert@@V?$allocator@PAVHE_vert@@@std@@@std@@QAEXIPAVHE_vert@@@Z 0040b934 f i BevelE.obj
 0001:0000a934       ?resize@?$vector@IV?$allocator@I@std@@@std@@QAEXII@Z 0040b934 f i Mesh.obj
 0001:0000a9bc       ?_Construct_n@?$vector@UEdgeBevelE@?3??bevelEStart@MeshComponent@@QAE?AUBevelEInfo@ObjEd@@AAV?$vector@USelection@ObjEd@@V?$allocator@USelection@ObjEd@@@std@@@std@@@Z@V?$allocator@UEdgeBevelE@?3??bevelEStart@MeshComponent@@QAE?AUBevelEInfo@ObjEd@@AAV?$vector@USelection@ObjEd@@V?$allocator@USelection@ObjEd@@@std@@@std@@@Z@@7@@std@@QAEXIABUEdgeBevelE@?3??bevelEStart@MeshComponent@@QAE?AUBevelEInfo@ObjEd@@AAV?$vector@USelection@ObjEd@@V?$allocator@USelection@ObjEd@@@std@@@2@@Z@@Z 0040b9bc f i BevelE.obj
 0001:0000aa46       ?_Construct_n@?$vector@UBevelEIntermidiateSharedNEdge@MeshComponent@@V?$allocator@UBevelEIntermidiateSharedNEdge@MeshComponent@@@std@@@std@@QAEXIABUBevelEIntermidiateSharedNEdge@MeshComponent@@@Z 0040ba46 f i BevelE.obj
 0001:0000aac3       ?insert@?$vector@UBevelEIntermidiateSharedNEdge@MeshComponent@@V?$allocator@UBevelEIntermidiateSharedNEdge@MeshComponent@@@std@@@std@@QAE?AV?$_Vector_iterator@UBevelEIntermidiateSharedNEdge@MeshComponent@@V?$allocator@UBevelEIntermidiateSharedNEdge@MeshComponent@@@std@@@2@V?$_Vector_const_iterator@UBevelEIntermidiateSharedNEdge@MeshComponent@@V?$allocator@UBevelEIntermidiateSharedNEdge@MeshComponent@@@std@@@2@ABUBevelEIntermidiateSharedNEdge@MeshComponent@@@Z 0040bac3 f i BevelE.obj
 0001:0000ab77       ?_Buy@?$vector@UBevelEIntermidiateSharedNEdge@MeshComponent@@V?$allocator@UBevelEIntermidiateSharedNEdge@MeshComponent@@@std@@@std@@IAE_NI@Z 0040bb77 f i BevelE.obj
 0001:0000aba0       ?_Ufill@?$vector@UBevelEIntermidiateSharedNEdge@MeshComponent@@V?$allocator@UBevelEIntermidiateSharedNEdge@MeshComponent@@@std@@@std@@IAEPAUBevelEIntermidiateSharedNEdge@MeshComponent@@PAU34@IABU34@@Z 0040bba0 f i BevelE.obj
 0001:0000abd0       ?_Construct_n@?$vector@UBevelESharedNEdgeGroup@MeshComponent@@V?$allocator@UBevelESharedNEdgeGroup@MeshComponent@@@std@@@std@@QAEXIABUBevelESharedNEdgeGroup@MeshComponent@@@Z 0040bbd0 f i BevelE.obj
 0001:0000ac55       ?resize@?$vector@V?$vector@PAVHE_edge@@V?$allocator@PAVHE_edge@@@std@@@std@@V?$allocator@V?$vector@PAVHE_edge@@V?$allocator@PAVHE_edge@@@std@@@std@@@2@@std@@QAEXIV?$vector@PAVHE_edge@@V?$allocator@PAVHE_edge@@@std@@@2@@Z 0040bc55 f i BevelE.obj
 0001:0000ad2f       ?_Insert_n@?$vector@UD3DXVECTOR3@@V?$allocator@UD3DXVECTOR3@@@std@@@std@@IAEXV?$_Vector_const_iterator@UD3DXVECTOR3@@V?$allocator@UD3DXVECTOR3@@@std@@@2@IABUD3DXVECTOR3@@@Z 0040bd2f f i BevelE.obj
 0001:0000af19       ?_Buy@?$vector@UEdgeBevelE@?3??bevelEStart@MeshComponent@@QAE?AUBevelEInfo@ObjEd@@AAV?$vector@USelection@ObjEd@@V?$allocator@USelection@ObjEd@@@std@@@std@@@Z@V?$allocator@UEdgeBevelE@?3??bevelEStart@MeshComponent@@QAE?AUBevelEInfo@ObjEd@@AAV?$vector@USelection@ObjEd@@V?$allocator@USelection@ObjEd@@@std@@@std@@@Z@@7@@std@@IAE_NI@Z 0040bf19 f i BevelE.obj
 0001:0000afaa       ?_Insert_n@?$vector@UBevelEIntermidiateSharedNEdge@MeshComponent@@V?$allocator@UBevelEIntermidiateSharedNEdge@MeshComponent@@@std@@@std@@IAEXV?$_Vector_const_iterator@UBevelEIntermidiateSharedNEdge@MeshComponent@@V?$allocator@UBevelEIntermidiateSharedNEdge@MeshComponent@@@std@@@2@IABUBevelEIntermidiateSharedNEdge@MeshComponent@@@Z 0040bfaa f i BevelE.obj
 0001:0000b187       ?allocate@?$allocator@UBevelEIntermidiateSharedNEdge@MeshComponent@@@std@@QAEPAUBevelEIntermidiateSharedNEdge@MeshComponent@@I@Z 0040c187 f i BevelE.obj
 0001:0000b1c1       ?_Buy@?$vector@UBevelESharedNEdgeGroup@MeshComponent@@V?$allocator@UBevelESharedNEdgeGroup@MeshComponent@@@std@@@std@@IAE_NI@Z 0040c1c1 f i BevelE.obj
 0001:0000b24e       ?erase@?$vector@V?$vector@PAVHE_edge@@V?$allocator@PAVHE_edge@@@std@@@std@@V?$allocator@V?$vector@PAVHE_edge@@V?$allocator@PAVHE_edge@@@std@@@std@@@2@@std@@QAE?AV?$_Vector_iterator@V?$vector@PAVHE_edge@@V?$allocator@PAVHE_edge@@@std@@@std@@V?$allocator@V?$vector@PAVHE_edge@@V?$allocator@PAVHE_edge@@@std@@@std@@@2@@2@V?$_Vector_const_iterator@V?$vector@PAVHE_edge@@V?$allocator@PAVHE_edge@@@std@@@std@@V?$allocator@V?$vector@PAVHE_edge@@V?$allocator@PAVHE_edge@@@std@@@std@@@2@@2@0@Z 0040c24e f i BevelE.obj
 0001:0000b24e       ?erase@?$vector@V?$vector@HV?$allocator@H@std@@@std@@V?$allocator@V?$vector@HV?$allocator@H@std@@@std@@@2@@std@@QAE?AV?$_Vector_iterator@V?$vector@HV?$allocator@H@std@@@std@@V?$allocator@V?$vector@HV?$allocator@H@std@@@std@@@2@@2@V?$_Vector_const_iterator@V?$vector@HV?$allocator@H@std@@@std@@V?$allocator@V?$vector@HV?$allocator@H@std@@@std@@@2@@2@0@Z 0040c24e f i SimpleGraph.obj
 0001:0000b2eb       ?_Destroy@?$vector@V?$vector@PAVHE_vert@@V?$allocator@PAVHE_vert@@@std@@@std@@V?$allocator@V?$vector@PAVHE_vert@@V?$allocator@PAVHE_vert@@@std@@@std@@@2@@std@@IAEXPAV?$vector@PAVHE_vert@@V?$allocator@PAVHE_vert@@@std@@@2@0@Z 0040c2eb f i Mesh.obj
 0001:0000b2eb       ?_Destroy@?$vector@V?$vector@HV?$allocator@H@std@@@std@@V?$allocator@V?$vector@HV?$allocator@H@std@@@std@@@2@@std@@IAEXPAV?$vector@HV?$allocator@H@std@@@2@0@Z 0040c2eb f i BevelE.obj
 0001:0000b2eb       ?_Destroy@?$vector@V?$vector@PAVHE_edge@@V?$allocator@PAVHE_edge@@@std@@@std@@V?$allocator@V?$vector@PAVHE_edge@@V?$allocator@PAVHE_edge@@@std@@@std@@@2@@std@@IAEXPAV?$vector@PAVHE_edge@@V?$allocator@PAVHE_edge@@@std@@@2@0@Z 0040c2eb f i BevelE.obj
 0001:0000b30a       ?_Insert_n@?$vector@V?$vector@PAVHE_edge@@V?$allocator@PAVHE_edge@@@std@@@std@@V?$allocator@V?$vector@PAVHE_edge@@V?$allocator@PAVHE_edge@@@std@@@std@@@2@@std@@IAEXV?$_Vector_const_iterator@V?$vector@PAVHE_edge@@V?$allocator@PAVHE_edge@@@std@@@std@@V?$allocator@V?$vector@PAVHE_edge@@V?$allocator@PAVHE_edge@@@std@@@std@@@2@@2@IABV?$vector@PAVHE_edge@@V?$allocator@PAVHE_edge@@@std@@@2@@Z 0040c30a f i BevelE.obj
 0001:0000b52e       ?allocate@?$allocator@VVertexPosNor@@@std@@QAEPAVVertexPosNor@@I@Z 0040c52e f i EditableMeshModelProcTex.obj
 0001:0000b52e       ?allocate@?$allocator@V?$vector@PAVHE_vert@@V?$allocator@PAVHE_vert@@@std@@@std@@@std@@QAEPAV?$vector@PAVHE_vert@@V?$allocator@PAVHE_vert@@@std@@@2@I@Z 0040c52e f i Mesh.obj
 0001:0000b52e       ?allocate@?$allocator@V?$vector@HV?$allocator@H@std@@@std@@@std@@QAEPAV?$vector@HV?$allocator@H@std@@@2@I@Z 0040c52e f i SimpleGraph.obj
 0001:0000b52e       ?allocate@?$allocator@V?$vector@PAVHE_edge@@V?$allocator@PAVHE_edge@@@std@@@std@@@std@@QAEPAV?$vector@PAVHE_edge@@V?$allocator@PAVHE_edge@@@std@@@2@I@Z 0040c52e f i BevelE.obj
 0001:0000b568       ??H?$_Vector_iterator@UD3DXVECTOR3@@V?$allocator@UD3DXVECTOR3@@@std@@@std@@QBE?AV01@H@Z 0040c568 f i BevelE.obj
 0001:0000b5b0       ??H?$_Vector_iterator@PAVStaticRigidBody@@V?$allocator@PAVStaticRigidBody@@@std@@@std@@QBE?AV01@H@Z 0040c5b0 f i Physics.obj
 0001:0000b5b0       ??H?$_Vector_iterator@IV?$allocator@I@std@@@std@@QBE?AV01@H@Z 0040c5b0 f i BaseDX.obj
 0001:0000b5b0       ??H?$_Vector_iterator@PAVHE_edge@@V?$allocator@PAVHE_edge@@@std@@@std@@QBE?AV01@H@Z 0040c5b0 f i BevelE.obj
 0001:0000b5b0       ??H?$_Vector_iterator@HV?$allocator@H@std@@@std@@QBE?AV01@H@Z 0040c5b0 f i KniveLine.obj
 0001:0000b5b0       ??H?$_Vector_iterator@PAVHE_vert@@V?$allocator@PAVHE_vert@@@std@@@std@@QBE?AV01@H@Z 0040c5b0 f i BevelE.obj
 0001:0000b5f4       ?_Ufill@?$vector@V?$vector@PAVHE_edge@@V?$allocator@PAVHE_edge@@@std@@@std@@V?$allocator@V?$vector@PAVHE_edge@@V?$allocator@PAVHE_edge@@@std@@@std@@@2@@std@@IAEPAV?$vector@PAVHE_edge@@V?$allocator@PAVHE_edge@@@std@@@2@PAV32@IABV32@@Z 0040c5f4 f i BevelE.obj
 0001:0000b625       ??$unchecked_copy@PAPAVStaticRigidBody@@PAPAV1@@stdext@@YAPAPAVStaticRigidBody@@PAPAV1@00@Z 0040c625 f i Physics.obj
 0001:0000b625       ??$unchecked_copy@PAPAVDeferredMeshModel@@PAPAV1@@stdext@@YAPAPAVDeferredMeshModel@@PAPAV1@00@Z 0040c625 f i GameStateWorld.obj
 0001:0000b625       ??$unchecked_copy@PAIPAI@stdext@@YAPAIPAI00@Z 0040c625 f i BaseDX.obj
 0001:0000b625       ??$unchecked_copy@PAPAVRigidBody@@PAPAV1@@stdext@@YAPAPAVRigidBody@@PAPAV1@00@Z 0040c625 f i RigidBodyOde.obj
 0001:0000b625       ??$unchecked_copy@PAPAVHE_vert@@PAPAV1@@stdext@@YAPAPAVHE_vert@@PAPAV1@00@Z 0040c625 f i Mesh.obj
 0001:0000b625       ??$unchecked_copy@PAPAVHE_edge@@PAPAV1@@stdext@@YAPAPAVHE_edge@@PAPAV1@00@Z 0040c625 f i BevelE.obj
 0001:0000b625       ??$unchecked_copy@PAHPAH@stdext@@YAPAHPAH00@Z 0040c625 f i Mesh.obj
 0001:0000b64d       ??$_Umove@PAUBevelEIntermidiateSharedNEdge@MeshComponent@@@?$vector@UBevelEIntermidiateSharedNEdge@MeshComponent@@V?$allocator@UBevelEIntermidiateSharedNEdge@MeshComponent@@@std@@@std@@IAEPAUBevelEIntermidiateSharedNEdge@MeshComponent@@PAU23@00@Z 0040c64d f i BevelE.obj
 0001:0000b674       ??$_Umove@PAV?$vector@PAVHE_edge@@V?$allocator@PAVHE_edge@@@std@@@std@@@?$vector@V?$vector@PAVHE_edge@@V?$allocator@PAVHE_edge@@@std@@@std@@V?$allocator@V?$vector@PAVHE_edge@@V?$allocator@PAVHE_edge@@@std@@@std@@@2@@std@@IAEPAV?$vector@PAVHE_edge@@V?$allocator@PAVHE_edge@@@std@@@1@PAV21@00@Z 0040c674 f i BevelE.obj
 0001:0000b69c       ??$_Uninit_fill_n@PAUSelection@ObjEd@@IU12@V?$allocator@USelection@ObjEd@@@std@@@std@@YAXPAUSelection@ObjEd@@IABU12@AAV?$allocator@USelection@ObjEd@@@0@U_Nonscalar_ptr_iterator_tag@0@U_Range_checked_iterator_tag@0@@Z 0040c69c f i Mesh.obj
 0001:0000b69c       ??$_Uninit_fill_n@PAUD3DXVECTOR3@@IU1@V?$allocator@UD3DXVECTOR3@@@std@@@std@@YAXPAUD3DXVECTOR3@@IABU1@AAV?$allocator@UD3DXVECTOR3@@@0@U_Nonscalar_ptr_iterator_tag@0@U_Range_checked_iterator_tag@0@@Z 0040c69c f i BevelE.obj
 0001:0000b6eb       ??$_Uninit_fill_n@PAUBevelEIntermidiateSharedNEdge@MeshComponent@@IU12@V?$allocator@UBevelEIntermidiateSharedNEdge@MeshComponent@@@std@@@std@@YAXPAUBevelEIntermidiateSharedNEdge@MeshComponent@@IABU12@AAV?$allocator@UBevelEIntermidiateSharedNEdge@MeshComponent@@@0@U_Nonscalar_ptr_iterator_tag@0@U_Range_checked_iterator_tag@0@@Z 0040c6eb f i BevelE.obj
 0001:0000b73e       ??$_Uninit_fill_n@PAUBevelESharedNEdgeGroup@MeshComponent@@IU12@V?$allocator@UBevelESharedNEdgeGroup@MeshComponent@@@std@@@std@@YAXPAUBevelESharedNEdgeGroup@MeshComponent@@IABU12@AAV?$allocator@UBevelESharedNEdgeGroup@MeshComponent@@@0@U_Nonscalar_ptr_iterator_tag@0@U_Range_checked_iterator_tag@0@@Z 0040c73e f i BevelE.obj
 0001:0000b73e       ??$_Uninit_fill_n@PAVPrecision@@IV1@V?$allocator@VPrecision@@@std@@@std@@YAXPAVPrecision@@IABV1@AAV?$allocator@VPrecision@@@0@U_Nonscalar_ptr_iterator_tag@0@U_Range_checked_iterator_tag@0@@Z 0040c73e f i Physics.obj
 0001:0000b73e       ??$_Uninit_fill_n@PAUD3DXVECTOR2@@IU1@V?$allocator@UD3DXVECTOR2@@@std@@@std@@YAXPAUD3DXVECTOR2@@IABU1@AAV?$allocator@UD3DXVECTOR2@@@0@U_Nonscalar_ptr_iterator_tag@0@U_Range_checked_iterator_tag@0@@Z 0040c73e f i SplineLengthMapped.obj
 0001:0000b73e       ??$_Uninit_fill_n@PAVOpPrimCube@OpInfo@@IV12@V?$allocator@VOpPrimCube@OpInfo@@@std@@@std@@YAXPAVOpPrimCube@OpInfo@@IABV12@AAV?$allocator@VOpPrimCube@OpInfo@@@0@U_Nonscalar_ptr_iterator_tag@0@U_Range_checked_iterator_tag@0@@Z 0040c73e f i OpStack.obj
 0001:0000b792       ??$_Uninit_fill_n@PAV?$vector@PAVHE_edge@@V?$allocator@PAVHE_edge@@@std@@@std@@IV12@V?$allocator@V?$vector@PAVHE_edge@@V?$allocator@PAVHE_edge@@@std@@@std@@@2@@std@@YAXPAV?$vector@PAVHE_edge@@V?$allocator@PAVHE_edge@@@std@@@0@IABV10@AAV?$allocator@V?$vector@PAVHE_edge@@V?$allocator@PAVHE_edge@@@std@@@std@@@0@U_Nonscalar_ptr_iterator_tag@0@U_Range_checked_iterator_tag@0@@Z 0040c792 f i BevelE.obj
 0001:0000b805       ??$_Uninit_move@PAV?$vector@PAVHE_edge@@V?$allocator@PAVHE_edge@@@std@@@std@@PAV12@V?$allocator@V?$vector@PAVHE_edge@@V?$allocator@PAVHE_edge@@@std@@@std@@@2@@std@@YAPAV?$vector@PAVHE_edge@@V?$allocator@PAVHE_edge@@@std@@@0@PAV10@00AAV?$allocator@V?$vector@PAVHE_edge@@V?$allocator@PAVHE_edge@@@std@@@std@@@0@U_Swap_move_tag@0@U_Range_checked_iterator_tag@0@@Z 0040c805 f i BevelE.obj
 0001:0000b8ae       ??$_Uninit_copy@PAUBevelEIntermidiateSharedNEdge@MeshComponent@@PAU12@V?$allocator@UBevelEIntermidiateSharedNEdge@MeshComponent@@@std@@@std@@YAPAUBevelEIntermidiateSharedNEdge@MeshComponent@@PAU12@00AAV?$allocator@UBevelEIntermidiateSharedNEdge@MeshComponent@@@0@U_Nonscalar_ptr_iterator_tag@0@U_Range_checked_iterator_tag@0@@Z 0040c8ae f i BevelE.obj
 0001:0000b907       ?bevelVStart@MeshComponent@@QAE?AUBevelVInfo@ObjEd@@H@Z 0040c907 f   BevelV.obj
 0001:0000bc92       ?bevelV@MeshComponent@@QAEXHAAUBevelVInfo@ObjEd@@@Z 0040cc92 f   BevelV.obj
 0001:0000bd7e       ?resize@?$vector@UD3DXVECTOR3@@V?$allocator@UD3DXVECTOR3@@@std@@@std@@QAEXI@Z 0040cd7e f i BevelV.obj
 0001:0000bd9f       ?resize@?$vector@UD3DXVECTOR3@@V?$allocator@UD3DXVECTOR3@@@std@@@std@@QAEXIUD3DXVECTOR3@@@Z 0040cd9f f i BevelV.obj
 0001:0000be2a       ?createCubePrimitive@MeshComponent@@QAEXXZ 0040ce2a f   CubePrim.obj
 0001:0000c357       ?extrudeFace@MeshComponent@@AAE?AV?$vector@PAVHE_vert@@V?$allocator@PAVHE_vert@@@std@@@std@@H@Z 0040d357 f   Extrusion.obj
 0001:0000c8e6       ?extrudeStart@MeshComponent@@QAE?AUExtrudeInfo@ObjEd@@HABUExtrudeOptions@Options@@@Z 0040d8e6 f   Extrusion.obj
 0001:0000cb01       ?extrude@MeshComponent@@QAEXHAAUExtrudeInfo@ObjEd@@@Z 0040db01 f   Extrusion.obj
 0001:0000cbfd       ??0?$vector@UD3DXVECTOR3@@V?$allocator@UD3DXVECTOR3@@@std@@@std@@QAE@I@Z 0040dbfd f i Extrusion.obj
 0001:0000cc2a       ?_Construct_n@?$vector@UD3DXVECTOR3@@V?$allocator@UD3DXVECTOR3@@@std@@@std@@QAEXIABUD3DXVECTOR3@@@Z 0040dc2a f i Extrusion.obj
 0001:0000cc2a       ?_Construct_n@?$vector@USelection@ObjEd@@V?$allocator@USelection@ObjEd@@@std@@@std@@QAEXIABUSelection@ObjEd@@@Z 0040dc2a f i OpInfoIO.obj
 0001:0000cc95       ?resize@?$vector@V?$vector@PAVHE_vert@@V?$allocator@PAVHE_vert@@@std@@@std@@V?$allocator@V?$vector@PAVHE_vert@@V?$allocator@PAVHE_vert@@@std@@@std@@@2@@std@@QAEXIV?$vector@PAVHE_vert@@V?$allocator@PAVHE_vert@@@std@@@2@@Z 0040dc95 f i Extrusion.obj
 0001:0000cd70       ?_Construct_n@?$vector@HV?$allocator@H@std@@@std@@QAEXIABH@Z 0040dd70 f i BevelE.obj
 0001:0000cd70       ?_Construct_n@?$vector@PAVHE_vert@@V?$allocator@PAVHE_vert@@@std@@@std@@QAEXIABQAVHE_vert@@@Z 0040dd70 f i BevelE.obj
 0001:0000cd70       ?_Construct_n@?$vector@PAVHE_edge@@V?$allocator@PAVHE_edge@@@std@@@std@@QAEXIABQAVHE_edge@@@Z 0040dd70 f i BevelE.obj
 0001:0000cd70       ?_Construct_n@?$vector@PAVHE_face@@V?$allocator@PAVHE_face@@@std@@@std@@QAEXIABQAVHE_face@@@Z 0040dd70 f i Extrusion.obj
 0001:0000cd70       ?_Construct_n@?$vector@PAVStaticRigidBody@@V?$allocator@PAVStaticRigidBody@@@std@@@std@@QAEXIABQAVStaticRigidBody@@@Z 0040dd70 f i Physics.obj
 0001:0000cddb       ?_Buy@?$vector@IV?$allocator@I@std@@@std@@IAE_NI@Z 0040dddb f i BaseDX.obj
 0001:0000cddb       ?_Buy@?$vector@PAVDeferredMeshModel@@V?$allocator@PAVDeferredMeshModel@@@std@@@std@@IAE_NI@Z 0040dddb f i Mesh.obj
 0001:0000cddb       ?_Buy@?$vector@PAVHE_face@@V?$allocator@PAVHE_face@@@std@@@std@@IAE_NI@Z 0040dddb f i Extrusion.obj
 0001:0000cddb       ?_Buy@?$vector@PAVRigidBody@@V?$allocator@PAVRigidBody@@@std@@@std@@IAE_NI@Z 0040dddb f i Physics.obj
 0001:0000cddb       ?_Buy@?$vector@PAVHE_edge@@V?$allocator@PAVHE_edge@@@std@@@std@@IAE_NI@Z 0040dddb f i BevelE.obj
 0001:0000cddb       ?_Buy@?$vector@PAVStaticRigidBody@@V?$allocator@PAVStaticRigidBody@@@std@@@std@@IAE_NI@Z 0040dddb f i Physics.obj
 0001:0000cddb       ?_Buy@?$vector@PAVHE_vert@@V?$allocator@PAVHE_vert@@@std@@@std@@IAE_NI@Z 0040dddb f i Mesh.obj
 0001:0000cddb       ?_Buy@?$vector@HV?$allocator@H@std@@@std@@IAE_NI@Z 0040dddb f i Mesh.obj
 0001:0000ce00       ?_Insert_n@?$vector@V?$vector@PAVHE_vert@@V?$allocator@PAVHE_vert@@@std@@@std@@V?$allocator@V?$vector@PAVHE_vert@@V?$allocator@PAVHE_vert@@@std@@@std@@@2@@std@@IAEXV?$_Vector_const_iterator@V?$vector@PAVHE_vert@@V?$allocator@PAVHE_vert@@@std@@@std@@V?$allocator@V?$vector@PAVHE_vert@@V?$allocator@PAVHE_vert@@@std@@@std@@@2@@2@IABV?$vector@PAVHE_vert@@V?$allocator@PAVHE_vert@@@std@@@2@@Z 0040de00 f i Extrusion.obj
 0001:0000d024       ?allocate@?$allocator@H@std@@QAEPAHI@Z 0040e024 f i Mesh.obj
 0001:0000d024       ?allocate@?$allocator@PAVHeightZone@@@std@@QAEPAPAVHeightZone@@I@Z 0040e024 f i HeightFunction.obj
 0001:0000d024       ?allocate@?$allocator@PAV?$LineListModel@UD3DXVECTOR3@@@@@std@@QAEPAPAV?$LineListModel@UD3DXVECTOR3@@@@I@Z 0040e024 f i WorldTerrain.obj
 0001:0000d024       ?allocate@?$allocator@PAVRigidBody@@@std@@QAEPAPAVRigidBody@@I@Z 0040e024 f i Physics.obj
 0001:0000d024       ?allocate@?$allocator@PAVTimeTorque@@@std@@QAEPAPAVTimeTorque@@I@Z 0040e024 f i RigidBodyExt.obj
 0001:0000d024       ?allocate@?$allocator@PAVHE_vert@@@std@@QAEPAPAVHE_vert@@I@Z 0040e024 f i Mesh.obj
 0001:0000d024       ?allocate@?$allocator@PAVRigidBodyExt@@@std@@QAEPAPAVRigidBodyExt@@I@Z 0040e024 f i Physics.obj
 0001:0000d024       ?allocate@?$allocator@PAVMeshComponent@@@std@@QAEPAPAVMeshComponent@@I@Z 0040e024 f i Mesh.obj
 0001:0000d024       ?allocate@?$allocator@PAVTimeForce@@@std@@QAEPAPAVTimeForce@@I@Z 0040e024 f i RigidBodyExt.obj
 0001:0000d024       ?allocate@?$allocator@PAVDeferredMeshModel@@@std@@QAEPAPAVDeferredMeshModel@@I@Z 0040e024 f i Mesh.obj
 0001:0000d024       ?allocate@?$allocator@PAVStaticRigidBody@@@std@@QAEPAPAVStaticRigidBody@@I@Z 0040e024 f i Physics.obj
 0001:0000d024       ?allocate@?$allocator@PAVHE_edge@@@std@@QAEPAPAVHE_edge@@I@Z 0040e024 f i BevelE.obj
 0001:0000d024       ?allocate@?$allocator@PAVHE_face@@@std@@QAEPAPAVHE_face@@I@Z 0040e024 f i Extrusion.obj
 0001:0000d024       ?allocate@?$allocator@I@std@@QAEPAII@Z 0040e024 f i BaseDX.obj
 0001:0000d024       ?allocate@?$allocator@M@std@@QAEPAMI@Z 0040e024 f i SplineLengthMapped.obj
 0001:0000d060       ?_Ufill@?$vector@V?$vector@PAVHE_vert@@V?$allocator@PAVHE_vert@@@std@@@std@@V?$allocator@V?$vector@PAVHE_vert@@V?$allocator@PAVHE_vert@@@std@@@std@@@2@@std@@IAEPAV?$vector@PAVHE_vert@@V?$allocator@PAVHE_vert@@@std@@@2@PAV32@IABV32@@Z 0040e060 f i Extrusion.obj
 0001:0000d091       ??$_Umove@PAV?$vector@PAVHE_vert@@V?$allocator@PAVHE_vert@@@std@@@std@@@?$vector@V?$vector@PAVHE_vert@@V?$allocator@PAVHE_vert@@@std@@@std@@V?$allocator@V?$vector@PAVHE_vert@@V?$allocator@PAVHE_vert@@@std@@@std@@@2@@std@@IAEPAV?$vector@PAVHE_vert@@V?$allocator@PAVHE_vert@@@std@@@1@PAV21@00@Z 0040e091 f i Extrusion.obj
 0001:0000d0b9       ??$_Unchecked_move_backward@PAV?$vector@PAVHE_edge@@V?$allocator@PAVHE_edge@@@std@@@std@@PAV12@@stdext@@YAPAV?$vector@PAVHE_edge@@V?$allocator@PAVHE_edge@@@std@@@std@@PAV12@00@Z 0040e0b9 f i BevelE.obj
 0001:0000d0b9       ??$_Unchecked_move_backward@PAV?$vector@HV?$allocator@H@std@@@std@@PAV12@@stdext@@YAPAV?$vector@HV?$allocator@H@std@@@std@@PAV12@00@Z 0040e0b9 f i SimpleGraph.obj
 0001:0000d0b9       ??$_Unchecked_move_backward@PAV?$vector@PAVHE_vert@@V?$allocator@PAVHE_vert@@@std@@@std@@PAV12@@stdext@@YAPAV?$vector@PAVHE_vert@@V?$allocator@PAVHE_vert@@@std@@@std@@PAV12@00@Z 0040e0b9 f i Extrusion.obj
 0001:0000d0ff       ??$_Uninit_fill_n@PAV?$vector@PAVHE_vert@@V?$allocator@PAVHE_vert@@@std@@@std@@IV12@V?$allocator@V?$vector@PAVHE_vert@@V?$allocator@PAVHE_vert@@@std@@@std@@@2@@std@@YAXPAV?$vector@PAVHE_vert@@V?$allocator@PAVHE_vert@@@std@@@0@IABV10@AAV?$allocator@V?$vector@PAVHE_vert@@V?$allocator@PAVHE_vert@@@std@@@std@@@0@U_Nonscalar_ptr_iterator_tag@0@U_Range_checked_iterator_tag@0@@Z 0040e0ff f i Extrusion.obj
 0001:0000d16d       ??$_Uninit_move@PAV?$vector@PAVHE_vert@@V?$allocator@PAVHE_vert@@@std@@@std@@PAV12@V?$allocator@V?$vector@PAVHE_vert@@V?$allocator@PAVHE_vert@@@std@@@std@@@2@@std@@YAPAV?$vector@PAVHE_vert@@V?$allocator@PAVHE_vert@@@std@@@0@PAV10@00AAV?$allocator@V?$vector@PAVHE_vert@@V?$allocator@PAVHE_vert@@@std@@@std@@@0@U_Swap_move_tag@0@U_Range_checked_iterator_tag@0@@Z 0040e16d f i Extrusion.obj
 0001:0000d212       ??$swap@PAVHE_edge@@V?$allocator@PAVHE_edge@@@std@@@std@@YAXAAV?$vector@PAVHE_edge@@V?$allocator@PAVHE_edge@@@std@@@0@0@Z 0040e212 f i BevelE.obj
 0001:0000d212       ??$swap@HV?$allocator@H@std@@@std@@YAXAAV?$vector@HV?$allocator@H@std@@@0@0@Z 0040e212 f i SimpleGraph.obj
 0001:0000d212       ??$swap@PAVHE_vert@@V?$allocator@PAVHE_vert@@@std@@@std@@YAXAAV?$vector@PAVHE_vert@@V?$allocator@PAVHE_vert@@@std@@@0@0@Z 0040e212 f i Extrusion.obj
 0001:0000d25c       ?extrudeInnerStart@MeshComponent@@QAE?AUExtrudeInnerInfo@ObjEd@@HABUExtInnerOptions@Options@@@Z 0040e25c f   ExtrusionInner.obj
 0001:0000d4d8       ?extrudeInner@MeshComponent@@QAEXHAAUExtrudeInnerInfo@ObjEd@@@Z 0040e4d8 f   ExtrusionInner.obj
 0001:0000d617       ?extrudeMatrixStart@MeshComponent@@QAE?AUExtrudeMatrixInfo@ObjEd@@HABUExtMatrixOptions@Options@@@Z 0040e617 f   ExtrusionMatrix.obj
 0001:0000d62b       ??0Face@@QAE@AAV?$vector@HV?$allocator@H@std@@@std@@0@Z 0040e62b f   Face.obj
 0001:0000d65d       ?nHalfEdges@HE_mesh@@QBEHXZ 0040e65d f   MeshHalfEdge.obj
 0001:0000d65d       ?nVertices@Face@@QBEHXZ    0040e65d f   Face.obj
 0001:0000d667       ?vId@Face@@QBEHH@Z         0040e667 f   Face.obj
 0001:0000d66f       ?nDecompositionTriangles@Face@@QBEHXZ 0040e66f f   Face.obj
 0001:0000d67b       ?decompTriangle@Face@@QBE?AUTriangleDecomposition@1@H@Z 0040e67b f   Face.obj
 0001:0000d68b       ?eId@Face@@QBEHH@Z         0040e68b f   Face.obj
 0001:0000d68b       ?hface@HE_mesh@@QBEPAVHE_face@@H@Z 0040e68b f   MeshHalfEdge.obj
 0001:0000d69a       ?setEdge@HE_face@@QAEXPBVHE_edge@@@Z 0040e69a f   HE_face.obj
 0001:0000d69d       ?vertices@HE_face@@QBE?AV?$vector@PAVHE_vert@@V?$allocator@PAVHE_vert@@@std@@@std@@XZ 0040e69d f   HE_face.obj
 0001:0000d6c3       ?edges@HE_face@@QBE?AV?$vector@PAVHE_edge@@V?$allocator@PAVHE_edge@@@std@@@std@@XZ 0040e6c3 f   HE_face.obj
 0001:0000d6f4       ?edgeChain@HE_face@@QBE?AV?$vector@PAVHE_edge@@V?$allocator@PAVHE_edge@@@std@@@std@@PBVHE_vert@@0@Z 0040e6f4 f   HE_face.obj
 0001:0000d787       ??0HE_vert@@QAE@ABVVertexObj@@H@Z 0040e787 f   HE_vert.obj
 0001:0000d796       ?setEdge@HE_vert@@QAEXPBVHE_edge@@@Z 0040e796 f   HE_vert.obj
 0001:0000d79a       ?edgesSorted@HE_vert@@QBE?AV?$vector@PAVHE_edge@@V?$allocator@PAVHE_edge@@@std@@@std@@PAVHE_edge@@@Z 0040e79a f   HE_vert.obj
 0001:0000d7ce       ?edgesClockWise@HE_vert@@QBE?AV?$vector@PAVHE_edge@@V?$allocator@PAVHE_edge@@@std@@@std@@XZ 0040e7ce f   HE_vert.obj
 0001:0000d7fb       ?faces@HE_vert@@QBE?AV?$vector@PAVHE_face@@V?$allocator@PAVHE_face@@@std@@@std@@XZ 0040e7fb f   HE_vert.obj
 0001:0000d82b       ?push_back@?$vector@PAVHE_face@@V?$allocator@PAVHE_face@@@std@@@std@@QAEXABQAVHE_face@@@Z 0040e82b f i HE_vert.obj
 0001:0000d889       ?insert@?$vector@PAVHE_face@@V?$allocator@PAVHE_face@@@std@@@std@@QAE?AV?$_Vector_iterator@PAVHE_face@@V?$allocator@PAVHE_face@@@std@@@2@V?$_Vector_const_iterator@PAVHE_face@@V?$allocator@PAVHE_face@@@std@@@2@ABQAVHE_face@@@Z 0040e889 f i HE_vert.obj
 0001:0000d902       ?_Insert_n@?$vector@PAVHE_face@@V?$allocator@PAVHE_face@@@std@@@std@@IAEXV?$_Vector_const_iterator@PAVHE_face@@V?$allocator@PAVHE_face@@@std@@@2@IABQAVHE_face@@@Z 0040e902 f i HE_vert.obj
 0001:0000dacb       ??H?$_Vector_iterator@PAVHE_face@@V?$allocator@PAVHE_face@@@std@@@std@@QBE?AV01@H@Z 0040eacb f i HE_vert.obj
 0001:0000daf8       ??Y?$_Vector_iterator@PAVHE_face@@V?$allocator@PAVHE_face@@@std@@@std@@QAEAAV01@H@Z 0040eaf8 f i HE_vert.obj
 0001:0000db40       ??0OpKnifeLine@OpInfo@@QAE@ABV01@@Z 0040eb40 f i KniveLine.obj
 0001:0000db73       ?kniveLine@MeshComponent@@QAEXABVOpKnifeLine@OpInfo@@@Z 0040eb73 f   KniveLine.obj
 0001:0000dba6       ?kniveLineCutOneFace@MeshComponent@@AAEXABVOpKnifeLine@OpInfo@@@Z 0040eba6 f   KniveLine.obj
 0001:0000dd47       ?kniveLineCutManyFaces@MeshComponent@@AAEXABVOpKnifeLine@OpInfo@@@Z 0040ed47 f   KniveLine.obj
 0001:0000e284       ?push_back@?$vector@PAVHE_vert@@V?$allocator@PAVHE_vert@@@std@@@std@@QAEXABQAVHE_vert@@@Z 0040f284 f i BevelE.obj
 0001:0000e284       ?push_back@?$vector@PAVHE_edge@@V?$allocator@PAVHE_edge@@@std@@@std@@QAEXABQAVHE_edge@@@Z 0040f284 f i BevelE.obj
 0001:0000e284       ?push_back@?$vector@HV?$allocator@H@std@@@std@@QAEXABH@Z 0040f284 f i KniveLine.obj
 0001:0000e2e2       ??0?$vector@UEdgeIntersection@ObjEd@@V?$allocator@UEdgeIntersection@ObjEd@@@std@@@std@@QAE@I@Z 0040f2e2 f i KniveLine.obj
 0001:0000e30f       ??A?$vector@UEdgeBevelE@?3??bevelEStart@MeshComponent@@QAE?AUBevelEInfo@ObjEd@@AAV?$vector@USelection@ObjEd@@V?$allocator@USelection@ObjEd@@@std@@@std@@@Z@V?$allocator@UEdgeBevelE@?3??bevelEStart@MeshComponent@@QAE?AUBevelEInfo@ObjEd@@AAV?$vector@USelection@ObjEd@@V?$allocator@USelection@ObjEd@@@std@@@std@@@Z@@7@@std@@QAEAAUEdgeBevelE@?3??bevelEStart@MeshComponent@@QAE?AUBevelEInfo@ObjEd@@AAV?$vector@USelection@ObjEd@@V?$allocator@USelection@ObjEd@@@std@@@1@@Z@I@Z 0040f30f f i BevelE.obj
 0001:0000e30f       ??A?$vector@UEdgeIntersection@ObjEd@@V?$allocator@UEdgeIntersection@ObjEd@@@std@@@std@@QAEAAUEdgeIntersection@ObjEd@@I@Z 0040f30f f i KniveLine.obj
 0001:0000e30f       ??A?$vector@UEdgeIntersection@ObjEd@@V?$allocator@UEdgeIntersection@ObjEd@@@std@@@std@@QBEABUEdgeIntersection@ObjEd@@I@Z 0040f30f f i KniveLine.obj
 0001:0000e331       ??D?$_Const_iterator@$00@?$list@HV?$allocator@H@std@@@std@@QBEABHXZ 0040f331 f i Mesh.obj
 0001:0000e331       ??D?$_Iterator@$00@?$list@UFacesOfEdge@@V?$allocator@UFacesOfEdge@@@std@@@std@@QBEAAUFacesOfEdge@@XZ 0040f331 f i KniveLine.obj
 0001:0000e35e       ?insert@?$vector@HV?$allocator@H@std@@@std@@QAE?AV?$_Vector_iterator@HV?$allocator@H@std@@@2@V?$_Vector_const_iterator@HV?$allocator@H@std@@@2@ABH@Z 0040f35e f i KniveLine.obj
 0001:0000e35e       ?insert@?$vector@PAVHE_edge@@V?$allocator@PAVHE_edge@@@std@@@std@@QAE?AV?$_Vector_iterator@PAVHE_edge@@V?$allocator@PAVHE_edge@@@std@@@2@V?$_Vector_const_iterator@PAVHE_edge@@V?$allocator@PAVHE_edge@@@std@@@2@ABQAVHE_edge@@@Z 0040f35e f i BevelE.obj
 0001:0000e35e       ?insert@?$vector@PAVHE_vert@@V?$allocator@PAVHE_vert@@@std@@@std@@QAE?AV?$_Vector_iterator@PAVHE_vert@@V?$allocator@PAVHE_vert@@@std@@@2@V?$_Vector_const_iterator@PAVHE_vert@@V?$allocator@PAVHE_vert@@@std@@@2@ABQAVHE_vert@@@Z 0040f35e f i BevelE.obj
 0001:0000e3d7       ?_Construct_n@?$vector@UEdgeIntersection@ObjEd@@V?$allocator@UEdgeIntersection@ObjEd@@@std@@@std@@QAEXIABUEdgeIntersection@ObjEd@@@Z 0040f3d7 f i KniveLine.obj
 0001:0000e470       ?_Buynode@?$list@UFacesOfEdge@@V?$allocator@UFacesOfEdge@@@std@@@std@@IAEPAU_Node@?$_List_nod@UFacesOfEdge@@V?$allocator@UFacesOfEdge@@@std@@@2@XZ 0040f470 f i KniveLine.obj
 0001:0000e4c6       ?_Insert_n@?$vector@IV?$allocator@I@std@@@std@@IAEXV?$_Vector_const_iterator@IV?$allocator@I@std@@@2@IABI@Z 0040f4c6 f i Mesh.obj
 0001:0000e4c6       ?_Insert_n@?$vector@PAVHE_edge@@V?$allocator@PAVHE_edge@@@std@@@std@@IAEXV?$_Vector_const_iterator@PAVHE_edge@@V?$allocator@PAVHE_edge@@@std@@@2@IABQAVHE_edge@@@Z 0040f4c6 f i BevelE.obj
 0001:0000e4c6       ?_Insert_n@?$vector@PAVHE_vert@@V?$allocator@PAVHE_vert@@@std@@@std@@IAEXV?$_Vector_const_iterator@PAVHE_vert@@V?$allocator@PAVHE_vert@@@std@@@2@IABQAVHE_vert@@@Z 0040f4c6 f i BevelE.obj
 0001:0000e4c6       ?_Insert_n@?$vector@HV?$allocator@H@std@@@std@@IAEXV?$_Vector_const_iterator@HV?$allocator@H@std@@@2@IABH@Z 0040f4c6 f i KniveLine.obj
 0001:0000e693       ?_Buynode@?$list@UFacesOfEdge@@V?$allocator@UFacesOfEdge@@@std@@@std@@IAEPAU_Node@?$_List_nod@UFacesOfEdge@@V?$allocator@UFacesOfEdge@@@std@@@2@PAU342@0ABUFacesOfEdge@@@Z 0040f693 f i KniveLine.obj
 0001:0000e704       ??$reverse@V?$_Vector_iterator@HV?$allocator@H@std@@@std@@@std@@YAXV?$_Vector_iterator@HV?$allocator@H@std@@@0@0@Z 0040f704 f i KniveLine.obj
 0001:0000e729       ??$_Uninit_fill_n@PAUEdgeBevelE@?3??bevelEStart@MeshComponent@@QAE?AUBevelEInfo@ObjEd@@AAV?$vector@USelection@ObjEd@@V?$allocator@USelection@ObjEd@@@std@@@std@@@Z@IU1?3??23@QAE?AU45@0@Z@V?$allocator@UEdgeBevelE@?3??bevelEStart@MeshComponent@@QAE?AUBevelEInfo@ObjEd@@AAV?$vector@USelection@ObjEd@@V?$allocator@USelection@ObjEd@@@std@@@std@@@Z@@7@@std@@YAXPAUEdgeBevelE@?3??bevelEStart@MeshComponent@@QAE?AUBevelEInfo@ObjEd@@AAV?$vector@USelection@ObjEd@@V?$allocator@USelection@ObjEd@@@std@@@0@@Z@IABU1?3??23@QAE?AU45@0@Z@AAV?$allocator@UEdgeBevelE@?3??bevelEStart@MeshComponent@@QAE?AUBevelEInfo@ObjEd@@AAV?$vector@USelection@ObjEd@@V?$allocator@USelection@ObjEd@@@std@@@std@@@Z@@0@U_Nonscalar_ptr_iterator_tag@0@U_Range_checked_iterator_tag@0@@Z 0040f729 f i BevelE.obj
 0001:0000e729       ??$_Uninit_fill_n@PAUEdgeIntersection@ObjEd@@IU12@V?$allocator@UEdgeIntersection@ObjEd@@@std@@@std@@YAXPAUEdgeIntersection@ObjEd@@IABU12@AAV?$allocator@UEdgeIntersection@ObjEd@@@0@U_Nonscalar_ptr_iterator_tag@0@U_Range_checked_iterator_tag@0@@Z 0040f729 f i KniveLine.obj
 0001:0000e779       ??$swap@UD3DXVECTOR3@@@std@@YAXAAUD3DXVECTOR3@@0@Z 0040f779 f i KniveLine.obj
 0001:0000e7a3       ??0HE_mesh@@QAE@XZ         0040f7a3 f i MeshComponent.obj
 0001:0000e7cf       ?faces@HE_edge@@QBE?AV?$vector@PAVHE_face@@V?$allocator@PAVHE_face@@@std@@@std@@XZ 0040f7cf f i MeshComponent.obj
 0001:0000e7f4       ??1MeshComponent@@QAE@XZ   0040f7f4 f   MeshComponent.obj
 0001:0000e85c       ?nVertices@MeshComponent@@QBEHXZ 0040f85c f   MeshComponent.obj
 0001:0000e863       ?nFaces@MeshComponent@@QBEHXZ 0040f863 f   MeshComponent.obj
 0001:0000e86a       ?setMode@MeshComponent@@QAEXH@Z 0040f86a f   MeshComponent.obj
 0001:0000e872       ?vertex@MeshComponent@@QBE?AVVertexObj@@H@Z 0040f872 f   MeshComponent.obj
 0001:0000e884       ?edge@MeshComponent@@QBE?AVEdge@@H@Z 0040f884 f   MeshComponent.obj
 0001:0000e892       ?face@MeshComponent@@QBE?AVFace@@H@Z 0040f892 f   MeshComponent.obj
 0001:0000e8aa       ??0MeshComponent@@QAE@H@Z  0040f8aa f   MeshComponent.obj
 0001:0000e8fe       ?opTranslateVertex@MeshComponent@@QAEXHUD3DXVECTOR3@@@Z 0040f8fe f   MeshComponent.obj
 0001:0000e94e       ?opScaleVertices@MeshComponent@@QAEXHUD3DXVECTOR3@@0@Z 0040f94e f   MeshComponent.obj
 0001:0000e9ab       ?modifyVertex@MeshComponent@@QAEXHABVVertexObj@@@Z 0040f9ab f   MeshComponent.obj
 0001:0000e9b2       ?facesOfEdge@MeshComponent@@QBE?AUFacesOfEdge@@H@Z 0040f9b2 f   MeshComponent.obj
 0001:0000e9d0       ?faceContainsSelectedEntity@MeshComponent@@QBE_NHABUSelection@ObjEd@@@Z 0040f9d0 f   MeshComponent.obj
 0001:0000ea9e       ?resizeSelectionVectors@MeshComponent@@AAEXXZ 0040fa9e f   MeshComponent.obj
 0001:0000ead8       ?checkIntegrity@MeshComponent@@AAEXXZ 0040fad8 f   MeshComponent.obj
 0001:0000eadf       ?setId@MeshComponent@@QAEXH@Z 0040fadf f   MeshComponent.obj
 0001:0000eae3       ?boundingSphere@MeshComponent@@QBE?AVBoundingSphere@Intersections@@XZ 0040fae3 f   MeshComponent.obj
 0001:0000ebd4       ?resizeTexIdSelection@MeshComponent@@AAEXXZ 0040fbd4 f   MeshComponent.obj
 0001:0000ec1a       ?convertToDeferred@MeshComponent@@AAEPAVDeferredMeshModel@@PAUID3D10Device@@UD3DXVECTOR3@@PAUColourMapping@ObjEd@@@Z 0040fc1a f   MeshComponent.obj
 0001:0000ee3a       ??0?$vector@UEdgeIntersection@ObjEd@@V?$allocator@UEdgeIntersection@ObjEd@@@std@@@std@@QAE@XZ 0040fe3a f i Mesh.obj
 0001:0000ee3a       ??0?$vector@PAVDeferredMeshModel@@V?$allocator@PAVDeferredMeshModel@@@std@@@std@@QAE@XZ 0040fe3a f i Mesh.obj
 0001:0000ee3a       ??0?$vector@UVertPNT@@V?$allocator@UVertPNT@@@std@@@std@@QAE@XZ 0040fe3a f i MeshComponent.obj
 0001:0000ee3a       ??0?$vector@VOpTranslate@OpInfo@@V?$allocator@VOpTranslate@OpInfo@@@std@@@std@@QAE@XZ 0040fe3a f i OpStack.obj
 0001:0000ee3a       ??0?$vector@UBevelVInfo@ObjEd@@V?$allocator@UBevelVInfo@ObjEd@@@std@@@std@@QAE@XZ 0040fe3a f i Mesh.obj
 0001:0000ee3a       ??0?$vector@PAVHE_vert@@V?$allocator@PAVHE_vert@@@std@@@std@@QAE@XZ 0040fe3a f i Mesh.obj
 0001:0000ee3a       ??0?$vector@UNorScaleInfo@ObjEd@@V?$allocator@UNorScaleInfo@ObjEd@@@std@@@std@@QAE@XZ 0040fe3a f i Mesh.obj
 0001:0000ee3a       ??0?$vector@VOpNormScale@OpInfo@@V?$allocator@VOpNormScale@OpInfo@@@std@@@std@@QAE@XZ 0040fe3a f i OpStack.obj
 0001:0000ee3a       ??0?$vector@UExtrudeInfo@ObjEd@@V?$allocator@UExtrudeInfo@ObjEd@@@std@@@std@@QAE@XZ 0040fe3a f i Mesh.obj
 0001:0000ee3a       ??0?$vector@UD3DXVECTOR3@@V?$allocator@UD3DXVECTOR3@@@std@@@std@@QAE@XZ 0040fe3a f i Mesh.obj
 0001:0000ee3a       ??0?$vector@VProcTex@ObjEd@@V?$allocator@VProcTex@ObjEd@@@std@@@std@@QAE@XZ 0040fe3a f i Mesh.obj
 0001:0000ee3a       ??0?$vector@VOpScale@OpInfo@@V?$allocator@VOpScale@OpInfo@@@std@@@std@@QAE@XZ 0040fe3a f i OpStack.obj
 0001:0000ee3a       ??0?$vector@VOpExtrudeMatrix@OpInfo@@V?$allocator@VOpExtrudeMatrix@OpInfo@@@std@@@std@@QAE@XZ 0040fe3a f i OpStack.obj
 0001:0000ee3a       ??0?$vector@UPairBodies@@V?$allocator@UPairBodies@@@std@@@std@@QAE@XZ 0040fe3a f i Physics.obj
 0001:0000ee3a       ??0?$vector@UBevelEIntermidiateSharedNEdge@MeshComponent@@V?$allocator@UBevelEIntermidiateSharedNEdge@MeshComponent@@@std@@@std@@QAE@XZ 0040fe3a f i BevelE.obj
 0001:0000ee3a       ??0?$vector@PAVHE_edge@@V?$allocator@PAVHE_edge@@@std@@@std@@QAE@XZ 0040fe3a f i BevelE.obj
 0001:0000ee3a       ??0?$vector@PAVMeshComponent@@V?$allocator@PAVMeshComponent@@@std@@@std@@QAE@XZ 0040fe3a f i Mesh.obj
 0001:0000ee3a       ??0?$vector@UExtrudeMatrixInfo@ObjEd@@V?$allocator@UExtrudeMatrixInfo@ObjEd@@@std@@@std@@QAE@XZ 0040fe3a f i Mesh.obj
 0001:0000ee3a       ??0?$vector@VVertexPosNor@@V?$allocator@VVertexPosNor@@@std@@@std@@QAE@XZ 0040fe3a f i EditableMeshModelProcTex.obj
 0001:0000ee3a       ??0?$vector@VOpExtrude@OpInfo@@V?$allocator@VOpExtrude@OpInfo@@@std@@@std@@QAE@XZ 0040fe3a f i OpStack.obj
 0001:0000ee3a       ??0?$vector@V?$vector@PAVHE_vert@@V?$allocator@PAVHE_vert@@@std@@@std@@V?$allocator@V?$vector@PAVHE_vert@@V?$allocator@PAVHE_vert@@@std@@@std@@@2@@std@@QAE@XZ 0040fe3a f i Mesh.obj
 0001:0000ee3a       ??0?$vector@UExtrudeInnerInfo@ObjEd@@V?$allocator@UExtrudeInnerInfo@ObjEd@@@std@@@std@@QAE@XZ 0040fe3a f i Mesh.obj
 0001:0000ee3a       ??0?$vector@PAVStaticRigidBody@@V?$allocator@PAVStaticRigidBody@@@std@@@std@@QAE@XZ 0040fe3a f i Physics.obj
 0001:0000ee3a       ??0?$vector@VOpKnifeLine@OpInfo@@V?$allocator@VOpKnifeLine@OpInfo@@@std@@@std@@QAE@XZ 0040fe3a f i OpStack.obj
 0001:0000ee3a       ??0?$vector@PAVHE_face@@V?$allocator@PAVHE_face@@@std@@@std@@QAE@XZ 0040fe3a f i HE_vert.obj
 0001:0000ee3a       ??0?$vector@VOpBevelV@OpInfo@@V?$allocator@VOpBevelV@OpInfo@@@std@@@std@@QAE@XZ 0040fe3a f i OpStack.obj
 0001:0000ee3a       ??0?$vector@PAVRigidBody@@V?$allocator@PAVRigidBody@@@std@@@std@@QAE@XZ 0040fe3a f i Physics.obj
 0001:0000ee3a       ??0?$vector@VOpPrimCube@OpInfo@@V?$allocator@VOpPrimCube@OpInfo@@@std@@@std@@QAE@XZ 0040fe3a f i OpStack.obj
 0001:0000ee3a       ??0?$vector@VOpExtrudeInner@OpInfo@@V?$allocator@VOpExtrudeInner@OpInfo@@@std@@@std@@QAE@XZ 0040fe3a f i OpStack.obj
 0001:0000ee3a       ??0?$vector@VOpBevelE@OpInfo@@V?$allocator@VOpBevelE@OpInfo@@@std@@@std@@QAE@XZ 0040fe3a f i OpStack.obj
 0001:0000ee5e       ?push_back@?$vector@UVertPNT@@V?$allocator@UVertPNT@@@std@@@std@@QAEXABUVertPNT@@@Z 0040fe5e f i MeshComponent.obj
 0001:0000eec5       ?insert@?$vector@UVertPNT@@V?$allocator@UVertPNT@@@std@@@std@@QAE?AV?$_Vector_iterator@UVertPNT@@V?$allocator@UVertPNT@@@std@@@2@V?$_Vector_const_iterator@UVertPNT@@V?$allocator@UVertPNT@@@std@@@2@ABUVertPNT@@@Z 0040fec5 f i MeshComponent.obj
 0001:0000ef44       ?_Buy@?$vector@UVertPNT@@V?$allocator@UVertPNT@@@std@@@std@@IAE_NI@Z 0040ff44 f i MeshComponent.obj
 0001:0000ef6d       ?_Ufill@?$vector@UVertPNT@@V?$allocator@UVertPNT@@@std@@@std@@IAEPAUVertPNT@@PAU3@IABU3@@Z 0040ff6d f i MeshComponent.obj
 0001:0000ef9d       ?_Insert_n@?$vector@UVertPNT@@V?$allocator@UVertPNT@@@std@@@std@@IAEXV?$_Vector_const_iterator@UVertPNT@@V?$allocator@UVertPNT@@@std@@@2@IABUVertPNT@@@Z 0040ff9d f i MeshComponent.obj
 0001:0000f191       ??$_Umove@PAUVertPNT@@@?$vector@UVertPNT@@V?$allocator@UVertPNT@@@std@@@std@@IAEPAUVertPNT@@PAU2@00@Z 00410191 f i MeshComponent.obj
 0001:0000f1a8       ??$_Uninit_fill_n@PAUVertPNT@@IU1@V?$allocator@UVertPNT@@@std@@@std@@YAXPAUVertPNT@@IABU1@AAV?$allocator@UVertPNT@@@0@U_Nonscalar_ptr_iterator_tag@0@U_Range_checked_iterator_tag@0@@Z 004101a8 f i MeshComponent.obj
 0001:0000f1f9       ??$unchecked_uninitialized_copy@PAUVertPNT@@PAU1@V?$allocator@UVertPNT@@@std@@@stdext@@YAPAUVertPNT@@PAU1@00AAV?$allocator@UVertPNT@@@std@@@Z 004101f9 f i MeshComponent.obj
 0001:0000f21e       ??$_Uninit_copy@PAUVertPNT@@PAU1@V?$allocator@UVertPNT@@@std@@@std@@YAPAUVertPNT@@PAU1@00AAV?$allocator@UVertPNT@@@0@U_Nonscalar_ptr_iterator_tag@0@U_Range_checked_iterator_tag@0@@Z 0041021e f i MeshComponent.obj
 0001:0000f275       ??1HE_mesh@@QAE@XZ         00410275 f   MeshHalfEdge.obj
 0001:0000f3c0       ?newVertex@HE_mesh@@QAEPAVHE_vert@@ABVVertexObj@@@Z 004103c0 f   MeshHalfEdge.obj
 0001:0000f40f       ?newHalfEdge@HE_mesh@@QAEPAVHE_edge@@PAVHE_vert@@PAVHE_face@@@Z 0041040f f   MeshHalfEdge.obj
 0001:0000f47e       ?newFace@HE_mesh@@QAEPAVHE_face@@XZ 0041047e f   MeshHalfEdge.obj
 0001:0000f4c0       ?vertex@HE_mesh@@QBE?AVVertexObj@@H@Z 004104c0 f   MeshHalfEdge.obj
 0001:0000f4e0       ?face@HE_mesh@@QBE?AVFace@@H@Z 004104e0 f   MeshHalfEdge.obj
 0001:0000f63b       ?modifyVertex@HE_mesh@@QAEXHABVVertexObj@@@Z 0041063b f   MeshHalfEdge.obj
 0001:0000f657       ?nVertices@HE_mesh@@QBEHXZ 00410657 f   MeshHalfEdge.obj
 0001:0000f661       ?nEdges@Face@@QBEHXZ       00410661 f   Face.obj
 0001:0000f661       ?nFaces@HE_mesh@@QBEHXZ    00410661 f   MeshHalfEdge.obj
 0001:0000f66b       ?hvert@HE_mesh@@QBEPAVHE_vert@@H@Z 0041066b f   MeshHalfEdge.obj
 0001:0000f67a       ?hedge@HE_mesh@@QBEPAVHE_edge@@H@Z 0041067a f   MeshHalfEdge.obj
 0001:0000f689       ?numDynBodies@Physics@@ABEHXZ 00410689 f   Physics.obj
 0001:0000f689       ?nFullEdges@HE_mesh@@QBEHXZ 00410689 f   MeshHalfEdge.obj
 0001:0000f693       ?splitEdge@HE_mesh@@QAEPAVHE_vert@@PAVHE_edge@@ABVVertexObj@@@Z 00410693 f   MeshHalfEdge.obj
 0001:0000f760       ?newFullEdge@HE_mesh@@QAEXPBVHE_edge@@0@Z 00410760 f   MeshHalfEdge.obj
 0001:0000f7b8       ?recycleFullEdge@HE_mesh@@QAEXHPBVHE_edge@@0@Z 004107b8 f   MeshHalfEdge.obj
 0001:0000f7f0       ?fullEdge@HE_mesh@@QBE?AVEdge@@H@Z 004107f0 f   MeshHalfEdge.obj
 0001:0000f815       ?sharedFace@HE_mesh@@QBEPAVHE_face@@PAVHE_vert@@0@Z 00410815 f   MeshHalfEdge.obj
 0001:0000f963       ?sharedFace@HE_mesh@@QBEPAVHE_face@@PAVHE_edge@@PAVHE_vert@@@Z 00410963 f   MeshHalfEdge.obj
 0001:0000fab3       ?sharedFace@HE_mesh@@QBEPAVHE_face@@PAVHE_edge@@0@Z 00410ab3 f   MeshHalfEdge.obj
 0001:0000fc03       ?sharedFace@HE_mesh@@QBEPAVHE_face@@PAVHE_vert@@PAVHE_edge@@@Z 00410c03 f   MeshHalfEdge.obj
 0001:0000fc08       ?splitFace@HE_mesh@@QAEPAVHE_vert@@PAVHE_face@@PAV2@1@Z 00410c08 f   MeshHalfEdge.obj
 0001:0000fd40       ?checkIntegrity@HE_mesh@@QAEXXZ 00410d40 f   MeshHalfEdge.obj
 0001:0000fda6       ?bevelEnewHalfEdge@HE_mesh@@QAEPAVHE_edge@@PAVHE_vert@@@Z 00410da6 f   MeshHalfEdge.obj
 0001:0000fe05       ?fullOfhalf@HE_mesh@@QAEHPAVHE_edge@@@Z 00410e05 f   MeshHalfEdge.obj
 0001:0000fe18       ?hedgeIncidentToVertex@HE_mesh@@QBEPAVHE_edge@@HPBVHE_vert@@@Z 00410e18 f   MeshHalfEdge.obj
 0001:0000fe2c       ??A?$vector@HV?$allocator@H@std@@@std@@QBEABHI@Z 00410e2c f i BevelE.obj
 0001:0000fe2c       ??A?$vector@PAVHE_face@@V?$allocator@PAVHE_face@@@std@@@std@@QAEAAPAVHE_face@@I@Z 00410e2c f i BevelV.obj
 0001:0000fe2c       ??A?$vector@PAVHE_edge@@V?$allocator@PAVHE_edge@@@std@@@std@@QBEABQAVHE_edge@@I@Z 00410e2c f i MeshHalfEdge.obj
 0001:0000fe2c       ??A?$vector@PAVHE_vert@@V?$allocator@PAVHE_vert@@@std@@@std@@QBEABQAVHE_vert@@I@Z 00410e2c f i MeshHalfEdge.obj
 0001:0000fe2c       ??A?$vector@MV?$allocator@M@std@@@std@@QAEAAMI@Z 00410e2c f i SplineLengthMapped.obj
 0001:0000fe2c       ??A?$vector@PAVMeshComponent@@V?$allocator@PAVMeshComponent@@@std@@@std@@QAEAAPAVMeshComponent@@I@Z 00410e2c f i Mesh.obj
 0001:0000fe2c       ??A?$vector@PAVHE_vert@@V?$allocator@PAVHE_vert@@@std@@@std@@QAEAAPAVHE_vert@@I@Z 00410e2c f i BevelE.obj
 0001:0000fe2c       ??A?$vector@PAVStaticRigidBody@@V?$allocator@PAVStaticRigidBody@@@std@@@std@@QAEAAPAVStaticRigidBody@@I@Z 00410e2c f i Physics.obj
 0001:0000fe2c       ??A?$vector@PAVHE_edge@@V?$allocator@PAVHE_edge@@@std@@@std@@QAEAAPAVHE_edge@@I@Z 00410e2c f i BevelE.obj
 0001:0000fe2c       ??A?$vector@HV?$allocator@H@std@@@std@@QAEAAHI@Z 00410e2c f i DeferredEngine.obj
 0001:0000fe2c       ??A?$vector@PAVHE_face@@V?$allocator@PAVHE_face@@@std@@@std@@QBEABQAVHE_face@@I@Z 00410e2c f i MeshHalfEdge.obj
 0001:0000fe2c       ??A?$vector@PAVRigidBody@@V?$allocator@PAVRigidBody@@@std@@@std@@QAEAAPAVRigidBody@@I@Z 00410e2c f i Physics.obj
 0001:0000fe46       ??D?$_Vector_iterator@PAVHE_face@@V?$allocator@PAVHE_face@@@std@@@std@@QBEAAPAVHE_face@@XZ 00410e46 f i MeshHalfEdge.obj
 0001:0000fe70       ??G?$_Vector_iterator@PAVHE_face@@V?$allocator@PAVHE_face@@@std@@@std@@QBE?AV01@H@Z 00410e70 f i MeshHalfEdge.obj
 0001:0000fe9a       ?resize@?$vector@PAVHE_face@@V?$allocator@PAVHE_face@@@std@@@std@@QAEXIPAVHE_face@@@Z 00410e9a f i MeshHalfEdge.obj
 0001:0000ff24       ?erase@?$vector@PAVMeshComponent@@V?$allocator@PAVMeshComponent@@@std@@@std@@QAE?AV?$_Vector_iterator@PAVMeshComponent@@V?$allocator@PAVMeshComponent@@@std@@@2@V?$_Vector_const_iterator@PAVMeshComponent@@V?$allocator@PAVMeshComponent@@@std@@@2@0@Z 00410f24 f i Mesh.obj
 0001:0000ff24       ?erase@?$vector@PAVTimeForce@@V?$allocator@PAVTimeForce@@@std@@@std@@QAE?AV?$_Vector_iterator@PAVTimeForce@@V?$allocator@PAVTimeForce@@@std@@@2@V?$_Vector_const_iterator@PAVTimeForce@@V?$allocator@PAVTimeForce@@@std@@@2@0@Z 00410f24 f i RigidBodyExt.obj
 0001:0000ff24       ?erase@?$vector@PAVHE_face@@V?$allocator@PAVHE_face@@@std@@@std@@QAE?AV?$_Vector_iterator@PAVHE_face@@V?$allocator@PAVHE_face@@@std@@@2@V?$_Vector_const_iterator@PAVHE_face@@V?$allocator@PAVHE_face@@@std@@@2@0@Z 00410f24 f i MeshHalfEdge.obj
 0001:0000ff24       ?erase@?$vector@PAVTimeTorque@@V?$allocator@PAVTimeTorque@@@std@@@std@@QAE?AV?$_Vector_iterator@PAVTimeTorque@@V?$allocator@PAVTimeTorque@@@std@@@2@V?$_Vector_const_iterator@PAVTimeTorque@@V?$allocator@PAVTimeTorque@@@std@@@2@0@Z 00410f24 f i RigidBodyExt.obj
 0001:0000ff24       ?erase@?$vector@MV?$allocator@M@std@@@std@@QAE?AV?$_Vector_iterator@MV?$allocator@M@std@@@2@V?$_Vector_const_iterator@MV?$allocator@M@std@@@2@0@Z 00410f24 f i SplineLengthMapped.obj
 0001:0000ff91       ??$sort@V?$_Vector_iterator@PAVHE_face@@V?$allocator@PAVHE_face@@@std@@@std@@@std@@YAXV?$_Vector_iterator@PAVHE_face@@V?$allocator@PAVHE_face@@@std@@@0@0@Z 00410f91 f i MeshHalfEdge.obj
 0001:0000ffc0       ??$set_intersection@V?$_Vector_iterator@PAVHE_face@@V?$allocator@PAVHE_face@@@std@@@std@@V12@V12@@std@@YA?AV?$_Vector_iterator@PAVHE_face@@V?$allocator@PAVHE_face@@@std@@@0@V10@0000@Z 00410fc0 f i MeshHalfEdge.obj
 0001:0000fff2       ??$_Sort@PAPAVHE_face@@H@std@@YAXPAPAVHE_face@@0H@Z 00410ff2 f i MeshHalfEdge.obj
 0001:000100ef       ??$_Set_intersection@PAPAVHE_face@@PAPAV1@V?$_Vector_iterator@PAVHE_face@@V?$allocator@PAVHE_face@@@std@@@std@@@std@@YA?AV?$_Vector_iterator@PAVHE_face@@V?$allocator@PAVHE_face@@@std@@@0@PAPAVHE_face@@000V10@U_Range_checked_iterator_tag@0@@Z 004110ef f i MeshHalfEdge.obj
 0001:00010171       ??$_Unguarded_partition@PAPAVHE_face@@@std@@YA?AU?$pair@PAPAVHE_face@@PAPAV1@@0@PAPAVHE_face@@0@Z 00411171 f i MeshHalfEdge.obj
 0001:000102be       ??$_Insertion_sort@PAPAVHE_face@@@std@@YAXPAPAVHE_face@@0@Z 004112be f i MeshHalfEdge.obj
 0001:0001032c       ??$_Median@PAPAVHE_face@@@std@@YAXPAPAVHE_face@@00@Z 0041132c f i MeshHalfEdge.obj
 0001:000103a3       ??$_Med3@PAPAVHE_face@@@std@@YAXPAPAVHE_face@@00@Z 004113a3 f i MeshHalfEdge.obj
 0001:000103d6       ??$_Adjust_heap@PAPAVHE_face@@HPAV1@@std@@YAXPAPAVHE_face@@HHPAV1@@Z 004113d6 f i MeshHalfEdge.obj
 0001:00010433       ?load@Mesh@@QAEXAAV?$basic_fstream@DU?$char_traits@D@std@@@std@@@Z 00411433 f   MeshIO.obj
 0001:00010458       ?norScaleStart@MeshComponent@@QAE?AUNorScaleInfo@ObjEd@@H@Z 00411458 f   NormalScale.obj
 0001:0001058d       ?norScale@MeshComponent@@QAEXHAAUNorScaleInfo@ObjEd@@@Z 0041158d f   NormalScale.obj
 0001:00010613       ?loadSelectionSingleComponent@OpInfo@@YAXAAV?$basic_fstream@DU?$char_traits@D@std@@@std@@AAV?$vector@USelection@ObjEd@@V?$allocator@USelection@ObjEd@@@std@@@3@_N2H@Z 00411613 f   OpInfoIO.obj
 0001:000106fd       ?loadEdgeIntersection@OpInfo@@YAXAAV?$basic_fstream@DU?$char_traits@D@std@@@std@@AAV?$vector@UEdgeIntersection@ObjEd@@V?$allocator@UEdgeIntersection@ObjEd@@@std@@@3@@Z 004116fd f   OpInfoIO.obj
 0001:0001079a       ??0OpExtrudeMatrix@OpInfo@@QAE@ABV01@@Z 0041179a f i OpStack.obj
 0001:0001079a       ??0OpExtrude@OpInfo@@QAE@ABV01@@Z 0041179a f i OpStack.obj
 0001:0001079a       ??0OpExtrudeInner@OpInfo@@QAE@ABV01@@Z 0041179a f i OpStack.obj
 0001:0001080d       ??0OpNormScale@OpInfo@@QAE@ABV01@@Z 0041180d f i OpStack.obj
 0001:0001080d       ??0OpBevelV@OpInfo@@QAE@ABV01@@Z 0041180d f i OpStack.obj
 0001:0001087a       ??0OpTranslate@OpInfo@@QAE@ABV01@@Z 0041187a f i OpStack.obj
 0001:000108ed       ??0OpScale@OpInfo@@QAE@ABV01@@Z 004118ed f i OpStack.obj
 0001:00010969       ??1OpStack@@QAE@XZ         00411969 f   OpStack.obj
 0001:00010a77       ??0OpStack@@QAE@XZ         00411a77 f   OpStack.obj
 0001:00010af8       ?numOp@OpStack@@QBEHXZ     00411af8 f   OpStack.obj
 0001:00010afb       ?opId@OpStack@@QBEHH@Z     00411afb f   OpStack.obj
 0001:00010b0a       ?prepareReconstruction@OpStack@@QAEXXZ 00411b0a f   OpStack.obj
 0001:00010bab       ?opPrimCube@OpStack@@QAE?AVOpPrimCube@OpInfo@@H@Z 00411bab f   OpStack.obj
 0001:00010be4       ?opExt@OpStack@@QAE?AVOpExtrude@OpInfo@@H@Z 00411be4 f   OpStack.obj
 0001:00010c0d       ?opExtI@OpStack@@QAE?AVOpExtrudeInner@OpInfo@@H@Z 00411c0d f   OpStack.obj
 0001:00010c36       ?opExtM@OpStack@@QAE?AVOpExtrudeMatrix@OpInfo@@H@Z 00411c36 f   OpStack.obj
 0001:00010c5f       ?opNorS@OpStack@@QAE?AVOpNormScale@OpInfo@@H@Z 00411c5f f   OpStack.obj
 0001:00010c88       ?opBevV@OpStack@@QAE?AVOpBevelV@OpInfo@@H@Z 00411c88 f   OpStack.obj
 0001:00010cb4       ?opTrans@OpStack@@QAE?AVOpTranslate@OpInfo@@H@Z 00411cb4 f   OpStack.obj
 0001:00010ce1       ?opKniL@OpStack@@QAE?AVOpKnifeLine@OpInfo@@H@Z 00411ce1 f   OpStack.obj
 0001:00010d0e       ?opScale@OpStack@@QAE?AVOpScale@OpInfo@@H@Z 00411d0e f   OpStack.obj
 0001:00010d3b       ?opBevE@OpStack@@QAE?AVOpBevelE@OpInfo@@H@Z 00411d3b f   OpStack.obj
 0001:00010d69       ??0OpBevelE@OpInfo@@QAE@ABV01@@Z 00411d69 f i OpStack.obj
 0001:00010d82       ?clear@?$vector@VOpPrimCube@OpInfo@@V?$allocator@VOpPrimCube@OpInfo@@@std@@@std@@QAEXXZ 00411d82 f i OpStack.obj
 0001:00010dbf       ??1?$vector@VOpExtrude@OpInfo@@V?$allocator@VOpExtrude@OpInfo@@@std@@@std@@QAE@XZ 00411dbf f i OpStack.obj
 0001:00010dbf       ??1?$vector@VOpExtrudeInner@OpInfo@@V?$allocator@VOpExtrudeInner@OpInfo@@@std@@@std@@QAE@XZ 00411dbf f i OpStack.obj
 0001:00010dbf       ??1?$vector@VOpExtrudeMatrix@OpInfo@@V?$allocator@VOpExtrudeMatrix@OpInfo@@@std@@@std@@QAE@XZ 00411dbf f i OpStack.obj
 0001:00010dec       ??A?$vector@VOpExtrudeMatrix@OpInfo@@V?$allocator@VOpExtrudeMatrix@OpInfo@@@std@@@std@@QAEAAVOpExtrudeMatrix@OpInfo@@I@Z 00411dec f i OpStack.obj
 0001:00010dec       ??A?$vector@VOpExtrude@OpInfo@@V?$allocator@VOpExtrude@OpInfo@@@std@@@std@@QAEAAVOpExtrude@OpInfo@@I@Z 00411dec f i OpStack.obj
 0001:00010dec       ??A?$vector@UVertPNT@@V?$allocator@UVertPNT@@@std@@@std@@QAEAAUVertPNT@@I@Z 00411dec f i DeferredMeshModel.obj
 0001:00010dec       ??A?$vector@VOpExtrudeInner@OpInfo@@V?$allocator@VOpExtrudeInner@OpInfo@@@std@@@std@@QAEAAVOpExtrudeInner@OpInfo@@I@Z 00411dec f i OpStack.obj
 0001:00010e11       ?clear@?$vector@VOpExtrudeInner@OpInfo@@V?$allocator@VOpExtrudeInner@OpInfo@@@std@@@std@@QAEXXZ 00411e11 f i OpStack.obj
 0001:00010e11       ?clear@?$vector@VOpExtrudeMatrix@OpInfo@@V?$allocator@VOpExtrudeMatrix@OpInfo@@@std@@@std@@QAEXXZ 00411e11 f i OpStack.obj
 0001:00010e11       ?clear@?$vector@VOpExtrude@OpInfo@@V?$allocator@VOpExtrude@OpInfo@@@std@@@std@@QAEXXZ 00411e11 f i OpStack.obj
 0001:00010e4e       ??1?$vector@VOpNormScale@OpInfo@@V?$allocator@VOpNormScale@OpInfo@@@std@@@std@@QAE@XZ 00411e4e f i OpStack.obj
 0001:00010e4e       ??1?$vector@VOpBevelV@OpInfo@@V?$allocator@VOpBevelV@OpInfo@@@std@@@std@@QAE@XZ 00411e4e f i OpStack.obj
 0001:00010e4e       ??1?$vector@VOpBevelE@OpInfo@@V?$allocator@VOpBevelE@OpInfo@@@std@@@std@@QAE@XZ 00411e4e f i OpStack.obj
 0001:00010e7b       ??1?$vector@VOpKnifeLine@OpInfo@@V?$allocator@VOpKnifeLine@OpInfo@@@std@@@std@@QAE@XZ 00411e7b f i OpStack.obj
 0001:00010ea8       ??A?$vector@VOpKnifeLine@OpInfo@@V?$allocator@VOpKnifeLine@OpInfo@@@std@@@std@@QAEAAVOpKnifeLine@OpInfo@@I@Z 00411ea8 f i OpStack.obj
 0001:00010ecd       ?clear@?$vector@VOpKnifeLine@OpInfo@@V?$allocator@VOpKnifeLine@OpInfo@@@std@@@std@@QAEXXZ 00411ecd f i OpStack.obj
 0001:00010f0a       ?clear@?$vector@VOpNormScale@OpInfo@@V?$allocator@VOpNormScale@OpInfo@@@std@@@std@@QAEXXZ 00411f0a f i OpStack.obj
 0001:00010f0a       ?clear@?$vector@VOpBevelE@OpInfo@@V?$allocator@VOpBevelE@OpInfo@@@std@@@std@@QAEXXZ 00411f0a f i OpStack.obj
 0001:00010f0a       ?clear@?$vector@VOpBevelV@OpInfo@@V?$allocator@VOpBevelV@OpInfo@@@std@@@std@@QAEXXZ 00411f0a f i OpStack.obj
 0001:00010f47       ??A?$vector@VOpBevelE@OpInfo@@V?$allocator@VOpBevelE@OpInfo@@@std@@@std@@QAEAAVOpBevelE@OpInfo@@I@Z 00411f47 f i OpStack.obj
 0001:00010f47       ??A?$vector@VOpBevelV@OpInfo@@V?$allocator@VOpBevelV@OpInfo@@@std@@@std@@QAEAAVOpBevelV@OpInfo@@I@Z 00411f47 f i OpStack.obj
 0001:00010f47       ??A?$vector@VOpNormScale@OpInfo@@V?$allocator@VOpNormScale@OpInfo@@@std@@@std@@QAEAAVOpNormScale@OpInfo@@I@Z 00411f47 f i OpStack.obj
 0001:00010f69       ??1?$vector@VOpTranslate@OpInfo@@V?$allocator@VOpTranslate@OpInfo@@@std@@@std@@QAE@XZ 00411f69 f i OpStack.obj
 0001:00010f96       ??A?$vector@VOpTranslate@OpInfo@@V?$allocator@VOpTranslate@OpInfo@@@std@@@std@@QAEAAVOpTranslate@OpInfo@@I@Z 00411f96 f i OpStack.obj
 0001:00010fbb       ?clear@?$vector@VOpTranslate@OpInfo@@V?$allocator@VOpTranslate@OpInfo@@@std@@@std@@QAEXXZ 00411fbb f i OpStack.obj
 0001:00010ff8       ??1?$vector@VOpScale@OpInfo@@V?$allocator@VOpScale@OpInfo@@@std@@@std@@QAE@XZ 00411ff8 f i OpStack.obj
 0001:00011025       ??A?$vector@VOpScale@OpInfo@@V?$allocator@VOpScale@OpInfo@@@std@@@std@@QAEAAVOpScale@OpInfo@@I@Z 00412025 f i OpStack.obj
 0001:0001104a       ?clear@?$vector@VOpScale@OpInfo@@V?$allocator@VOpScale@OpInfo@@@std@@@std@@QAEXXZ 0041204a f i OpStack.obj
 0001:00011087       ?erase@?$vector@VOpPrimCube@OpInfo@@V?$allocator@VOpPrimCube@OpInfo@@@std@@@std@@QAE?AV?$_Vector_iterator@VOpPrimCube@OpInfo@@V?$allocator@VOpPrimCube@OpInfo@@@std@@@2@V?$_Vector_const_iterator@VOpPrimCube@OpInfo@@V?$allocator@VOpPrimCube@OpInfo@@@std@@@2@0@Z 00412087 f i OpStack.obj
 0001:000110db       ?_Destroy@?$vector@VOpExtrudeMatrix@OpInfo@@V?$allocator@VOpExtrudeMatrix@OpInfo@@@std@@@std@@IAEXPAVOpExtrudeMatrix@OpInfo@@0@Z 004120db f i OpStack.obj
 0001:000110db       ?_Destroy@?$vector@VOpExtrudeInner@OpInfo@@V?$allocator@VOpExtrudeInner@OpInfo@@@std@@@std@@IAEXPAVOpExtrudeInner@OpInfo@@0@Z 004120db f i OpStack.obj
 0001:000110db       ?_Destroy@?$vector@VOpExtrude@OpInfo@@V?$allocator@VOpExtrude@OpInfo@@@std@@@std@@IAEXPAVOpExtrude@OpInfo@@0@Z 004120db f i OpStack.obj
 0001:000110fa       ?_Ufill@?$vector@VOpExtrudeMatrix@OpInfo@@V?$allocator@VOpExtrudeMatrix@OpInfo@@@std@@@std@@IAEPAVOpExtrudeMatrix@OpInfo@@PAV34@IABV34@@Z 004120fa f i OpStack.obj
 0001:000110fa       ?_Ufill@?$vector@VOpExtrude@OpInfo@@V?$allocator@VOpExtrude@OpInfo@@@std@@@std@@IAEPAVOpExtrude@OpInfo@@PAV34@IABV34@@Z 004120fa f i OpStack.obj
 0001:000110fa       ?_Ufill@?$vector@VOpExtrudeInner@OpInfo@@V?$allocator@VOpExtrudeInner@OpInfo@@@std@@@std@@IAEPAVOpExtrudeInner@OpInfo@@PAV34@IABV34@@Z 004120fa f i OpStack.obj
 0001:0001112b       ?erase@?$vector@VOpExtrudeInner@OpInfo@@V?$allocator@VOpExtrudeInner@OpInfo@@@std@@@std@@QAE?AV?$_Vector_iterator@VOpExtrudeInner@OpInfo@@V?$allocator@VOpExtrudeInner@OpInfo@@@std@@@2@V?$_Vector_const_iterator@VOpExtrudeInner@OpInfo@@V?$allocator@VOpExtrudeInner@OpInfo@@@std@@@2@0@Z 0041212b f i OpStack.obj
 0001:0001112b       ?erase@?$vector@VOpExtrude@OpInfo@@V?$allocator@VOpExtrude@OpInfo@@@std@@@std@@QAE?AV?$_Vector_iterator@VOpExtrude@OpInfo@@V?$allocator@VOpExtrude@OpInfo@@@std@@@2@V?$_Vector_const_iterator@VOpExtrude@OpInfo@@V?$allocator@VOpExtrude@OpInfo@@@std@@@2@0@Z 0041212b f i OpStack.obj
 0001:0001112b       ?erase@?$vector@VOpExtrudeMatrix@OpInfo@@V?$allocator@VOpExtrudeMatrix@OpInfo@@@std@@@std@@QAE?AV?$_Vector_iterator@VOpExtrudeMatrix@OpInfo@@V?$allocator@VOpExtrudeMatrix@OpInfo@@@std@@@2@V?$_Vector_const_iterator@VOpExtrudeMatrix@OpInfo@@V?$allocator@VOpExtrudeMatrix@OpInfo@@@std@@@2@0@Z 0041212b f i OpStack.obj
 0001:0001118c       ?erase@?$vector@VOpKnifeLine@OpInfo@@V?$allocator@VOpKnifeLine@OpInfo@@@std@@@std@@QAE?AV?$_Vector_iterator@VOpKnifeLine@OpInfo@@V?$allocator@VOpKnifeLine@OpInfo@@@std@@@2@V?$_Vector_const_iterator@VOpKnifeLine@OpInfo@@V?$allocator@VOpKnifeLine@OpInfo@@@std@@@2@0@Z 0041218c f i OpStack.obj
 0001:000111ed       ?_Destroy@?$vector@VOpKnifeLine@OpInfo@@V?$allocator@VOpKnifeLine@OpInfo@@@std@@@std@@IAEXPAVOpKnifeLine@OpInfo@@0@Z 004121ed f i OpStack.obj
 0001:0001120d       ?_Ufill@?$vector@VOpKnifeLine@OpInfo@@V?$allocator@VOpKnifeLine@OpInfo@@@std@@@std@@IAEPAVOpKnifeLine@OpInfo@@PAV34@IABV34@@Z 0041220d f i OpStack.obj
 0001:0001123e       ?erase@?$vector@VOpNormScale@OpInfo@@V?$allocator@VOpNormScale@OpInfo@@@std@@@std@@QAE?AV?$_Vector_iterator@VOpNormScale@OpInfo@@V?$allocator@VOpNormScale@OpInfo@@@std@@@2@V?$_Vector_const_iterator@VOpNormScale@OpInfo@@V?$allocator@VOpNormScale@OpInfo@@@std@@@2@0@Z 0041223e f i OpStack.obj
 0001:0001123e       ?erase@?$vector@VOpBevelE@OpInfo@@V?$allocator@VOpBevelE@OpInfo@@@std@@@std@@QAE?AV?$_Vector_iterator@VOpBevelE@OpInfo@@V?$allocator@VOpBevelE@OpInfo@@@std@@@2@V?$_Vector_const_iterator@VOpBevelE@OpInfo@@V?$allocator@VOpBevelE@OpInfo@@@std@@@2@0@Z 0041223e f i OpStack.obj
 0001:0001123e       ?erase@?$vector@VOpBevelV@OpInfo@@V?$allocator@VOpBevelV@OpInfo@@@std@@@std@@QAE?AV?$_Vector_iterator@VOpBevelV@OpInfo@@V?$allocator@VOpBevelV@OpInfo@@@std@@@2@V?$_Vector_const_iterator@VOpBevelV@OpInfo@@V?$allocator@VOpBevelV@OpInfo@@@std@@@2@0@Z 0041223e f i OpStack.obj
 0001:0001129c       ?_Ufill@?$vector@VOpBevelV@OpInfo@@V?$allocator@VOpBevelV@OpInfo@@@std@@@std@@IAEPAVOpBevelV@OpInfo@@PAV34@IABV34@@Z 0041229c f i OpStack.obj
 0001:0001129c       ?_Ufill@?$vector@VOpNormScale@OpInfo@@V?$allocator@VOpNormScale@OpInfo@@@std@@@std@@IAEPAVOpNormScale@OpInfo@@PAV34@IABV34@@Z 0041229c f i OpStack.obj
 0001:000112cd       ?_Destroy@?$vector@VOpNormScale@OpInfo@@V?$allocator@VOpNormScale@OpInfo@@@std@@@std@@IAEXPAVOpNormScale@OpInfo@@0@Z 004122cd f i OpStack.obj
 0001:000112cd       ?_Destroy@?$vector@VOpBevelV@OpInfo@@V?$allocator@VOpBevelV@OpInfo@@@std@@@std@@IAEXPAVOpBevelV@OpInfo@@0@Z 004122cd f i OpStack.obj
 0001:000112cd       ?_Destroy@?$vector@VOpBevelE@OpInfo@@V?$allocator@VOpBevelE@OpInfo@@@std@@@std@@IAEXPAVOpBevelE@OpInfo@@0@Z 004122cd f i OpStack.obj
 0001:000112ec       ?_Ufill@?$vector@VOpBevelE@OpInfo@@V?$allocator@VOpBevelE@OpInfo@@@std@@@std@@IAEPAVOpBevelE@OpInfo@@PAV34@IABV34@@Z 004122ec f i OpStack.obj
 0001:0001131d       ?erase@?$vector@VOpTranslate@OpInfo@@V?$allocator@VOpTranslate@OpInfo@@@std@@@std@@QAE?AV?$_Vector_iterator@VOpTranslate@OpInfo@@V?$allocator@VOpTranslate@OpInfo@@@std@@@2@V?$_Vector_const_iterator@VOpTranslate@OpInfo@@V?$allocator@VOpTranslate@OpInfo@@@std@@@2@0@Z 0041231d f i OpStack.obj
 0001:0001137e       ?_Destroy@?$vector@VOpTranslate@OpInfo@@V?$allocator@VOpTranslate@OpInfo@@@std@@@std@@IAEXPAVOpTranslate@OpInfo@@0@Z 0041237e f i OpStack.obj
 0001:0001139d       ?_Ufill@?$vector@VOpTranslate@OpInfo@@V?$allocator@VOpTranslate@OpInfo@@@std@@@std@@IAEPAVOpTranslate@OpInfo@@PAV34@IABV34@@Z 0041239d f i OpStack.obj
 0001:000113ce       ?erase@?$vector@VOpScale@OpInfo@@V?$allocator@VOpScale@OpInfo@@@std@@@std@@QAE?AV?$_Vector_iterator@VOpScale@OpInfo@@V?$allocator@VOpScale@OpInfo@@@std@@@2@V?$_Vector_const_iterator@VOpScale@OpInfo@@V?$allocator@VOpScale@OpInfo@@@std@@@2@0@Z 004123ce f i OpStack.obj
 0001:0001142f       ?_Destroy@?$vector@VOpScale@OpInfo@@V?$allocator@VOpScale@OpInfo@@@std@@@std@@IAEXPAVOpScale@OpInfo@@0@Z 0041242f f i OpStack.obj
 0001:0001144e       ?_Ufill@?$vector@VOpScale@OpInfo@@V?$allocator@VOpScale@OpInfo@@@std@@@std@@IAEPAVOpScale@OpInfo@@PAV34@IABV34@@Z 0041244e f i OpStack.obj
 0001:0001147f       ?_Insert_n@?$vector@VOpPrimCube@OpInfo@@V?$allocator@VOpPrimCube@OpInfo@@@std@@@std@@IAEXV?$_Vector_const_iterator@VOpPrimCube@OpInfo@@V?$allocator@VOpPrimCube@OpInfo@@@std@@@2@IABVOpPrimCube@OpInfo@@@Z 0041247f f i OpStack.obj
 0001:00011663       ?_Insert_n@?$vector@VOpExtrudeInner@OpInfo@@V?$allocator@VOpExtrudeInner@OpInfo@@@std@@@std@@IAEXV?$_Vector_const_iterator@VOpExtrudeInner@OpInfo@@V?$allocator@VOpExtrudeInner@OpInfo@@@std@@@2@IABVOpExtrudeInner@OpInfo@@@Z 00412663 f i OpStack.obj
 0001:00011663       ?_Insert_n@?$vector@VOpExtrudeMatrix@OpInfo@@V?$allocator@VOpExtrudeMatrix@OpInfo@@@std@@@std@@IAEXV?$_Vector_const_iterator@VOpExtrudeMatrix@OpInfo@@V?$allocator@VOpExtrudeMatrix@OpInfo@@@std@@@2@IABVOpExtrudeMatrix@OpInfo@@@Z 00412663 f i OpStack.obj
 0001:00011663       ?_Insert_n@?$vector@VOpExtrude@OpInfo@@V?$allocator@VOpExtrude@OpInfo@@@std@@@std@@IAEXV?$_Vector_const_iterator@VOpExtrude@OpInfo@@V?$allocator@VOpExtrude@OpInfo@@@std@@@2@IABVOpExtrude@OpInfo@@@Z 00412663 f i OpStack.obj
 0001:0001187f       ?allocate@?$allocator@VOpExtrude@OpInfo@@@std@@QAEPAVOpExtrude@OpInfo@@I@Z 0041287f f i OpStack.obj
 0001:0001187f       ?allocate@?$allocator@VOpExtrudeInner@OpInfo@@@std@@QAEPAVOpExtrudeInner@OpInfo@@I@Z 0041287f f i OpStack.obj
 0001:0001187f       ?allocate@?$allocator@VOpExtrudeMatrix@OpInfo@@@std@@QAEPAVOpExtrudeMatrix@OpInfo@@I@Z 0041287f f i OpStack.obj
 0001:0001187f       ?allocate@?$allocator@UVertPNT@@@std@@QAEPAUVertPNT@@I@Z 0041287f f i MeshComponent.obj
 0001:000118b9       ?_Insert_n@?$vector@VOpNormScale@OpInfo@@V?$allocator@VOpNormScale@OpInfo@@@std@@@std@@IAEXV?$_Vector_const_iterator@VOpNormScale@OpInfo@@V?$allocator@VOpNormScale@OpInfo@@@std@@@2@IABVOpNormScale@OpInfo@@@Z 004128b9 f i OpStack.obj
 0001:000118b9       ?_Insert_n@?$vector@VOpBevelV@OpInfo@@V?$allocator@VOpBevelV@OpInfo@@@std@@@std@@IAEXV?$_Vector_const_iterator@VOpBevelV@OpInfo@@V?$allocator@VOpBevelV@OpInfo@@@std@@@2@IABVOpBevelV@OpInfo@@@Z 004128b9 f i OpStack.obj
 0001:00011aa0       ?_Insert_n@?$vector@VOpKnifeLine@OpInfo@@V?$allocator@VOpKnifeLine@OpInfo@@@std@@@std@@IAEXV?$_Vector_const_iterator@VOpKnifeLine@OpInfo@@V?$allocator@VOpKnifeLine@OpInfo@@@std@@@2@IABVOpKnifeLine@OpInfo@@@Z 00412aa0 f i OpStack.obj
 0001:00011cb4       ?allocate@?$allocator@VOpKnifeLine@OpInfo@@@std@@QAEPAVOpKnifeLine@OpInfo@@I@Z 00412cb4 f i OpStack.obj
 0001:00011cee       ?_Insert_n@?$vector@VOpBevelE@OpInfo@@V?$allocator@VOpBevelE@OpInfo@@@std@@@std@@IAEXV?$_Vector_const_iterator@VOpBevelE@OpInfo@@V?$allocator@VOpBevelE@OpInfo@@@std@@@2@IABVOpBevelE@OpInfo@@@Z 00412cee f i OpStack.obj
 0001:00011efc       ?allocate@?$allocator@VOpNormScale@OpInfo@@@std@@QAEPAVOpNormScale@OpInfo@@I@Z 00412efc f i OpStack.obj
 0001:00011efc       ?allocate@?$allocator@VOpBevelV@OpInfo@@@std@@QAEPAVOpBevelV@OpInfo@@I@Z 00412efc f i OpStack.obj
 0001:00011efc       ?allocate@?$allocator@VOpBevelE@OpInfo@@@std@@QAEPAVOpBevelE@OpInfo@@I@Z 00412efc f i OpStack.obj
 0001:00011f36       ?_Insert_n@?$vector@VOpTranslate@OpInfo@@V?$allocator@VOpTranslate@OpInfo@@@std@@@std@@IAEXV?$_Vector_const_iterator@VOpTranslate@OpInfo@@V?$allocator@VOpTranslate@OpInfo@@@std@@@2@IABVOpTranslate@OpInfo@@@Z 00412f36 f i OpStack.obj
 0001:00012152       ?allocate@?$allocator@VOpTranslate@OpInfo@@@std@@QAEPAVOpTranslate@OpInfo@@I@Z 00413152 f i OpStack.obj
 0001:0001218c       ?_Insert_n@?$vector@VOpScale@OpInfo@@V?$allocator@VOpScale@OpInfo@@@std@@@std@@IAEXV?$_Vector_const_iterator@VOpScale@OpInfo@@V?$allocator@VOpScale@OpInfo@@@std@@@2@IABVOpScale@OpInfo@@@Z 0041318c f i OpStack.obj
 0001:000123a8       ?allocate@?$allocator@VOpScale@OpInfo@@@std@@QAEPAVOpScale@OpInfo@@I@Z 004133a8 f i OpStack.obj
 0001:000123e2       ??H?$_Vector_iterator@VOpPrimCube@OpInfo@@V?$allocator@VOpPrimCube@OpInfo@@@std@@@std@@QBE?AV01@H@Z 004133e2 f i OpStack.obj
 0001:00012426       ??H?$_Vector_iterator@VOpExtrude@OpInfo@@V?$allocator@VOpExtrude@OpInfo@@@std@@@std@@QBE?AV01@H@Z 00413426 f i OpStack.obj
 0001:00012426       ??H?$_Vector_iterator@UVertPNT@@V?$allocator@UVertPNT@@@std@@@std@@QBE?AV01@H@Z 00413426 f i MeshComponent.obj
 0001:00012426       ??H?$_Vector_iterator@VOpExtrudeMatrix@OpInfo@@V?$allocator@VOpExtrudeMatrix@OpInfo@@@std@@@std@@QBE?AV01@H@Z 00413426 f i OpStack.obj
 0001:00012426       ??H?$_Vector_iterator@VOpExtrudeInner@OpInfo@@V?$allocator@VOpExtrudeInner@OpInfo@@@std@@@std@@QBE?AV01@H@Z 00413426 f i OpStack.obj
 0001:0001246e       ??H?$_Vector_iterator@VOpBevelE@OpInfo@@V?$allocator@VOpBevelE@OpInfo@@@std@@@std@@QBE?AV01@H@Z 0041346e f i OpStack.obj
 0001:0001246e       ??H?$_Vector_iterator@VOpNormScale@OpInfo@@V?$allocator@VOpNormScale@OpInfo@@@std@@@std@@QBE?AV01@H@Z 0041346e f i OpStack.obj
 0001:0001246e       ??H?$_Vector_iterator@VOpBevelV@OpInfo@@V?$allocator@VOpBevelV@OpInfo@@@std@@@std@@QBE?AV01@H@Z 0041346e f i OpStack.obj
 0001:000124b6       ??H?$_Vector_iterator@VOpKnifeLine@OpInfo@@V?$allocator@VOpKnifeLine@OpInfo@@@std@@@std@@QBE?AV01@H@Z 004134b6 f i OpStack.obj
 0001:000124fe       ??H?$_Vector_iterator@VOpTranslate@OpInfo@@V?$allocator@VOpTranslate@OpInfo@@@std@@@std@@QBE?AV01@H@Z 004134fe f i OpStack.obj
 0001:00012546       ??H?$_Vector_iterator@VOpScale@OpInfo@@V?$allocator@VOpScale@OpInfo@@@std@@@std@@QBE?AV01@H@Z 00413546 f i OpStack.obj
 0001:0001258e       ??$unchecked_copy@PAVOpPrimCube@OpInfo@@PAV12@@stdext@@YAPAVOpPrimCube@OpInfo@@PAV12@00@Z 0041358e f i OpStack.obj
 0001:000125ba       ??$unchecked_copy@PAVOpExtrude@OpInfo@@PAV12@@stdext@@YAPAVOpExtrude@OpInfo@@PAV12@00@Z 004135ba f i OpStack.obj
 0001:000125ba       ??$unchecked_copy@PAVOpExtrudeMatrix@OpInfo@@PAV12@@stdext@@YAPAVOpExtrudeMatrix@OpInfo@@PAV12@00@Z 004135ba f i OpStack.obj
 0001:000125ba       ??$unchecked_copy@PAVOpExtrudeInner@OpInfo@@PAV12@@stdext@@YAPAVOpExtrudeInner@OpInfo@@PAV12@00@Z 004135ba f i OpStack.obj
 0001:00012600       ??$unchecked_copy@PAVOpNormScale@OpInfo@@PAV12@@stdext@@YAPAVOpNormScale@OpInfo@@PAV12@00@Z 00413600 f i OpStack.obj
 0001:00012600       ??$unchecked_copy@PAVOpBevelV@OpInfo@@PAV12@@stdext@@YAPAVOpBevelV@OpInfo@@PAV12@00@Z 00413600 f i OpStack.obj
 0001:00012600       ??$unchecked_copy@PAVOpBevelE@OpInfo@@PAV12@@stdext@@YAPAVOpBevelE@OpInfo@@PAV12@00@Z 00413600 f i OpStack.obj
 0001:0001264f       ??$unchecked_copy@PAVOpKnifeLine@OpInfo@@PAV12@@stdext@@YAPAVOpKnifeLine@OpInfo@@PAV12@00@Z 0041364f f i OpStack.obj
 0001:00012696       ??$unchecked_copy@PAVOpTranslate@OpInfo@@PAV12@@stdext@@YAPAVOpTranslate@OpInfo@@PAV12@00@Z 00413696 f i OpStack.obj
 0001:000126dd       ??$unchecked_copy@PAVOpScale@OpInfo@@PAV12@@stdext@@YAPAVOpScale@OpInfo@@PAV12@00@Z 004136dd f i OpStack.obj
 0001:00012724       ??$_Umove@PAVOpPrimCube@OpInfo@@@?$vector@VOpPrimCube@OpInfo@@V?$allocator@VOpPrimCube@OpInfo@@@std@@@std@@IAEPAVOpPrimCube@OpInfo@@PAV23@00@Z 00413724 f i OpStack.obj
 0001:0001273b       ??$_Unchecked_move_backward@PAVOpExtrudeMatrix@OpInfo@@PAV12@@stdext@@YAPAVOpExtrudeMatrix@OpInfo@@PAV12@00@Z 0041373b f i OpStack.obj
 0001:0001273b       ??$_Unchecked_move_backward@PAVOpExtrudeInner@OpInfo@@PAV12@@stdext@@YAPAVOpExtrudeInner@OpInfo@@PAV12@00@Z 0041373b f i OpStack.obj
 0001:0001273b       ??$_Unchecked_move_backward@PAVOpExtrude@OpInfo@@PAV12@@stdext@@YAPAVOpExtrude@OpInfo@@PAV12@00@Z 0041373b f i OpStack.obj
 0001:0001277f       ??$_Umove@PAVOpExtrudeInner@OpInfo@@@?$vector@VOpExtrudeInner@OpInfo@@V?$allocator@VOpExtrudeInner@OpInfo@@@std@@@std@@IAEPAVOpExtrudeInner@OpInfo@@PAV23@00@Z 0041377f f i OpStack.obj
 0001:0001277f       ??$_Umove@PAVOpExtrudeMatrix@OpInfo@@@?$vector@VOpExtrudeMatrix@OpInfo@@V?$allocator@VOpExtrudeMatrix@OpInfo@@@std@@@std@@IAEPAVOpExtrudeMatrix@OpInfo@@PAV23@00@Z 0041377f f i OpStack.obj
 0001:0001277f       ??$_Umove@PAVOpExtrude@OpInfo@@@?$vector@VOpExtrude@OpInfo@@V?$allocator@VOpExtrude@OpInfo@@@std@@@std@@IAEPAVOpExtrude@OpInfo@@PAV23@00@Z 0041377f f i OpStack.obj
 0001:00012796       ??$_Umove@PAVOpBevelV@OpInfo@@@?$vector@VOpBevelV@OpInfo@@V?$allocator@VOpBevelV@OpInfo@@@std@@@std@@IAEPAVOpBevelV@OpInfo@@PAV23@00@Z 00413796 f i OpStack.obj
 0001:00012796       ??$_Umove@PAVOpNormScale@OpInfo@@@?$vector@VOpNormScale@OpInfo@@V?$allocator@VOpNormScale@OpInfo@@@std@@@std@@IAEPAVOpNormScale@OpInfo@@PAV23@00@Z 00413796 f i OpStack.obj
 0001:000127ad       ??$fill@PAVOpBevelE@OpInfo@@V12@@std@@YAXPAVOpBevelE@OpInfo@@0ABV12@@Z 004137ad f i OpStack.obj
 0001:000127ad       ??$fill@PAVOpBevelV@OpInfo@@V12@@std@@YAXPAVOpBevelV@OpInfo@@0ABV12@@Z 004137ad f i OpStack.obj
 0001:000127ad       ??$fill@PAVOpNormScale@OpInfo@@V12@@std@@YAXPAVOpNormScale@OpInfo@@0ABV12@@Z 004137ad f i OpStack.obj
 0001:000127d4       ??$_Umove@PAVOpKnifeLine@OpInfo@@@?$vector@VOpKnifeLine@OpInfo@@V?$allocator@VOpKnifeLine@OpInfo@@@std@@@std@@IAEPAVOpKnifeLine@OpInfo@@PAV23@00@Z 004137d4 f i OpStack.obj
 0001:000127eb       ??$_Unchecked_move_backward@PAVOpKnifeLine@OpInfo@@PAV12@@stdext@@YAPAVOpKnifeLine@OpInfo@@PAV12@00@Z 004137eb f i OpStack.obj
 0001:00012830       ??$_Umove@PAVOpBevelE@OpInfo@@@?$vector@VOpBevelE@OpInfo@@V?$allocator@VOpBevelE@OpInfo@@@std@@@std@@IAEPAVOpBevelE@OpInfo@@PAV23@00@Z 00413830 f i OpStack.obj
 0001:00012847       ??$_Unchecked_move_backward@PAVOpBevelV@OpInfo@@PAV12@@stdext@@YAPAVOpBevelV@OpInfo@@PAV12@00@Z 00413847 f i OpStack.obj
 0001:00012847       ??$_Unchecked_move_backward@PAVOpBevelE@OpInfo@@PAV12@@stdext@@YAPAVOpBevelE@OpInfo@@PAV12@00@Z 00413847 f i OpStack.obj
 0001:00012847       ??$_Unchecked_move_backward@PAVOpNormScale@OpInfo@@PAV12@@stdext@@YAPAVOpNormScale@OpInfo@@PAV12@00@Z 00413847 f i OpStack.obj
 0001:00012896       ??$_Umove@PAVOpTranslate@OpInfo@@@?$vector@VOpTranslate@OpInfo@@V?$allocator@VOpTranslate@OpInfo@@@std@@@std@@IAEPAVOpTranslate@OpInfo@@PAV23@00@Z 00413896 f i OpStack.obj
 0001:000128ad       ??$_Unchecked_move_backward@PAVOpTranslate@OpInfo@@PAV12@@stdext@@YAPAVOpTranslate@OpInfo@@PAV12@00@Z 004138ad f i OpStack.obj
 0001:000128f2       ??$_Umove@PAVOpScale@OpInfo@@@?$vector@VOpScale@OpInfo@@V?$allocator@VOpScale@OpInfo@@@std@@@std@@IAEPAVOpScale@OpInfo@@PAV23@00@Z 004138f2 f i OpStack.obj
 0001:00012909       ??$_Unchecked_move_backward@PAVOpScale@OpInfo@@PAV12@@stdext@@YAPAVOpScale@OpInfo@@PAV12@00@Z 00413909 f i OpStack.obj
 0001:0001294e       ??$unchecked_uninitialized_copy@PAVOpPrimCube@OpInfo@@PAV12@V?$allocator@VOpPrimCube@OpInfo@@@std@@@stdext@@YAPAVOpPrimCube@OpInfo@@PAV12@00AAV?$allocator@VOpPrimCube@OpInfo@@@std@@@Z 0041394e f i OpStack.obj
 0001:00012973       ??$unchecked_uninitialized_copy@PAVOpExtrude@OpInfo@@PAV12@V?$allocator@VOpExtrude@OpInfo@@@std@@@stdext@@YAPAVOpExtrude@OpInfo@@PAV12@00AAV?$allocator@VOpExtrude@OpInfo@@@std@@@Z 00413973 f i OpStack.obj
 0001:00012973       ??$unchecked_uninitialized_copy@PAVOpExtrudeMatrix@OpInfo@@PAV12@V?$allocator@VOpExtrudeMatrix@OpInfo@@@std@@@stdext@@YAPAVOpExtrudeMatrix@OpInfo@@PAV12@00AAV?$allocator@VOpExtrudeMatrix@OpInfo@@@std@@@Z 00413973 f i OpStack.obj
 0001:00012973       ??$unchecked_uninitialized_copy@PAVOpExtrudeInner@OpInfo@@PAV12@V?$allocator@VOpExtrudeInner@OpInfo@@@std@@@stdext@@YAPAVOpExtrudeInner@OpInfo@@PAV12@00AAV?$allocator@VOpExtrudeInner@OpInfo@@@std@@@Z 00413973 f i OpStack.obj
 0001:00012999       ??$unchecked_uninitialized_copy@PAVOpBevelV@OpInfo@@PAV12@V?$allocator@VOpBevelV@OpInfo@@@std@@@stdext@@YAPAVOpBevelV@OpInfo@@PAV12@00AAV?$allocator@VOpBevelV@OpInfo@@@std@@@Z 00413999 f i OpStack.obj
 0001:00012999       ??$unchecked_uninitialized_copy@PAVOpNormScale@OpInfo@@PAV12@V?$allocator@VOpNormScale@OpInfo@@@std@@@stdext@@YAPAVOpNormScale@OpInfo@@PAV12@00AAV?$allocator@VOpNormScale@OpInfo@@@std@@@Z 00413999 f i OpStack.obj
 0001:000129bf       ??$unchecked_uninitialized_copy@PAVOpKnifeLine@OpInfo@@PAV12@V?$allocator@VOpKnifeLine@OpInfo@@@std@@@stdext@@YAPAVOpKnifeLine@OpInfo@@PAV12@00AAV?$allocator@VOpKnifeLine@OpInfo@@@std@@@Z 004139bf f i OpStack.obj
 0001:000129e5       ??$unchecked_uninitialized_copy@PAVOpBevelE@OpInfo@@PAV12@V?$allocator@VOpBevelE@OpInfo@@@std@@@stdext@@YAPAVOpBevelE@OpInfo@@PAV12@00AAV?$allocator@VOpBevelE@OpInfo@@@std@@@Z 004139e5 f i OpStack.obj
 0001:00012a0b       ??$unchecked_uninitialized_copy@PAVOpTranslate@OpInfo@@PAV12@V?$allocator@VOpTranslate@OpInfo@@@std@@@stdext@@YAPAVOpTranslate@OpInfo@@PAV12@00AAV?$allocator@VOpTranslate@OpInfo@@@std@@@Z 00413a0b f i OpStack.obj
 0001:00012a31       ??$unchecked_uninitialized_copy@PAVOpScale@OpInfo@@PAV12@V?$allocator@VOpScale@OpInfo@@@std@@@stdext@@YAPAVOpScale@OpInfo@@PAV12@00AAV?$allocator@VOpScale@OpInfo@@@std@@@Z 00413a31 f i OpStack.obj
 0001:00012a57       ??$_Uninit_fill_n@PAVOpExtrudeMatrix@OpInfo@@IV12@V?$allocator@VOpExtrudeMatrix@OpInfo@@@std@@@std@@YAXPAVOpExtrudeMatrix@OpInfo@@IABV12@AAV?$allocator@VOpExtrudeMatrix@OpInfo@@@0@U_Nonscalar_ptr_iterator_tag@0@U_Range_checked_iterator_tag@0@@Z 00413a57 f i OpStack.obj
 0001:00012a57       ??$_Uninit_fill_n@PAVOpExtrude@OpInfo@@IV12@V?$allocator@VOpExtrude@OpInfo@@@std@@@std@@YAXPAVOpExtrude@OpInfo@@IABV12@AAV?$allocator@VOpExtrude@OpInfo@@@0@U_Nonscalar_ptr_iterator_tag@0@U_Range_checked_iterator_tag@0@@Z 00413a57 f i OpStack.obj
 0001:00012a57       ??$_Uninit_fill_n@PAVOpExtrudeInner@OpInfo@@IV12@V?$allocator@VOpExtrudeInner@OpInfo@@@std@@@std@@YAXPAVOpExtrudeInner@OpInfo@@IABV12@AAV?$allocator@VOpExtrudeInner@OpInfo@@@0@U_Nonscalar_ptr_iterator_tag@0@U_Range_checked_iterator_tag@0@@Z 00413a57 f i OpStack.obj
 0001:00012aca       ??$_Uninit_fill_n@PAVOpKnifeLine@OpInfo@@IV12@V?$allocator@VOpKnifeLine@OpInfo@@@std@@@std@@YAXPAVOpKnifeLine@OpInfo@@IABV12@AAV?$allocator@VOpKnifeLine@OpInfo@@@0@U_Nonscalar_ptr_iterator_tag@0@U_Range_checked_iterator_tag@0@@Z 00413aca f i OpStack.obj
 0001:00012b36       ??$_Uninit_fill_n@PAVOpNormScale@OpInfo@@IV12@V?$allocator@VOpNormScale@OpInfo@@@std@@@std@@YAXPAVOpNormScale@OpInfo@@IABV12@AAV?$allocator@VOpNormScale@OpInfo@@@0@U_Nonscalar_ptr_iterator_tag@0@U_Range_checked_iterator_tag@0@@Z 00413b36 f i OpStack.obj
 0001:00012b36       ??$_Uninit_fill_n@PAVOpBevelV@OpInfo@@IV12@V?$allocator@VOpBevelV@OpInfo@@@std@@@std@@YAXPAVOpBevelV@OpInfo@@IABV12@AAV?$allocator@VOpBevelV@OpInfo@@@0@U_Nonscalar_ptr_iterator_tag@0@U_Range_checked_iterator_tag@0@@Z 00413b36 f i OpStack.obj
 0001:00012ba9       ??$_Uninit_fill_n@PAVOpBevelE@OpInfo@@IV12@V?$allocator@VOpBevelE@OpInfo@@@std@@@std@@YAXPAVOpBevelE@OpInfo@@IABV12@AAV?$allocator@VOpBevelE@OpInfo@@@0@U_Nonscalar_ptr_iterator_tag@0@U_Range_checked_iterator_tag@0@@Z 00413ba9 f i OpStack.obj
 0001:00012c1a       ??$_Uninit_fill_n@PAVOpTranslate@OpInfo@@IV12@V?$allocator@VOpTranslate@OpInfo@@@std@@@std@@YAXPAVOpTranslate@OpInfo@@IABV12@AAV?$allocator@VOpTranslate@OpInfo@@@0@U_Nonscalar_ptr_iterator_tag@0@U_Range_checked_iterator_tag@0@@Z 00413c1a f i OpStack.obj
 0001:00012c8d       ??$_Uninit_fill_n@PAVOpScale@OpInfo@@IV12@V?$allocator@VOpScale@OpInfo@@@std@@@std@@YAXPAVOpScale@OpInfo@@IABV12@AAV?$allocator@VOpScale@OpInfo@@@0@U_Nonscalar_ptr_iterator_tag@0@U_Range_checked_iterator_tag@0@@Z 00413c8d f i OpStack.obj
 0001:00012d00       ??4OpExtrudeInner@OpInfo@@QAEAAV01@ABV01@@Z 00413d00 f i OpStack.obj
 0001:00012d00       ??4OpExtrudeMatrix@OpInfo@@QAEAAV01@ABV01@@Z 00413d00 f i OpStack.obj
 0001:00012d00       ??4OpExtrude@OpInfo@@QAEAAV01@ABV01@@Z 00413d00 f i OpStack.obj
 0001:00012d20       ??4OpTranslate@OpInfo@@QAEAAV01@ABV01@@Z 00413d20 f i OpStack.obj
 0001:00012d49       ??4OpScale@OpInfo@@QAEAAV01@ABV01@@Z 00413d49 f i OpStack.obj
 0001:00012d7b       ??$_Uninit_copy@PAUD3DXVECTOR2@@PAU1@V?$allocator@UD3DXVECTOR2@@@std@@@std@@YAPAUD3DXVECTOR2@@PAU1@00AAV?$allocator@UD3DXVECTOR2@@@0@U_Nonscalar_ptr_iterator_tag@0@U_Range_checked_iterator_tag@0@@Z 00413d7b f i SplineLengthMapped.obj
 0001:00012d7b       ??$_Uninit_copy@PAVOpPrimCube@OpInfo@@PAV12@V?$allocator@VOpPrimCube@OpInfo@@@std@@@std@@YAPAVOpPrimCube@OpInfo@@PAV12@00AAV?$allocator@VOpPrimCube@OpInfo@@@0@U_Nonscalar_ptr_iterator_tag@0@U_Range_checked_iterator_tag@0@@Z 00413d7b f i OpStack.obj
 0001:00012d7b       ??$_Uninit_copy@PAVPrecision@@PAV1@V?$allocator@VPrecision@@@std@@@std@@YAPAVPrecision@@PAV1@00AAV?$allocator@VPrecision@@@0@U_Nonscalar_ptr_iterator_tag@0@U_Range_checked_iterator_tag@0@@Z 00413d7b f i Physics.obj
 0001:00012dd4       ??$_Uninit_copy@PAVOpExtrudeMatrix@OpInfo@@PAV12@V?$allocator@VOpExtrudeMatrix@OpInfo@@@std@@@std@@YAPAVOpExtrudeMatrix@OpInfo@@PAV12@00AAV?$allocator@VOpExtrudeMatrix@OpInfo@@@0@U_Nonscalar_ptr_iterator_tag@0@U_Range_checked_iterator_tag@0@@Z 00413dd4 f i OpStack.obj
 0001:00012dd4       ??$_Uninit_copy@PAVOpExtrudeInner@OpInfo@@PAV12@V?$allocator@VOpExtrudeInner@OpInfo@@@std@@@std@@YAPAVOpExtrudeInner@OpInfo@@PAV12@00AAV?$allocator@VOpExtrudeInner@OpInfo@@@0@U_Nonscalar_ptr_iterator_tag@0@U_Range_checked_iterator_tag@0@@Z 00413dd4 f i OpStack.obj
 0001:00012dd4       ??$_Uninit_copy@PAVOpExtrude@OpInfo@@PAV12@V?$allocator@VOpExtrude@OpInfo@@@std@@@std@@YAPAVOpExtrude@OpInfo@@PAV12@00AAV?$allocator@VOpExtrude@OpInfo@@@0@U_Nonscalar_ptr_iterator_tag@0@U_Range_checked_iterator_tag@0@@Z 00413dd4 f i OpStack.obj
 0001:00012e48       ??$_Uninit_copy@PAVOpNormScale@OpInfo@@PAV12@V?$allocator@VOpNormScale@OpInfo@@@std@@@std@@YAPAVOpNormScale@OpInfo@@PAV12@00AAV?$allocator@VOpNormScale@OpInfo@@@0@U_Nonscalar_ptr_iterator_tag@0@U_Range_checked_iterator_tag@0@@Z 00413e48 f i OpStack.obj
 0001:00012e48       ??$_Uninit_copy@PAVOpBevelV@OpInfo@@PAV12@V?$allocator@VOpBevelV@OpInfo@@@std@@@std@@YAPAVOpBevelV@OpInfo@@PAV12@00AAV?$allocator@VOpBevelV@OpInfo@@@0@U_Nonscalar_ptr_iterator_tag@0@U_Range_checked_iterator_tag@0@@Z 00413e48 f i OpStack.obj
 0001:00012ebc       ??$_Uninit_copy@PAVOpKnifeLine@OpInfo@@PAV12@V?$allocator@VOpKnifeLine@OpInfo@@@std@@@std@@YAPAVOpKnifeLine@OpInfo@@PAV12@00AAV?$allocator@VOpKnifeLine@OpInfo@@@0@U_Nonscalar_ptr_iterator_tag@0@U_Range_checked_iterator_tag@0@@Z 00413ebc f i OpStack.obj
 0001:00012f2b       ??$_Uninit_copy@PAVOpBevelE@OpInfo@@PAV12@V?$allocator@VOpBevelE@OpInfo@@@std@@@std@@YAPAVOpBevelE@OpInfo@@PAV12@00AAV?$allocator@VOpBevelE@OpInfo@@@0@U_Nonscalar_ptr_iterator_tag@0@U_Range_checked_iterator_tag@0@@Z 00413f2b f i OpStack.obj
 0001:00012fa0       ??$_Uninit_copy@PAVOpTranslate@OpInfo@@PAV12@V?$allocator@VOpTranslate@OpInfo@@@std@@@std@@YAPAVOpTranslate@OpInfo@@PAV12@00AAV?$allocator@VOpTranslate@OpInfo@@@0@U_Nonscalar_ptr_iterator_tag@0@U_Range_checked_iterator_tag@0@@Z 00413fa0 f i OpStack.obj
 0001:00013015       ??$_Uninit_copy@PAVOpScale@OpInfo@@PAV12@V?$allocator@VOpScale@OpInfo@@@std@@@std@@YAPAVOpScale@OpInfo@@PAV12@00AAV?$allocator@VOpScale@OpInfo@@@0@U_Nonscalar_ptr_iterator_tag@0@U_Range_checked_iterator_tag@0@@Z 00414015 f i OpStack.obj
 0001:0001308a       ??5OpInfo@@YAAAV?$basic_fstream@DU?$char_traits@D@std@@@std@@AAV12@AAVOpKnifeLine@0@@Z 0041408a f i OpStackIO.obj
 0001:0001311a       ?load@OpStack@@QAEXAAV?$basic_fstream@DU?$char_traits@D@std@@@std@@@Z 0041411a f   OpStackIO.obj
 0001:000136c1       ?resize@?$vector@VOpPrimCube@OpInfo@@V?$allocator@VOpPrimCube@OpInfo@@@std@@@std@@QAEXIVOpPrimCube@OpInfo@@@Z 004146c1 f i OpStackIO.obj
 0001:00013742       ?resize@?$vector@VOpExtrudeInner@OpInfo@@V?$allocator@VOpExtrudeInner@OpInfo@@@std@@@std@@QAEXIVOpExtrudeInner@OpInfo@@@Z 00414742 f i OpStackIO.obj
 0001:00013742       ?resize@?$vector@VOpExtrude@OpInfo@@V?$allocator@VOpExtrude@OpInfo@@@std@@@std@@QAEXIVOpExtrude@OpInfo@@@Z 00414742 f i OpStackIO.obj
 0001:00013742       ?resize@?$vector@VOpExtrudeMatrix@OpInfo@@V?$allocator@VOpExtrudeMatrix@OpInfo@@@std@@@std@@QAEXIVOpExtrudeMatrix@OpInfo@@@Z 00414742 f i OpStackIO.obj
 0001:000137dd       ?resize@?$vector@VOpBevelV@OpInfo@@V?$allocator@VOpBevelV@OpInfo@@@std@@@std@@QAEXIVOpBevelV@OpInfo@@@Z 004147dd f i OpStackIO.obj
 0001:000137dd       ?resize@?$vector@VOpNormScale@OpInfo@@V?$allocator@VOpNormScale@OpInfo@@@std@@@std@@QAEXIVOpNormScale@OpInfo@@@Z 004147dd f i OpStackIO.obj
 0001:00013872       ?resize@?$vector@VOpKnifeLine@OpInfo@@V?$allocator@VOpKnifeLine@OpInfo@@@std@@@std@@QAEXIVOpKnifeLine@OpInfo@@@Z 00414872 f i OpStackIO.obj
 0001:00013904       ?resize@?$vector@VOpBevelE@OpInfo@@V?$allocator@VOpBevelE@OpInfo@@@std@@@std@@QAEXIVOpBevelE@OpInfo@@@Z 00414904 f i OpStackIO.obj
 0001:00013998       ?resize@?$vector@VOpTranslate@OpInfo@@V?$allocator@VOpTranslate@OpInfo@@@std@@@std@@QAEXIVOpTranslate@OpInfo@@@Z 00414998 f i OpStackIO.obj
 0001:00013a33       ?resize@?$vector@VOpScale@OpInfo@@V?$allocator@VOpScale@OpInfo@@@std@@@std@@QAEXIVOpScale@OpInfo@@@Z 00414a33 f i OpStackIO.obj
 0001:00013ace       ??0VertexObj@@QAE@UD3DXVECTOR3@@@Z 00414ace f   vertex.obj
 0001:00013ade       ??0DeferredMeshModel@@QAE@AAV?$vector@UVertPNT@@V?$allocator@UVertPNT@@@std@@@std@@AAUD3DXCOLOR@@PAUID3D10Device@@@Z 00414ade f   DeferredMeshModel.obj
 0001:00013b46       ??0?$DxMeshModel@UVertPNT@@@@QAE@HHQBUVertPNT@@@Z 00414b46 f i DeferredMeshModel.obj
 0001:00013bd5       ??0?$DxMeshModelBatch@UVertPNT@@@@QAE@HW4D3D_PRIMITIVE_TOPOLOGY@@@Z 00414bd5 f i DeferredMeshModel.obj
 0001:00013bd5       ??0?$DxMeshModelBatch@VVertPNT@@@@QAE@HW4D3D_PRIMITIVE_TOPOLOGY@@@Z 00414bd5 f i Terrain.obj
 0001:00013bf3       ?createVB@?$DxMeshModelBatch@VVertPNT@@@@QAE_NXZ 00414bf3 f i Terrain.obj
 0001:00013bf3       ?createVB@?$DxMeshModelBatch@UVertPNT@@@@QAE_NXZ 00414bf3 f i DeferredMeshModel.obj
 0001:00013c4f       ??4?$vector@UVertPNT@@V?$allocator@UVertPNT@@@std@@@std@@QAEAAV01@ABV01@@Z 00414c4f f i DeferredMeshModel.obj
 0001:00013d68       ?resize@?$vector@UVertPNT@@V?$allocator@UVertPNT@@@std@@@std@@QAEXI@Z 00414d68 f i DeferredMeshModel.obj
 0001:00013d8b       ?_Construct_n@?$vector@UVertPNT@@V?$allocator@UVertPNT@@@std@@@std@@QAEXIABUVertPNT@@@Z 00414d8b f i DeferredMeshModel.obj
 0001:00013e08       ?resize@?$vector@UVertPNT@@V?$allocator@UVertPNT@@@std@@@std@@QAEXIUVertPNT@@@Z 00414e08 f i DeferredMeshModel.obj
 0001:00013e93       ?erase@?$vector@UVertPNT@@V?$allocator@UVertPNT@@@std@@@std@@QAE?AV?$_Vector_iterator@UVertPNT@@V?$allocator@UVertPNT@@@std@@@2@V?$_Vector_const_iterator@UVertPNT@@V?$allocator@UVertPNT@@@std@@@2@0@Z 00414e93 f i DeferredMeshModel.obj
 0001:00013ee7       ??$unchecked_copy@PAUVertPNT@@PAU1@@stdext@@YAPAUVertPNT@@PAU1@00@Z 00414ee7 f i DeferredMeshModel.obj
 0001:00013f1e       ??1ShaderMatrix@@QAE@XZ    00414f1e f i EditableMeshModelProcTex.obj
 0001:00013f1e       ??1ShadeRawValue@@QAE@XZ   00414f1e f i EditableMeshModelProcTex.obj
 0001:00013f1e       ??1ShaderResource@@QAE@XZ  00414f1e f i EditableMeshModelProcTex.obj
 0001:00013f24       ??1Shader@@QAE@XZ          00414f24 f i EditableMeshModelProcTex.obj
 0001:00013f6a       ??4?$vector@VVertexPosNor@@V?$allocator@VVertexPosNor@@@std@@@std@@QAEAAV01@ABV01@@Z 00414f6a f i EditableMeshModelProcTex.obj
 0001:00014083       ?erase@?$vector@VVertexPosNor@@V?$allocator@VVertexPosNor@@@std@@@std@@QAE?AV?$_Vector_iterator@VVertexPosNor@@V?$allocator@VVertexPosNor@@@std@@@2@V?$_Vector_const_iterator@VVertexPosNor@@V?$allocator@VVertexPosNor@@@std@@@2@0@Z 00415083 f i EditableMeshModelProcTex.obj
 0001:000140d7       ?_Insert_n@?$vector@VVertexPosNor@@V?$allocator@VVertexPosNor@@@std@@@std@@IAEXV?$_Vector_const_iterator@VVertexPosNor@@V?$allocator@VVertexPosNor@@@std@@@2@IABVVertexPosNor@@@Z 004150d7 f i EditableMeshModelProcTex.obj
 0001:000142b2       ?_Ufill@?$vector@VVertexPosNor@@V?$allocator@VVertexPosNor@@@std@@@std@@IAEPAVVertexPosNor@@PAV3@IABV3@@Z 004152b2 f i EditableMeshModelProcTex.obj
 0001:000142e2       ??H?$_Vector_iterator@VVertexPosNor@@V?$allocator@VVertexPosNor@@@std@@@std@@QBE?AV01@H@Z 004152e2 f i EditableMeshModelProcTex.obj
 0001:0001432a       ??$unchecked_copy@PAVVertexPosNor@@PAV1@@stdext@@YAPAVVertexPosNor@@PAV1@00@Z 0041532a f i EditableMeshModelProcTex.obj
 0001:00014361       ??$_Umove@PAVVertexPosNor@@@?$vector@VVertexPosNor@@V?$allocator@VVertexPosNor@@@std@@@std@@IAEPAVVertexPosNor@@PAV2@00@Z 00415361 f i EditableMeshModelProcTex.obj
 0001:00014378       ??$unchecked_uninitialized_copy@PAVVertexPosNor@@PAV1@V?$allocator@VVertexPosNor@@@std@@@stdext@@YAPAVVertexPosNor@@PAV1@00AAV?$allocator@VVertexPosNor@@@std@@@Z 00415378 f i EditableMeshModelProcTex.obj
 0001:0001439d       ??$_Uninit_fill_n@PAVVertexPosNor@@IV1@V?$allocator@VVertexPosNor@@@std@@@std@@YAXPAVVertexPosNor@@IABV1@AAV?$allocator@VVertexPosNor@@@0@U_Nonscalar_ptr_iterator_tag@0@U_Range_checked_iterator_tag@0@@Z 0041539d f i EditableMeshModelProcTex.obj
 0001:000143ee       ??$_Uninit_copy@PAVVertexPosNor@@PAV1@V?$allocator@VVertexPosNor@@@std@@@std@@YAPAVVertexPosNor@@PAV1@00AAV?$allocator@VVertexPosNor@@@0@U_Nonscalar_ptr_iterator_tag@0@U_Range_checked_iterator_tag@0@@Z 004153ee f i EditableMeshModelProcTex.obj
 0001:00014445       ?s2ws@WinIO@@YA?AV?$basic_string@_WU?$char_traits@_W@std@@V?$allocator@_W@2@@std@@ABV?$basic_string@DU?$char_traits@D@std@@V?$allocator@D@2@@3@@Z 00415445 f   WindowsHelpers.obj
 0001:000144c4       ?unitVector@DxMath@@YA?AUD3DXVECTOR3@@U2@0@Z 004154c4 f   DxMathHelpers.obj
 0001:000144ec       ?normalOfTriangle@DxMath@@YA?AUD3DXVECTOR3@@U2@00@Z 004154ec f   DxMathHelpers.obj
 0001:00014568       ?equalsZero@DxMath@@YA_NABUD3DXVECTOR3@@@Z 00415568 f   DxMathHelpers.obj
 0001:000145a4       ?equality@DxMath@@YA_NABUD3DXVECTOR3@@0M@Z 004155a4 f   DxMathHelpers.obj
 0001:000145ea       ?clean@DxMath@@YAXAAMM@Z   004155ea f   DxMathHelpers.obj
 0001:000145fe       ?clean@DxMath@@YAXAAUD3DXVECTOR3@@@Z 004155fe f   DxMathHelpers.obj
 0001:0001463f       ?clean@DxMath@@YAXAAUD3DXVECTOR3@@M@Z 0041563f f   DxMathHelpers.obj
 0001:0001467c       ?reverse@DxMath@@YAXAAUD3DXVECTOR3@@@Z 0041567c f   DxMathHelpers.obj
 0001:000146bd       ?equality@DxMath@@YA_NMMM@Z 004156bd f   DxMathHelpers.obj
 0001:000146d5       ?greaterThan@DxMath@@YA_NMMM@Z 004156d5 f   DxMathHelpers.obj
 0001:00014703       ?lesserThan@DxMath@@YA_NMMM@Z 00415703 f   DxMathHelpers.obj
 0001:00014731       ?areCoplanar@DxMath@@YA_NABUD3DXVECTOR3@@000@Z 00415731 f   DxMathHelpers.obj
 0001:000147b7       ?areTrianglesCoplanar@DxMath@@YA_NABUTriangle@1@0@Z 004157b7 f   DxMathHelpers.obj
 0001:000147fa       ?distance@Intersections@@YAMAAUD3DXVECTOR3@@0@Z 004157fa f   Intersections.obj
 0001:0001481f       ?areCollinear@Intersections@@YA_NAAUD3DXVECTOR3@@00@Z 0041581f f   Intersections.obj
 0001:00014860       ?distancePointToSegment@Intersections@@YAMUD3DXVECTOR3@@00@Z 00415860 f   Intersections.obj
 0001:00014918       ??0Plane@Intersections@@QAE@UD3DXVECTOR3@@00@Z 00415918 f   Intersections.obj
 0001:00014973       ?normal@Plane@Intersections@@QAE?AUD3DXVECTOR3@@XZ 00415973 f   Intersections.obj
 0001:0001497f       ?implicitD@Plane@Intersections@@QAEMXZ 0041597f f   Intersections.obj
 0001:00014997       ?planeBy3Points@Plane@Intersections@@SA?AV12@UD3DXVECTOR3@@00@Z 00415997 f   Intersections.obj
 0001:00014a05       ?pointInTriangle@Intersections@@YA_NABUD3DXVECTOR3@@000M@Z 00415a05 f   Intersections.obj
 0001:00014b3e       ?addEdge@SimpleGraph@@QAEXHHH@Z 00415b3e f   SimpleGraph.obj
 0001:00014ba5       ??0SimpleGraph@@QAE@XZ     00415ba5 f   SimpleGraph.obj
 0001:00014bca       ?verticesOfDegree@SimpleGraph@@QBE?AV?$vector@HV?$allocator@H@std@@@std@@H@Z 00415bca f   SimpleGraph.obj
 0001:00014c18       ?verticesOfDegreeAbove@SimpleGraph@@QBE?AV?$vector@HV?$allocator@H@std@@@std@@H@Z 00415c18 f   SimpleGraph.obj
 0001:00014c67       ?edgesOfVertex@SimpleGraph@@QBE?AV?$vector@HV?$allocator@H@std@@@std@@H@Z 00415c67 f   SimpleGraph.obj
 0001:00014c83       ?degreeOfVertex@SimpleGraph@@QBEHH@Z 00415c83 f   SimpleGraph.obj
 0001:00014c9a       ?resize@?$vector@V?$vector@HV?$allocator@H@std@@@std@@V?$allocator@V?$vector@HV?$allocator@H@std@@@std@@@2@@std@@QAEXIV?$vector@HV?$allocator@H@std@@@2@@Z 00415c9a f i SimpleGraph.obj
 0001:00014d63       ?_Insert_n@?$vector@V?$vector@HV?$allocator@H@std@@@std@@V?$allocator@V?$vector@HV?$allocator@H@std@@@std@@@2@@std@@IAEXV?$_Vector_const_iterator@V?$vector@HV?$allocator@H@std@@@std@@V?$allocator@V?$vector@HV?$allocator@H@std@@@std@@@2@@2@IABV?$vector@HV?$allocator@H@std@@@2@@Z 00415d63 f i SimpleGraph.obj
 0001:00014f76       ?_Ufill@?$vector@V?$vector@HV?$allocator@H@std@@@std@@V?$allocator@V?$vector@HV?$allocator@H@std@@@std@@@2@@std@@IAEPAV?$vector@HV?$allocator@H@std@@@2@PAV32@IABV32@@Z 00415f76 f i SimpleGraph.obj
 0001:00014fa7       ??$_Umove@PAV?$vector@HV?$allocator@H@std@@@std@@@?$vector@V?$vector@HV?$allocator@H@std@@@std@@V?$allocator@V?$vector@HV?$allocator@H@std@@@std@@@2@@std@@IAEPAV?$vector@HV?$allocator@H@std@@@1@PAV21@00@Z 00415fa7 f i SimpleGraph.obj
 0001:00014fcf       ??$_Uninit_fill_n@PAV?$vector@HV?$allocator@H@std@@@std@@IV12@V?$allocator@V?$vector@HV?$allocator@H@std@@@std@@@2@@std@@YAXPAV?$vector@HV?$allocator@H@std@@@0@IABV10@AAV?$allocator@V?$vector@HV?$allocator@H@std@@@std@@@0@U_Nonscalar_ptr_iterator_tag@0@U_Range_checked_iterator_tag@0@@Z 00415fcf f i SimpleGraph.obj
 0001:00015042       ??$_Uninit_move@PAV?$vector@HV?$allocator@H@std@@@std@@PAV12@V?$allocator@V?$vector@HV?$allocator@H@std@@@std@@@2@@std@@YAPAV?$vector@HV?$allocator@H@std@@@0@PAV10@00AAV?$allocator@V?$vector@HV?$allocator@H@std@@@std@@@0@U_Swap_move_tag@0@U_Range_checked_iterator_tag@0@@Z 00416042 f i SimpleGraph.obj
 0001:000150db       ?DeleteEnclosingTriangle@IncDelaunay@@QAEXXZ 004160db f   Delaunay.obj
 0001:000150f4       ?DeleteEdgesAndFacesFromBoundary@IncDelaunay@@QAEXHHH@Z 004160f4 f   Delaunay.obj
 0001:00015205       ?DeleteEdgesOfVertex@IncDelaunay@@QAEXH@Z 00416205 f   Delaunay.obj
 0001:000152b5       ?DeleteEdge@IncDelaunay@@AAEXH@Z 004162b5 f   Delaunay.obj
 0001:0001530e       ?Vertex_ListEdgesAndFaces@IncDelaunay@@QAEXHAAV?$vector@HV?$allocator@H@std@@@std@@0@Z 0041630e f   Delaunay.obj
 0001:0001539b       ?Compute_Edge_of_Vertex@IncDelaunay@@QAEXXZ 0041639b f   Delaunay.obj
 0001:000153e4       ??0IncDelaunay@@QAE@XZ     004163e4 f   Delaunay.obj
 0001:0001543d       ?LocatePointInFace@IncDelaunay@@AAEHUD3DXVECTOR3@@@Z 0041643d f   Delaunay.obj
 0001:0001546b       ?LocatePointInFace_Recursive@IncDelaunay@@AAEHUD3DXVECTOR3@@H0H@Z 0041646b f   Delaunay.obj
 0001:00015593       ?FaceBarycenter@IncDelaunay@@AAE?AUD3DXVECTOR3@@H@Z 00416593 f   Delaunay.obj
 0001:00015616       ?Face_ListEdgesAndVertices@IncDelaunay@@QAEXHQAH0@Z 00416616 f   Delaunay.obj
 0001:000156b7       ?edgeContainsVertices@IncDelaunay@@AAE_NHHH@Z 004166b7 f   Delaunay.obj
 0001:00015700       ?updateEdge_FaceAndPointer@IncDelaunay@@AAEXHHHHH@Z 00416700 f   Delaunay.obj
 0001:00015749       ?FlipTest@IncDelaunay@@AAEXHHHH@Z 00416749 f   Delaunay.obj
 0001:00015b47       ?FlipPending@IncDelaunay@@QAEXXZ 00416b47 f   Delaunay.obj
 0001:00015bc8       ?AddPoint@IncDelaunay@@QAEXUD3DXVECTOR3@@@Z 00416bc8 f   Delaunay.obj
 0001:00015d32       ?Init@IncDelaunay@@QAEXHV?$vector@UD3DXVECTOR3@@V?$allocator@UD3DXVECTOR3@@@std@@@std@@@Z 00416d32 f   Delaunay.obj
 0001:00015fa4       ?InitEdge@IncDelaunay@@AAEXHHHHHHH@Z 00416fa4 f   Delaunay.obj
 0001:00015ffa       ?AddFace@IncDelaunay@@AAEHH@Z 00416ffa f   Delaunay.obj
 0001:00016047       ?DeleteFace@IncDelaunay@@AAEXH@Z 00417047 f   Delaunay.obj
 0001:00016077       ?IsFaceValid@IncDelaunay@@QAE_NH@Z 00417077 f   Delaunay.obj
 0001:00016097       ?AddEdge@IncDelaunay@@AAEHXZ 00417097 f   Delaunay.obj
 0001:000160ce       ?AddVertex@IncDelaunay@@AAEHUD3DXVECTOR3@@@Z 004170ce f   Delaunay.obj
 0001:000160f6       ?DelaunayEnclosingTriangle@@YA?AV?$vector@UD3DXVECTOR3@@V?$allocator@UD3DXVECTOR3@@@std@@@std@@M@Z 004170f6 f   Delaunay.obj
 0001:00016168       ??1?$vector@VOpPrimCube@OpInfo@@V?$allocator@VOpPrimCube@OpInfo@@@std@@@std@@QAE@XZ 00417168 f i OpStack.obj
 0001:00016168       ??1?$vector@PAVRigidBody@@V?$allocator@PAVRigidBody@@@std@@@std@@QAE@XZ 00417168 f i Physics.obj
 0001:00016168       ??1?$vector@UPairBodies@@V?$allocator@UPairBodies@@@std@@@std@@QAE@XZ 00417168 f i Physics.obj
 0001:00016168       ??1?$vector@PAVDeferredMeshModel@@V?$allocator@PAVDeferredMeshModel@@@std@@@std@@QAE@XZ 00417168 f i Mesh.obj
 0001:00016168       ??1?$vector@MV?$allocator@M@std@@@std@@QAE@XZ 00417168 f i SplineLengthMapped.obj
 0001:00016168       ??1?$vector@UVertPNT@@V?$allocator@UVertPNT@@@std@@@std@@QAE@XZ 00417168 f i MeshComponent.obj
 0001:00016168       ??1?$vector@PAV?$LineListModel@UD3DXVECTOR3@@@@V?$allocator@PAV?$LineListModel@UD3DXVECTOR3@@@@@std@@@std@@QAE@XZ 00417168 f i Game.obj
 0001:00016168       ??1?$vector@UEdgeIntersection@ObjEd@@V?$allocator@UEdgeIntersection@ObjEd@@@std@@@std@@QAE@XZ 00417168 f i Mesh.obj
 0001:00016168       ??1?$vector@UD3DXVECTOR2@@V?$allocator@UD3DXVECTOR2@@@std@@@std@@QAE@XZ 00417168 f i SplineLengthMapped.obj
 0001:00016168       ??1?$vector@UBevelEIntermidiateSharedNEdge@MeshComponent@@V?$allocator@UBevelEIntermidiateSharedNEdge@MeshComponent@@@std@@@std@@QAE@XZ 00417168 f i BevelE.obj
 0001:00016168       ??1?$vector@PAVHeightZone@@V?$allocator@PAVHeightZone@@@std@@@std@@QAE@XZ 00417168 f i HeightFunction.obj
 0001:00016168       ??1?$vector@VPrecision@@V?$allocator@VPrecision@@@std@@@std@@QAE@XZ 00417168 f i Physics.obj
 0001:00016168       ??1?$vector@IV?$allocator@I@std@@@std@@QAE@XZ 00417168 f i BaseDX.obj
 0001:00016168       ??1?$vector@VVertexPosNor@@V?$allocator@VVertexPosNor@@@std@@@std@@QAE@XZ 00417168 f i EditableMeshModelProcTex.obj
 0001:00016168       ??1?$vector@PAVRigidBodyExt@@V?$allocator@PAVRigidBodyExt@@@std@@@std@@QAE@XZ 00417168 f i Physics.obj
 0001:00016168       ??1?$vector@UBevelESharedNEdgeGroup@MeshComponent@@V?$allocator@UBevelESharedNEdgeGroup@MeshComponent@@@std@@@std@@QAE@XZ 00417168 f i BevelE.obj
 0001:00016168       ??1?$vector@VDcelEdge@@V?$allocator@VDcelEdge@@@std@@@std@@QAE@XZ 00417168 f i Delaunay.obj
 0001:0001618b       ??4?$vector@VDcelEdge@@V?$allocator@VDcelEdge@@@std@@@std@@QAEAAV01@ABV01@@Z 0041718b f i Delaunay.obj
 0001:00016271       ??A?$vector@VDcelEdge@@V?$allocator@VDcelEdge@@@std@@@std@@QAEAAVDcelEdge@@I@Z 00417271 f i Delaunay.obj
 0001:00016296       ??4?$vector@IV?$allocator@I@std@@@std@@QAEAAV01@ABV01@@Z 00417296 f i Delaunay.obj
 0001:00016390       ?_Construct_n@?$vector@VDcelEdge@@V?$allocator@VDcelEdge@@@std@@@std@@QAEXIABVDcelEdge@@@Z 00417390 f i Delaunay.obj
 0001:00016429       ?clear@?$vector@VDcelEdge@@V?$allocator@VDcelEdge@@@std@@@std@@QAEXXZ 00417429 f i Delaunay.obj
 0001:0001648d       ?_Buy@?$vector@VDcelEdge@@V?$allocator@VDcelEdge@@@std@@@std@@IAE_NI@Z 0041748d f i Delaunay.obj
 0001:00016507       ??$unchecked_copy@PAVDcelEdge@@PAV1@@stdext@@YAPAVDcelEdge@@PAV1@00@Z 00417507 f i Delaunay.obj
 0001:0001653e       ??$_Ucopy@PAVDcelEdge@@@?$vector@VDcelEdge@@V?$allocator@VDcelEdge@@@std@@@std@@IAEPAVDcelEdge@@PAV2@00@Z 0041753e f i Delaunay.obj
 0001:00016565       ??$_Uninit_fill_n@PAVDcelEdge@@IV1@V?$allocator@VDcelEdge@@@std@@@std@@YAXPAVDcelEdge@@IABV1@AAV?$allocator@VDcelEdge@@@0@U_Nonscalar_ptr_iterator_tag@0@U_Range_checked_iterator_tag@0@@Z 00417565 f i Delaunay.obj
 0001:000165b6       ??$_Uninit_copy@PAVDcelEdge@@PAV1@V?$allocator@VDcelEdge@@@std@@@std@@YAPAVDcelEdge@@PAV1@00AAV?$allocator@VDcelEdge@@@0@U_Nonscalar_ptr_iterator_tag@0@U_Range_checked_iterator_tag@0@@Z 004175b6 f i Delaunay.obj
 0001:0001660d       ?signed_area@DelaunayHelpers@@YAMUD3DXVECTOR3@@00@Z 0041760d f   DelaunayHelpers.obj
 0001:00016636       ?third_is_in_between@DelaunayHelpers@@YA_NUD3DXVECTOR3@@00@Z 00417636 f   DelaunayHelpers.obj
 0001:000166a6       ?point_to_circumference_alignment@DelaunayHelpers@@YAMUD3DXVECTOR3@@000@Z 004176a6 f   DelaunayHelpers.obj
 0001:00016744       ?Segment_intersection@DelaunayHelpers@@YA_NUD3DXVECTOR3@@000@Z 00417744 f   DelaunayHelpers.obj
 0001:00016a68       ??0SplineLengthMapped@@QAE@PAUStoredSplineDesc@@@Z 00417a68 f   SplineLengthMapped.obj
 0001:00016b12       ??1SplineLengthMapped@@QAE@XZ 00417b12 f   SplineLengthMapped.obj
 0001:00016b25       ?computeLengths@SplineLengthMapped@@AAEXXZ 00417b25 f   SplineLengthMapped.obj
 0001:00016bc5       ?getPoint@SplineLengthMapped@@QAEMM@Z 00417bc5 f   SplineLengthMapped.obj
 0001:00016cc6       ?resize@?$vector@MV?$allocator@M@std@@@std@@QAEXIM@Z 00417cc6 f i SplineLengthMapped.obj
 0001:00016d7d       ?allocate@?$allocator@UD3DXVECTOR2@@@std@@QAEPAUD3DXVECTOR2@@I@Z 00417d7d f i SplineLengthMapped.obj
 0001:00016d7d       ?allocate@?$allocator@VOpPrimCube@OpInfo@@@std@@QAEPAVOpPrimCube@OpInfo@@I@Z 00417d7d f i OpStack.obj
 0001:00016d7d       ?allocate@?$allocator@VPrecision@@@std@@QAEPAVPrecision@@I@Z 00417d7d f i Physics.obj
 0001:00016db9       ?_Insert_n@?$vector@MV?$allocator@M@std@@@std@@IAEXV?$_Vector_const_iterator@MV?$allocator@M@std@@@2@IABM@Z 00417db9 f i SplineLengthMapped.obj
 0001:00016f98       ?_Ufill@?$vector@MV?$allocator@M@std@@@std@@IAEPAMPAMIABM@Z 00417f98 f i SplineLengthMapped.obj
 0001:00016fb8       ?Init@Shader@@QAEXPAUShaderClassData@@@Z 00417fb8 f   Shader.obj
 0001:000170a1       ?Compile@Shader@@QAE_NXZ   004180a1 f   Shader.obj
 0001:000171e7       ?SetResource@Shader@@QAEXPAV?$basic_string@DU?$char_traits@D@std@@V?$allocator@D@2@@std@@PAUID3D10ShaderResourceView@@@Z 004181e7 f   Shader.obj
 0001:00017235       ?SetMatrix@Shader@@QAEXPAV?$basic_string@DU?$char_traits@D@std@@V?$allocator@D@2@@std@@PBUD3DXMATRIX@@@Z 00418235 f   Shader.obj
 0001:00017280       ?SetRawValue@Shader@@QAEXPAV?$basic_string@DU?$char_traits@D@std@@V?$allocator@D@2@@std@@PAMH@Z 00418280 f   Shader.obj
 0001:000172d9       ??0Shader@@QAE@XZ          004182d9 f i ShaderManager.obj
 0001:0001732f       ??0ShaderManager@@QAE@PAUID3D10Device@@@Z 0041832f f   ShaderManager.obj
 0001:0001733f       ?init@ShaderManager@@AAE_NPAUID3D10Device@@@Z 0041833f f   ShaderManager.obj
 0001:000173ad       ?initWorleyTexture@ShaderManager@@AAE_NXZ 004183ad f   ShaderManager.obj
 0001:0001747b       ?noise@Noise3d@1@QAENABUD3DXVECTOR3@@0@Z 0041847b f   Noise3d.obj
 0001:000174a4       ?noise@Noise3d@1@QAENABUD3DXVECTOR3@@@Z 004184a4 f   Noise3d.obj
 0001:000177b2       ?fade@Noise3d@1@QAENN@Z    004187b2 f   Noise3d.obj
 0001:000177d5       ?lerp@Noise3d@1@QAENNNN@Z  004187d5 f   Noise3d.obj
 0001:000177e8       ??0Noise3d@0@QAE@XZ        004187e8 f   Noise3d.obj
 0001:00017845       ?grad@Noise3d@1@QAENHNNN@Z 00418845 f   Noise3d.obj
 0001:0001788a       ?genrand_int32@Mersenne@1@QAEKXZ 0041888a f i RandomNumberGenerator.obj
 0001:00017977       ??0RandGen@Rand@@QAE@K@Z   00418977 f   RandomNumberGenerator.obj
 0001:000179bb       ?randFloat_0_1@RandGen@Rand@@QAEMXZ 004189bb f   RandomNumberGenerator.obj
 0001:000179d9       ?randFloat_minus1_1@RandGen@Rand@@QAEMXZ 004189d9 f   RandomNumberGenerator.obj
 0001:000179fd       ?randInt@RandGen@Rand@@QAEHH@Z 004189fd f   RandomNumberGenerator.obj
 0001:00017a0d       ?genPermutations@RandGen@Rand@@QAE?AV?$vector@HV?$allocator@H@std@@@std@@H@Z 00418a0d f   RandomNumberGenerator.obj
 0001:00017a73       ??0Game@@QAE@AAVDeferredEngine@@@Z 00418a73 f   Game.obj
 0001:00017cde       ??1Game@@QAE@XZ            00418cde f   Game.obj
 0001:00017d6b       ?drawScene@Game@@QAEXXZ    00418d6b f   Game.obj
 0001:00017d73       ?keyboard@Game@@QAEXABV?$vector@_NV?$allocator@_N@std@@@std@@ABVMouse@@M@Z 00418d73 f   Game.obj
 0001:00017def       ?update@Game@@QAEXM@Z      00418def f   Game.obj
 0001:00017e14       ?startGame@Game@@AAEXXZ    00418e14 f   Game.obj
 0001:00017e8c       ?keyboardShipPlayer@Game@@QAEXABV?$vector@_NV?$allocator@_N@std@@@std@@M@Z 00418e8c f   Game.obj
 0001:00017efd       ?mouseShipPlayer@Game@@QAEXABVMouse@@M@Z 00418efd f   Game.obj
 0001:00017f42       ?numTriangles@Game@@QBEHXZ 00418f42 f   Game.obj
 0001:00017f48       ?displayConvexHulls@Game@@QBEXXZ 00418f48 f   Game.obj
 0001:00017f53       ??1DeferredMeshModel@@QAE@XZ 00418f53 f i DeferredMeshModel.obj
 0001:00017f53       ??1?$auto_ptr@V?$DxMeshModelBatch@VVertPNT@@@@@std@@QAE@XZ 00418f53 f i Game.obj
 0001:00017f6d       ??1?$auto_ptr@VTerrain@@@std@@QAE@XZ 00418f6d f i Game.obj
 0001:00017f8a       ?push_back@?$vector@VVertexPosNor@@V?$allocator@VVertexPosNor@@@std@@@std@@QAEXABVVertexPosNor@@@Z 00418f8a f i Game.obj
 0001:00017ff1       ??_GWorldTerrain@@QAEPAXI@Z 00418ff1 f i Game.obj
 0001:00018048       ??_GConvexHull2d@@QAEPAXI@Z 00419048 f i Game.obj
 0001:0001806c       ?insert@?$vector@VVertexPosNor@@V?$allocator@VVertexPosNor@@@std@@@std@@QAE?AV?$_Vector_iterator@VVertexPosNor@@V?$allocator@VVertexPosNor@@@std@@@2@V?$_Vector_const_iterator@VVertexPosNor@@V?$allocator@VVertexPosNor@@@std@@@2@ABVVertexPosNor@@@Z 0041906c f i Game.obj
 0001:000180e9       ??0GameContext@@QAE@AAVGameInitObjects@@@Z 004190e9 f   GameContext.obj
 0001:00018114       ??1GameContext@@QAE@XZ     00419114 f   GameContext.obj
 0001:00018130       ?_keyboard@GameContext@@UAEXABV?$vector@_NV?$allocator@_N@std@@@std@@ABVMouse@@M@Z 00419130 f   GameContext.obj
 0001:0001814a       ?_update@GameContext@@UAEXM@Z 0041914a f   GameContext.obj
 0001:0001815d       ?_drawScene@GameContext@@UAEXXZ 0041915d f   GameContext.obj
 0001:00018165       ?currentState@GameContext@@UAEXPAVGameState@@@Z 00419165 f   GameContext.obj
 0001:00018168       ??0GameStateWorld@@QAE@AAVGameInitObjects@@@Z 00419168 f   GameStateWorld.obj
 0001:00018204       ??1GameStateWorld@@QAE@XZ  00419204 f   GameStateWorld.obj
 0001:00018247       ?_keyboard@GameStateWorld@@UAEXABV?$vector@_NV?$allocator@_N@std@@@std@@ABVMouse@@M@Z 00419247 f   GameStateWorld.obj
 0001:00018278       ?_update@GameStateWorld@@UAEXM@Z 00419278 f   GameStateWorld.obj
 0001:000182e3       ?_drawScene@GameStateWorld@@UAEXXZ 004192e3 f   GameStateWorld.obj
 0001:00018554       ?display@?$DxMeshModelBatch@VVertPNT@@@@QAEXXZ 00419554 f i GameStateWorld.obj
 0001:00018554       ?display@?$DxMeshModelBatch@UVertPNT@@@@QAEXXZ 00419554 f i DeferredMeshModel.obj
 0001:00018554       ?display@?$DxMeshModelBatch@UD3DXVECTOR3@@@@QAEXXZ 00419554 f i WorldTerrain.obj
 0001:0001859d       ?compute@Terrain@@QAE?AV?$auto_ptr@V?$DxMeshModelBatch@VVertPNT@@@@@std@@XZ 0041959d f   Terrain.obj
 0001:000185c3       ?configure@Terrain@@QAEXXZ 004195c3 f   Terrain.obj
 0001:000185d2       ?pointsAdd@Terrain@@AAEXAAUD3DXVECTOR3@@@Z 004195d2 f   Terrain.obj
 0001:000185d7       ?pointsSeaBase@Terrain@@QAEXABV?$vector@UD3DXVECTOR3@@V?$allocator@UD3DXVECTOR3@@@std@@@std@@@Z 004195d7 f   Terrain.obj
 0001:000186c0       ?computeTriangulation@Terrain@@AAE?AV?$auto_ptr@V?$DxMeshModelBatch@VVertPNT@@@@@std@@XZ 004196c0 f   Terrain.obj
 0001:00018a7b       ?addMeshModel@?$DxMeshModelBatch@VVertPNT@@@@QAEXPAV?$DxMeshModel@UVertPNT@@@@@Z 00419a7b f i Terrain.obj
 0001:00018a7b       ?addMeshModel@?$DxMeshModelBatch@UVertPNT@@@@QAEXPAV?$DxMeshModel@UVertPNT@@@@@Z 00419a7b f i DeferredMeshModel.obj
 0001:00018b0b       ??1Ship@@QAE@XZ            00419b0b f   Ship.obj
 0001:00018b5f       ??0Ship@@QAE@AAVPhysics@@ABUD3DXVECTOR3@@ABVShipDescription@@@Z 00419b5f f   Ship.obj
 0001:00018e19       ?update@Ship@@QAEXM@Z      00419e19 f   Ship.obj
 0001:00018e90       ?moveFwd@Ship@@QAEX_NM@Z   00419e90 f   Ship.obj
 0001:00018eba       ?moveBck@Ship@@QAEX_NM@Z   00419eba f   Ship.obj
 0001:00018ee4       ?moveLft@Ship@@QAEX_NM@Z   00419ee4 f   Ship.obj
 0001:00018f0e       ?moveRgt@Ship@@QAEX_NM@Z   00419f0e f   Ship.obj
 0001:00018f38       ?turnLeft@Ship@@QAEX_NM@Z  00419f38 f   Ship.obj
 0001:00018f62       ?turnRight@Ship@@QAEX_NM@Z 00419f62 f   Ship.obj
 0001:00018f8c       ?pointingUnit@Ship@@QBE?AUD3DXVECTOR3@@XZ 00419f8c f   Ship.obj
 0001:00018f9b       ??4?$auto_ptr@VTimeForce@@@std@@QAEAAV01@U?$auto_ptr_ref@VTimeForce@@@1@@Z 00419f9b f i Ship.obj
 0001:00018fc8       ??1?$auto_ptr@VTimeForce@@@std@@QAE@XZ 00419fc8 f i Ship.obj
 0001:00018fe0       ??4?$auto_ptr@VTimeTorque@@@std@@QAEAAV01@U?$auto_ptr_ref@VTimeTorque@@@1@@Z 00419fe0 f i Ship.obj
 0001:0001900d       ??1?$auto_ptr@VTimeTorque@@@std@@QAE@XZ 0041a00d f i Ship.obj
 0001:00019025       ??_GRigidBody@@QAEPAXI@Z   0041a025 f i Ship.obj
 0001:00019041       ??1?$auto_ptr@VSplineLengthMapped@@@std@@QAE@XZ 0041a041 f i Ship.obj
 0001:00019056       ??0MeshCol@@QAE@ABV?$vector@VVertexPosNor@@V?$allocator@VVertexPosNor@@@std@@@std@@@Z 0041a056 f   MeshCol.obj
 0001:00019083       ?nFaces@MeshCol@@QBEHXZ    0041a083 f   MeshCol.obj
 0001:00019097       ?triangularFace@MeshCol@@QAEPBVVertexPosNor@@H@Z 0041a097 f   MeshCol.obj
 0001:0001910f       ?computeBoundingSphere@MeshCol@@AAEXXZ 0041a10f f   MeshCol.obj
 0001:000191ea       ?boundingSphere@MeshCol@@QBE?AVBoundingSphere@Intersections@@XZ 0041a1ea f   MeshCol.obj
 0001:000191fa       ??0Physics@@QAE@XZ         0041a1fa f   Physics.obj
 0001:000192de       ?setParameters@Physics@@QAEXMM@Z 0041a2de f   Physics.obj
 0001:000192ec       ??1Physics@@QAE@XZ         0041a2ec f   Physics.obj
 0001:0001934d       ?createStaticRigidBody@Physics@@QAEXPAVMeshCol@@@Z 0041a34d f   Physics.obj
 0001:00019399       ?createRigidBody@Physics@@QAE?AV?$auto_ptr@VRigidBody@@@std@@ABUD3DXVECTOR3@@MMMM@Z 0041a399 f   Physics.obj
 0001:00019527       ?resolveCollision@Physics@@AAEXPAVRigidBody@@0ABUContact@@@Z 0041a527 f   Physics.obj
 0001:0001988c       ?resolveCollision@Physics@@AAEXPAVRigidBody@@PAVStaticRigidBody@@ABUContact@@@Z 0041a88c f   Physics.obj
 0001:00019a6b       ?computeContact@Physics@@AAE?AUContact@@PAVRigidBody@@0@Z 0041aa6b f   Physics.obj
 0001:00019af6       ?interpenetrationOfContact@Physics@@AAEHPAVRigidBody@@0ABUContact@@@Z 0041aaf6 f   Physics.obj
 0001:00019b7e       ?interpenetrationOfContact@Physics@@AAEHPAVRigidBody@@PAVStaticRigidBody@@AAUContact@@AAM@Z 0041ab7e f   Physics.obj
 0001:00019c13       ?pointVelocity@Physics@@AAE?AUD3DXVECTOR3@@PAVRigidBody@@U2@@Z 0041ac13 f   Physics.obj
 0001:00019ca8       ?numStaBodies@Physics@@ABEHXZ 0041aca8 f   Physics.obj
 0001:00019cbb       ?initStaticStructures@Physics@@QAEXXZ 0041acbb f   Physics.obj
 0001:00019d7c       ?limitVelocities@Physics@@AAEXAAV?$vector@PAVRigidBody@@V?$allocator@PAVRigidBody@@@std@@@std@@@Z 0041ad7c f   Physics.obj
 0001:00019dae       ?fixContactDegeneracies@Physics@@AAEXPAVRigidBody@@ABUContact@@@Z 0041adae f   Physics.obj
 0001:00019deb       ?storeRestingContact@Physics@@AAEXPAVRigidBody@@ABUContact@@@Z 0041adeb f   Physics.obj
 0001:00019e26       ?narrowCollision@Physics@@AAE_NPAVRigidBody@@PAVStaticRigidBody@@MAAUContact@@_NM@Z 0041ae26 f   Physics.obj
 0001:00019ef9       ?advanceSimulation@Physics@@QAEXM@Z 0041aef9 f   Physics.obj
 0001:00019f6e       ?advanceSimulationWithMaxStep@Physics@@AAEXM@Z 0041af6e f   Physics.obj
 0001:0001a24f       ??0RigidBody@@QAE@ABV0@@Z  0041b24f f i Physics.obj
 0001:0001a2ee       ??4RigidBody@@QAEAAV0@ABV0@@Z 0041b2ee f i Physics.obj
 0001:0001a38b       ?tryToAdvanceSimulation@Physics@@AAEXMAAV?$vector@PAVRigidBody@@V?$allocator@PAVRigidBody@@@std@@@std@@@Z 0041b38b f   Physics.obj
 0001:0001a3fb       ?checkContacts@Physics@@AAEXAAV?$vector@PAVRigidBody@@V?$allocator@PAVRigidBody@@@std@@@std@@@Z 0041b3fb f   Physics.obj
 0001:0001a458       ?applySimulationStep@Physics@@AAEXAAV?$vector@PAVRigidBody@@V?$allocator@PAVRigidBody@@@std@@@std@@@Z 0041b458 f   Physics.obj
 0001:0001a4f2       ?updateContactList@Physics@@AAEXXZ 0041b4f2 f   Physics.obj
 0001:0001a667       ?findContacts@Physics@@AAE_NAAV?$vector@PAVRigidBody@@V?$allocator@PAVRigidBody@@@std@@@std@@AAUPairBodies@@AAUContact@@AAHAA_N@Z 0041b667 f   Physics.obj
 0001:0001a98e       ?narrowCollision@Physics@@AAE_NPAVRigidBody@@0MAAUContact@@@Z 0041b98e f   Physics.obj
 0001:0001a9fb       ?findFirstTimeOfContact@Physics@@AAEMMAAV?$vector@PAVRigidBody@@V?$allocator@PAVRigidBody@@@std@@@std@@AAUPairBodies@@AAUContact@@AA_NAAH@Z 0041b9fb f   Physics.obj
 0001:0001ac11       ??A?$vector@VPrecision@@V?$allocator@VPrecision@@@std@@@std@@QAEAAVPrecision@@I@Z 0041bc11 f i Physics.obj
 0001:0001ac11       ??A?$vector@UD3DXVECTOR2@@V?$allocator@UD3DXVECTOR2@@@std@@@std@@QAEAAUD3DXVECTOR2@@I@Z 0041bc11 f i SplineLengthMapped.obj
 0001:0001ac11       ??A?$vector@UBevelESharedNEdgeGroup@MeshComponent@@V?$allocator@UBevelESharedNEdgeGroup@MeshComponent@@@std@@@std@@QAEAAUBevelESharedNEdgeGroup@MeshComponent@@I@Z 0041bc11 f i BevelE.obj
 0001:0001ac2b       ??0?$vector@PAVRigidBody@@V?$allocator@PAVRigidBody@@@std@@@std@@QAE@I@Z 0041bc2b f i Physics.obj
 0001:0001ac5a       ?push_back@?$vector@PAVStaticRigidBody@@V?$allocator@PAVStaticRigidBody@@@std@@@std@@QAEXABQAVStaticRigidBody@@@Z 0041bc5a f i Physics.obj
 0001:0001acb8       ?resize@?$vector@UPairBodies@@V?$allocator@UPairBodies@@@std@@@std@@QAEXI@Z 0041bcb8 f i Physics.obj
 0001:0001ad0f       ??A?$vector@UPairBodies@@V?$allocator@UPairBodies@@@std@@@std@@QAEAAUPairBodies@@I@Z 0041bd0f f i Physics.obj
 0001:0001ad34       ?push_back@?$vector@UPairBodies@@V?$allocator@UPairBodies@@@std@@@std@@QAEXABUPairBodies@@@Z 0041bd34 f i Physics.obj
 0001:0001ad9b       ?resize@?$vector@UD3DXVECTOR2@@V?$allocator@UD3DXVECTOR2@@@std@@@std@@QAEXIUD3DXVECTOR2@@@Z 0041bd9b f i SplineLengthMapped.obj
 0001:0001ad9b       ?resize@?$vector@VPrecision@@V?$allocator@VPrecision@@@std@@@std@@QAEXIVPrecision@@@Z 0041bd9b f i Physics.obj
 0001:0001ae4a       ?_Construct_n@?$vector@IV?$allocator@I@std@@@std@@QAEXIABI@Z 0041be4a f i BaseDX.obj
 0001:0001ae4a       ?_Construct_n@?$vector@PAVRigidBody@@V?$allocator@PAVRigidBody@@@std@@@std@@QAEXIABQAVRigidBody@@@Z 0041be4a f i Physics.obj
 0001:0001aec7       ?insert@?$vector@PAVDeferredMeshModel@@V?$allocator@PAVDeferredMeshModel@@@std@@@std@@QAE?AV?$_Vector_iterator@PAVDeferredMeshModel@@V?$allocator@PAVDeferredMeshModel@@@std@@@2@V?$_Vector_const_iterator@PAVDeferredMeshModel@@V?$allocator@PAVDeferredMeshModel@@@std@@@2@ABQAVDeferredMeshModel@@@Z 0041bec7 f i Mesh.obj
 0001:0001aec7       ?insert@?$vector@PAVRigidBody@@V?$allocator@PAVRigidBody@@@std@@@std@@QAE?AV?$_Vector_iterator@PAVRigidBody@@V?$allocator@PAVRigidBody@@@std@@@2@V?$_Vector_const_iterator@PAVRigidBody@@V?$allocator@PAVRigidBody@@@std@@@2@ABQAVRigidBody@@@Z 0041bec7 f i Physics.obj
 0001:0001af72       ?insert@?$vector@PAVStaticRigidBody@@V?$allocator@PAVStaticRigidBody@@@std@@@std@@QAE?AV?$_Vector_iterator@PAVStaticRigidBody@@V?$allocator@PAVStaticRigidBody@@@std@@@2@V?$_Vector_const_iterator@PAVStaticRigidBody@@V?$allocator@PAVStaticRigidBody@@@std@@@2@ABQAVStaticRigidBody@@@Z 0041bf72 f i Physics.obj
 0001:0001afe9       ?clear@?$vector@PAVStaticRigidBody@@V?$allocator@PAVStaticRigidBody@@@std@@@std@@QAEXXZ 0041bfe9 f i Physics.obj
 0001:0001afe9       ?clear@?$vector@PAVDeferredMeshModel@@V?$allocator@PAVDeferredMeshModel@@@std@@@std@@QAEXXZ 0041bfe9 f i GameStateWorld.obj
 0001:0001afe9       ?clear@?$vector@PAVRigidBody@@V?$allocator@PAVRigidBody@@@std@@@std@@QAEXXZ 0041bfe9 f i RigidBodyOde.obj
 0001:0001b04e       ?insert@?$vector@UPairBodies@@V?$allocator@UPairBodies@@@std@@@std@@QAE?AV?$_Vector_iterator@UPairBodies@@V?$allocator@UPairBodies@@@std@@@2@V?$_Vector_const_iterator@UPairBodies@@V?$allocator@UPairBodies@@@std@@@2@ABUPairBodies@@@Z 0041c04e f i Physics.obj
 0001:0001b0cd       ?_Ufill@?$vector@UPairBodies@@V?$allocator@UPairBodies@@@std@@@std@@IAEPAUPairBodies@@PAU3@IABU3@@Z 0041c0cd f i Physics.obj
 0001:0001b0fd       ?erase@?$vector@UD3DXVECTOR2@@V?$allocator@UD3DXVECTOR2@@@std@@@std@@QAE?AV?$_Vector_iterator@UD3DXVECTOR2@@V?$allocator@UD3DXVECTOR2@@@std@@@2@V?$_Vector_const_iterator@UD3DXVECTOR2@@V?$allocator@UD3DXVECTOR2@@@std@@@2@0@Z 0041c0fd f i SplineLengthMapped.obj
 0001:0001b0fd       ?erase@?$vector@VPrecision@@V?$allocator@VPrecision@@@std@@@std@@QAE?AV?$_Vector_iterator@VPrecision@@V?$allocator@VPrecision@@@std@@@2@V?$_Vector_const_iterator@VPrecision@@V?$allocator@VPrecision@@@std@@@2@0@Z 0041c0fd f i Physics.obj
 0001:0001b171       ?_Insert_n@?$vector@UD3DXVECTOR2@@V?$allocator@UD3DXVECTOR2@@@std@@@std@@IAEXV?$_Vector_const_iterator@UD3DXVECTOR2@@V?$allocator@UD3DXVECTOR2@@@std@@@2@IABUD3DXVECTOR2@@@Z 0041c171 f i SplineLengthMapped.obj
 0001:0001b171       ?_Insert_n@?$vector@VPrecision@@V?$allocator@VPrecision@@@std@@@std@@IAEXV?$_Vector_const_iterator@VPrecision@@V?$allocator@VPrecision@@@std@@@2@IABVPrecision@@@Z 0041c171 f i Physics.obj
 0001:0001b36c       ?_Insert_n@?$vector@PAVRigidBody@@V?$allocator@PAVRigidBody@@@std@@@std@@IAEXV?$_Vector_const_iterator@PAVRigidBody@@V?$allocator@PAVRigidBody@@@std@@@2@IABQAVRigidBody@@@Z 0041c36c f i Physics.obj
 0001:0001b36c       ?_Insert_n@?$vector@PAVStaticRigidBody@@V?$allocator@PAVStaticRigidBody@@@std@@@std@@IAEXV?$_Vector_const_iterator@PAVStaticRigidBody@@V?$allocator@PAVStaticRigidBody@@@std@@@2@IABQAVStaticRigidBody@@@Z 0041c36c f i Physics.obj
 0001:0001b36c       ?_Insert_n@?$vector@PAVDeferredMeshModel@@V?$allocator@PAVDeferredMeshModel@@@std@@@std@@IAEXV?$_Vector_const_iterator@PAVDeferredMeshModel@@V?$allocator@PAVDeferredMeshModel@@@std@@@2@IABQAVDeferredMeshModel@@@Z 0041c36c f i Mesh.obj
 0001:0001b510       ?erase@?$vector@UPairBodies@@V?$allocator@UPairBodies@@@std@@@std@@QAE?AV?$_Vector_iterator@UPairBodies@@V?$allocator@UPairBodies@@@std@@@2@V?$_Vector_const_iterator@UPairBodies@@V?$allocator@UPairBodies@@@std@@@2@0@Z 0041c510 f i Physics.obj
 0001:0001b591       ?_Insert_n@?$vector@UPairBodies@@V?$allocator@UPairBodies@@@std@@@std@@IAEXV?$_Vector_const_iterator@UPairBodies@@V?$allocator@UPairBodies@@@std@@@2@IABUPairBodies@@@Z 0041c591 f i Physics.obj
 0001:0001b779       ?allocate@?$allocator@UPairBodies@@@std@@QAEPAUPairBodies@@I@Z 0041c779 f i Physics.obj
 0001:0001b7b3       ??H?$_Vector_iterator@UPairBodies@@V?$allocator@UPairBodies@@@std@@@std@@QBE?AV01@H@Z 0041c7b3 f i Physics.obj
 0001:0001b7fb       ?_Ufill@?$vector@UD3DXVECTOR2@@V?$allocator@UD3DXVECTOR2@@@std@@@std@@IAEPAUD3DXVECTOR2@@PAU3@IABU3@@Z 0041c7fb f i SplineLengthMapped.obj
 0001:0001b7fb       ?_Ufill@?$vector@VPrecision@@V?$allocator@VPrecision@@@std@@@std@@IAEPAVPrecision@@PAV3@IABV3@@Z 0041c7fb f i Physics.obj
 0001:0001b7fb       ?_Ufill@?$vector@VOpPrimCube@OpInfo@@V?$allocator@VOpPrimCube@OpInfo@@@std@@@std@@IAEPAVOpPrimCube@OpInfo@@PAV34@IABV34@@Z 0041c7fb f i OpStack.obj
 0001:0001b81c       ??0?$KddTree2d@VStaticRigidBody@@@Kdd2d@@QAE@V?$vector@PAVStaticRigidBody@@V?$allocator@PAVStaticRigidBody@@@std@@@std@@@Z 0041c81c f i Physics.obj
 0001:0001b8f6       ?neighbours@?$KddTree2d@VStaticRigidBody@@@Kdd2d@@QAE?AV?$vector@PAVStaticRigidBody@@V?$allocator@PAVStaticRigidBody@@@std@@@std@@MMM@Z 0041c8f6 f i Physics.obj
 0001:0001b92c       ??$_Umove@PAVPrecision@@@?$vector@VPrecision@@V?$allocator@VPrecision@@@std@@@std@@IAEPAVPrecision@@PAV2@00@Z 0041c92c f i Physics.obj
 0001:0001b92c       ??$_Umove@PAUD3DXVECTOR2@@@?$vector@UD3DXVECTOR2@@V?$allocator@UD3DXVECTOR2@@@std@@@std@@IAEPAUD3DXVECTOR2@@PAU2@00@Z 0041c92c f i SplineLengthMapped.obj
 0001:0001b953       ??$_Umove@PAUPairBodies@@@?$vector@UPairBodies@@V?$allocator@UPairBodies@@@std@@@std@@IAEPAUPairBodies@@PAU2@00@Z 0041c953 f i Physics.obj
 0001:0001b97a       ?partitionPoints@?$KddTree2d@VStaticRigidBody@@@Kdd2d@@AAEPAVKddTree2dNode@12@AAV?$vector@PAVStaticRigidBody@@V?$allocator@PAVStaticRigidBody@@@std@@@std@@_NHH@Z 0041c97a f i Physics.obj
 0001:0001bab6       ?neighboursRec@?$KddTree2d@VStaticRigidBody@@@Kdd2d@@AAEXPAVKddTree2dNode@12@_NMMMAAV?$vector@PAVStaticRigidBody@@V?$allocator@PAVStaticRigidBody@@@std@@@std@@@Z 0041cab6 f i Physics.obj
 0001:0001bbab       ??$_Uninit_fill_n@PAUPairBodies@@IU1@V?$allocator@UPairBodies@@@std@@@std@@YAXPAUPairBodies@@IABU1@AAV?$allocator@UPairBodies@@@0@U_Nonscalar_ptr_iterator_tag@0@U_Range_checked_iterator_tag@0@@Z 0041cbab f i Physics.obj
 0001:0001bbfb       ??$kdtSortX@VStaticRigidBody@@@Kdd2d@@YA_NPBVStaticRigidBody@@0@Z 0041cbfb f i Physics.obj
 0001:0001bc33       ??$kdtSortY@VStaticRigidBody@@@Kdd2d@@YA_NPBVStaticRigidBody@@0@Z 0041cc33 f i Physics.obj
 0001:0001bc6d       ??$_Sort@PAPAVStaticRigidBody@@HP6A_NPBV1@0@Z@std@@YAXPAPAVStaticRigidBody@@0HP6A_NPBV1@1@Z@Z 0041cc6d f i Physics.obj
 0001:0001bd80       ??$_Unguarded_partition@PAPAVStaticRigidBody@@P6A_NPBV1@0@Z@std@@YA?AU?$pair@PAPAVStaticRigidBody@@PAPAV1@@0@PAPAVStaticRigidBody@@0P6A_NPBV2@1@Z@Z 0041cd80 f i Physics.obj
 0001:0001bf36       ??$_Uninit_copy@PAUPairBodies@@PAU1@V?$allocator@UPairBodies@@@std@@@std@@YAPAUPairBodies@@PAU1@00AAV?$allocator@UPairBodies@@@0@U_Nonscalar_ptr_iterator_tag@0@U_Range_checked_iterator_tag@0@@Z 0041cf36 f i Physics.obj
 0001:0001bf8b       ??$_Median@PAPAVStaticRigidBody@@P6A_NPBV1@0@Z@std@@YAXPAPAVStaticRigidBody@@00P6A_NPBV1@1@Z@Z 0041cf8b f i Physics.obj
 0001:0001c01b       ??$_Insertion_sort1@PAPAVStaticRigidBody@@P6A_NPBV1@0@ZPAV1@@std@@YAXPAPAVStaticRigidBody@@0P6A_NPBV1@1@Z0@Z 0041d01b f i Physics.obj
 0001:0001c0a5       ??$_Med3@PAPAVStaticRigidBody@@P6A_NPBV1@0@Z@std@@YAXPAPAVStaticRigidBody@@00P6A_NPBV1@1@Z@Z 0041d0a5 f i Physics.obj
 0001:0001c0f4       ??$_Adjust_heap@PAPAVStaticRigidBody@@HPAV1@P6A_NPBV1@0@Z@std@@YAXPAPAVStaticRigidBody@@HHPAV1@P6A_NPBV1@2@Z@Z 0041d0f4 f i Physics.obj
 0001:0001c179       ??0TimeForce@@QAE@PAUD3DXVECTOR3@@PAUStoredSplineDesc@@M@Z 0041d179 f   PhysicsForces.obj
 0001:0001c1ca       ?getForce@TimeForce@@QAE?AUD3DXVECTOR3@@MPBUD3DXMATRIX@@@Z 0041d1ca f   PhysicsForces.obj
 0001:0001c211       ??4?$auto_ptr@VSplineLengthMapped@@@std@@QAEAAV01@U?$auto_ptr_ref@VSplineLengthMapped@@@1@@Z 0041d211 f i PhysicsForces.obj
 0001:0001c23b       ??0TimeTorque@@QAE@PAUD3DXVECTOR3@@0PAUStoredSplineDesc@@M@Z 0041d23b f   PhysicsTorques.obj
 0001:0001c298       ?updateState@TimeTorque@@QAEXUTimeTorqueState@@@Z 0041d298 f   PhysicsTorques.obj
 0001:0001c298       ?updateState@TimeForce@@QAEXUTimeForceState@@@Z 0041d298 f   PhysicsForces.obj
 0001:0001c2d8       ?getTorque@TimeTorque@@QAE?AUD3DXVECTOR3@@MPBUD3DXMATRIX@@@Z 0041d2d8 f   PhysicsTorques.obj
 0001:0001c372       ?getxWS@RigidBody@@QBE?AUD3DXVECTOR3@@XZ 0041d372 f   RigidBody.obj
 0001:0001c381       ?getvWS@RigidBody@@QAE?AUD3DXVECTOR3@@XZ 0041d381 f   RigidBody.obj
 0001:0001c3a2       ?computeTemporalValues@RigidBody@@QAEXXZ 0041d3a2 f   RigidBody.obj
 0001:0001c45c       ?setVelWS@RigidBody@@QAEXABUD3DXVECTOR3@@@Z 0041d45c f   RigidBody.obj
 0001:0001c48c       ?limitVelocity@RigidBody@@QAEXXZ 0041d48c f   RigidBody.obj
 0001:0001c509       ??0RigidBody@@QAE@ABUD3DXVECTOR3@@HPAVRigidBodyExt@@@Z 0041d509 f   RigidBody.obj
 0001:0001c536       ?standstill@RigidBody@@QAEXXZ 0041d536 f   RigidBody.obj
 0001:0001c580       ??0RigidBodyExt@@QAE@MMMM@Z 0041d580 f   RigidBodyExt.obj
 0001:0001c68b       ?attachTimeForce@RigidBodyExt@@QAE?AV?$auto_ptr@VTimeForce@@@std@@PAUD3DXVECTOR3@@PAUStoredSplineDesc@@M@Z 0041d68b f   RigidBodyExt.obj
 0001:0001c72c       ?attachTimeTorque@RigidBodyExt@@QAE?AV?$auto_ptr@VTimeTorque@@@std@@PAUD3DXVECTOR3@@0PAUStoredSplineDesc@@M@Z 0041d72c f   RigidBodyExt.obj
 0001:0001c7d2       ??$_Umove@PAM@?$vector@MV?$allocator@M@std@@@std@@IAEPAMPAM00@Z 0041d7d2 f i SplineLengthMapped.obj
 0001:0001c7d2       ??$_Umove@PAPAVHeightZone@@@?$vector@PAVHeightZone@@V?$allocator@PAVHeightZone@@@std@@@std@@IAEPAPAVHeightZone@@PAPAV2@00@Z 0041d7d2 f i HeightFunction.obj
 0001:0001c7d2       ??$_Umove@PAPAVHE_face@@@?$vector@PAVHE_face@@V?$allocator@PAVHE_face@@@std@@@std@@IAEPAPAVHE_face@@PAPAV2@00@Z 0041d7d2 f i HE_vert.obj
 0001:0001c7d2       ??$_Umove@PAPAVTimeForce@@@?$vector@PAVTimeForce@@V?$allocator@PAVTimeForce@@@std@@@std@@IAEPAPAVTimeForce@@PAPAV2@00@Z 0041d7d2 f i RigidBodyExt.obj
 0001:0001c7d2       ??$_Umove@PAPAV?$LineListModel@UD3DXVECTOR3@@@@@?$vector@PAV?$LineListModel@UD3DXVECTOR3@@@@V?$allocator@PAV?$LineListModel@UD3DXVECTOR3@@@@@std@@@std@@IAEPAPAV?$LineListModel@UD3DXVECTOR3@@@@PAPAV2@00@Z 0041d7d2 f i WorldTerrain.obj
 0001:0001c7d2       ??$_Umove@PAPAVRigidBodyExt@@@?$vector@PAVRigidBodyExt@@V?$allocator@PAVRigidBodyExt@@@std@@@std@@IAEPAPAVRigidBodyExt@@PAPAV2@00@Z 0041d7d2 f i Physics.obj
 0001:0001c7d2       ??$_Umove@PAPAVMeshComponent@@@?$vector@PAVMeshComponent@@V?$allocator@PAVMeshComponent@@@std@@@std@@IAEPAPAVMeshComponent@@PAPAV2@00@Z 0041d7d2 f i Mesh.obj
 0001:0001c7d2       ??$_Umove@PAPAVTimeTorque@@@?$vector@PAVTimeTorque@@V?$allocator@PAVTimeTorque@@@std@@@std@@IAEPAPAVTimeTorque@@PAPAV2@00@Z 0041d7d2 f i RigidBodyExt.obj
 0001:0001c7fc       ??0RigidBodyOde@@QAE@AAV?$vector@PAVRigidBody@@V?$allocator@PAVRigidBody@@@std@@@std@@HMMMM@Z 0041d7fc f   RigidBodyOde.obj
 0001:0001c859       ?Step@RigidBodyOde@@QAEXM@Z 0041d859 f   RigidBodyOde.obj
 0001:0001c8e5       ?dxdt@RigidBodyOde@@AAEXMQAM0M@Z 0041d8e5 f   RigidBodyOde.obj
 0001:0001d2bf       ?stateToArray@RigidBodyOde@@AAEXQAM@Z 0041e2bf f   RigidBodyOde.obj
 0001:0001d38d       ?arrayToState@RigidBodyOde@@AAEXQAMAAV?$vector@PAVRigidBody@@V?$allocator@PAVRigidBody@@@std@@@std@@@Z 0041e38d f   RigidBodyOde.obj
 0001:0001d5b7       ?odeSolverEuler@RigidBodyOde@@AAEXQAM0MMP81@AEXM00M@Z@Z 0041e5b7 f   RigidBodyOde.obj
 0001:0001d637       ??4?$vector@PAVRigidBody@@V?$allocator@PAVRigidBody@@@std@@@std@@QAEAAV01@ABV01@@Z 0041e637 f i RigidBodyOde.obj
 0001:0001d637       ??4?$vector@PAVStaticRigidBody@@V?$allocator@PAVStaticRigidBody@@@std@@@std@@QAEAAV01@ABV01@@Z 0041e637 f i Physics.obj
 0001:0001d637       ??4?$vector@PAVDeferredMeshModel@@V?$allocator@PAVDeferredMeshModel@@@std@@@std@@QAEAAV01@ABV01@@Z 0041e637 f i GameStateWorld.obj
 0001:0001d6fb       ??0StaticRigidBody@@QAE@PAVMeshCol@@@Z 0041e6fb f   StaticRigidBody.obj
 0001:0001d708       ?rayIntesection@StaticRigidBody@@QAE_NUD3DXVECTOR3@@0MMAAU2@1AAUTriangle@DxMath@@AAM_NM@Z 0041e708 f   StaticRigidBody.obj
 0001:0001d78f       ?rayIntesectionMesh@StaticRigidBody@@AAE_NUD3DXVECTOR3@@0MMAAU2@1AAUTriangle@DxMath@@AAM_N@Z 0041e78f f   StaticRigidBody.obj
 0001:0001d82b       ?rayIntesectionMeshCol@StaticRigidBody@@AAE_NUD3DXVECTOR3@@0MMAAU2@1AAUTriangle@DxMath@@AAM_NM@Z 0041e82b f   StaticRigidBody.obj
 0001:0001da8c       ?rayIntesectionMesh@StaticRigidBody@@AAE_NHHUD3DXVECTOR3@@0MMAAU2@1AAUTriangle@DxMath@@AAM@Z 0041ea8c f   StaticRigidBody.obj
 0001:0001de24       ?centerBoundingSphere@StaticRigidBody@@QBE?AUD3DXVECTOR3@@XZ 0041ee24 f   StaticRigidBody.obj
 0001:0001de54       ?distance@ConvexHull2dHelpers@@YAMPBVConvexHull2d@@ABUD3DXVECTOR3@@@Z 0041ee54 f   ConvexHull2dHelpers.obj
 0001:0001dee5       ?atLeft@ConvexHull2dHelpers@@YA_NABUD3DXVECTOR3@@00@Z 0041eee5 f   ConvexHull2dHelpers.obj
 0001:0001df3c       ?convexHull@ConvexHull2dHelpers@@YAPAVConvexHull2d@@ABV?$vector@UD3DXVECTOR3@@V?$allocator@UD3DXVECTOR3@@@std@@@std@@@Z 0041ef3c f   ConvexHull2dHelpers.obj
 0001:0001e1d8       ??0BoundingRectangle@Intersections2d@@QAE@ABV?$vector@UD3DXVECTOR3@@V?$allocator@UD3DXVECTOR3@@@std@@@std@@@Z 0041f1d8 f i ConvexHull2d.obj
 0001:0001e2b1       ??0ConvexHull2d@@QAE@ABV?$vector@UD3DXVECTOR3@@V?$allocator@UD3DXVECTOR3@@@std@@@std@@@Z 0041f2b1 f   ConvexHull2d.obj
 0001:0001e2e2       ?contained@ConvexHull2d@@QBE_NABUD3DXVECTOR3@@@Z 0041f2e2 f   ConvexHull2d.obj
 0001:0001e33e       ?getRandomPoint@ConvexHull2d@@QBE?AUD3DXVECTOR3@@AAVRandGen@Rand@@@Z 0041f33e f   ConvexHull2d.obj
 0001:0001e38e       ?vertex@ConvexHull2d@@QBE?AUD3DXVECTOR3@@H@Z 0041f38e f   ConvexHull2d.obj
 0001:0001e3ad       ?numVertices@ConvexHull2d@@QBEHXZ 0041f3ad f   ConvexHull2d.obj
 0001:0001e3ba       ?aproxArea@ConvexHull2d@@QBEMXZ 0041f3ba f   ConvexHull2d.obj
 0001:0001e3cb       ?center@ConvexHull2d@@QBE?AUD3DXVECTOR3@@XZ 0041f3cb f   ConvexHull2d.obj
 0001:0001e45e       ??0WorldTerrain@@QAE@XZ    0041f45e f   WorldTerrain.obj
 0001:0001e4ad       ?init@WorldTerrain@@QAEXXZ 0041f4ad f   WorldTerrain.obj
 0001:0001e683       ?compute@WorldTerrain@@QAE?AV?$auto_ptr@V?$DxMeshModelBatch@VVertPNT@@@@@std@@XZ 0041f683 f   WorldTerrain.obj
 0001:0001e6a6       ?initCreateFrontiers@WorldTerrain@@AAEXXZ 0041f6a6 f   WorldTerrain.obj
 0001:0001e7c8       ?displayConvexHulls@WorldTerrain@@QAEXXZ 0041f7c8 f   WorldTerrain.obj
 0001:0001e806       ?initCreateMountains@WorldTerrain@@AAEXXZ 0041f806 f   WorldTerrain.obj
 0001:0001ea68       ?insert@?$vector@PAVHeightZone@@V?$allocator@PAVHeightZone@@@std@@@std@@QAE?AV?$_Vector_iterator@PAVHeightZone@@V?$allocator@PAVHeightZone@@@std@@@2@V?$_Vector_const_iterator@PAVHeightZone@@V?$allocator@PAVHeightZone@@@std@@@2@ABQAVHeightZone@@@Z 0041fa68 f i HeightFunction.obj
 0001:0001ea68       ?insert@?$vector@PAV?$LineListModel@UD3DXVECTOR3@@@@V?$allocator@PAV?$LineListModel@UD3DXVECTOR3@@@@@std@@@std@@QAE?AV?$_Vector_iterator@PAV?$LineListModel@UD3DXVECTOR3@@@@V?$allocator@PAV?$LineListModel@UD3DXVECTOR3@@@@@std@@@2@V?$_Vector_const_iterator@PAV?$LineListModel@UD3DXVECTOR3@@@@V?$allocator@PAV?$LineListModel@UD3DXVECTOR3@@@@@std@@@2@ABQAV?$LineListModel@UD3DXVECTOR3@@@@@Z 0041fa68 f i WorldTerrain.obj
 0001:0001ea68       ?insert@?$vector@PAVRigidBodyExt@@V?$allocator@PAVRigidBodyExt@@@std@@@std@@QAE?AV?$_Vector_iterator@PAVRigidBodyExt@@V?$allocator@PAVRigidBodyExt@@@std@@@2@V?$_Vector_const_iterator@PAVRigidBodyExt@@V?$allocator@PAVRigidBodyExt@@@std@@@2@ABQAVRigidBodyExt@@@Z 0041fa68 f i Physics.obj
 0001:0001eb13       ?_Insert_n@?$vector@PAVHeightZone@@V?$allocator@PAVHeightZone@@@std@@@std@@IAEXV?$_Vector_const_iterator@PAVHeightZone@@V?$allocator@PAVHeightZone@@@std@@@2@IABQAVHeightZone@@@Z 0041fb13 f i HeightFunction.obj
 0001:0001eb13       ?_Insert_n@?$vector@PAV?$LineListModel@UD3DXVECTOR3@@@@V?$allocator@PAV?$LineListModel@UD3DXVECTOR3@@@@@std@@@std@@IAEXV?$_Vector_const_iterator@PAV?$LineListModel@UD3DXVECTOR3@@@@V?$allocator@PAV?$LineListModel@UD3DXVECTOR3@@@@@std@@@2@IABQAV?$LineListModel@UD3DXVECTOR3@@@@@Z 0041fb13 f i WorldTerrain.obj
 0001:0001eb13       ?_Insert_n@?$vector@PAVRigidBodyExt@@V?$allocator@PAVRigidBodyExt@@@std@@@std@@IAEXV?$_Vector_const_iterator@PAVRigidBodyExt@@V?$allocator@PAVRigidBodyExt@@@std@@@2@IABQAVRigidBodyExt@@@Z 0041fb13 f i Physics.obj
 0001:0001ecc0       ??0?$LineListModel@UD3DXVECTOR3@@@@QAE@AAV?$vector@UD3DXVECTOR3@@V?$allocator@UD3DXVECTOR3@@@std@@@std@@@Z 0041fcc0 f i WorldTerrain.obj
 0001:0001ed28       ?displayTriangles@DeferredMeshModel@@QAEXXZ 0041fd28 f i DeferredMeshModel.obj
 0001:0001ed28       ?display@?$LineListModel@UD3DXVECTOR3@@@@QAEXXZ 0041fd28 f i WorldTerrain.obj
 0001:0001ed32       ??0?$DxMeshModel@UD3DXVECTOR3@@@@QAE@HHQBUD3DXVECTOR3@@@Z 0041fd32 f i WorldTerrain.obj
 0001:0001edb6       ??0?$DxMeshModelBatch@UD3DXVECTOR3@@@@QAE@HW4D3D_PRIMITIVE_TOPOLOGY@@@Z 0041fdb6 f i WorldTerrain.obj
 0001:0001edd4       ?addMeshModel@?$DxMeshModelBatch@UD3DXVECTOR3@@@@QAEXPAV?$DxMeshModel@UD3DXVECTOR3@@@@@Z 0041fdd4 f i WorldTerrain.obj
 0001:0001ee62       ?createVB@?$DxMeshModelBatch@UD3DXVECTOR3@@@@QAE_NXZ 0041fe62 f i WorldTerrain.obj
 0001:0001eebe       ??0HeightFunction@@QAE@XZ  0041febe f   HeightFunction.obj
 0001:0001eee0       ??1HeightFunction@@QAE@XZ  0041fee0 f   HeightFunction.obj
 0001:0001ef2d       ?add@HeightFunction@@QAEXPAVHeightZone@@@Z 0041ff2d f   HeightFunction.obj
 0001:0001ef84       ?height@HeightFunction@@QAEMABUD3DXVECTOR3@@@Z 0041ff84 f   HeightFunction.obj
 0001:0001efd5       ??0HeightZone@@QAE@PAVConvexHull2d@@MM@Z 0041ffd5 f   HeightZone.obj
 0001:0001efe8       ??1HeightZone@@QAE@XZ      0041ffe8 f   HeightZone.obj
 0001:0001eff4       ?height@HeightZone@@QAEMABUD3DXVECTOR3@@@Z 0041fff4 f   HeightZone.obj
 0001:0001f041       ?signedArea@Intersections2d@@YAMUD3DXVECTOR2@@00@Z 00420041 f   Intersections2d.obj
 0001:0001f06a       _D3D10CreateDevice@24      0042006a f   d3d10:d3d10.dll
 0001:0001f070       _D3DX10CreateFontIndirectW@12 00420070 f   d3dx10d:d3dx10d_43.dll
 0001:0001f076       _D3DXMatrixPerspectiveFovLH@20 00420076 f   d3dx10d:d3dx10d_43.dll
 0001:0001f07c       _D3DXMatrixLookAtLH@16     0042007c f   d3dx10d:d3dx10d_43.dll
 0001:0001f082       _D3DXVec3TransformCoord@12 00420082 f   d3dx10d:d3dx10d_43.dll
 0001:0001f088       _D3DXVec3Normalize@8       00420088 f   d3dx10d:d3dx10d_43.dll
 0001:0001f08e       _D3DXIntersectTri@32       0042008e f   d3dx10d:d3dx10d_43.dll
 0001:0001f094       _D3DXVec2CatmullRom@24     00420094 f   d3dx10d:d3dx10d_43.dll
 0001:0001f09a       _D3DX10CreateEffectFromFileW@48 0042009a f   d3dx10d:d3dx10d_43.dll
 0001:0001f0a0       _D3DXMatrixTranslation@16  004200a0 f   d3dx10d:d3dx10d_43.dll
 0001:0001f0a6       _D3DXMatrixRotationQuaternion@8 004200a6 f   d3dx10d:d3dx10d_43.dll
 0001:0001f0ac       _D3DXMatrixMultiply@12     004200ac f   d3dx10d:d3dx10d_43.dll
 0001:0001f0b2       _D3DXVec3Transform@12      004200b2 f   d3dx10d:d3dx10d_43.dll
 0001:0001f0b8       _D3DXMatrixTranspose@8     004200b8 f   d3dx10d:d3dx10d_43.dll
 0001:0001f0be       _D3DXQuaternionMultiply@12 004200be f   d3dx10d:d3dx10d_43.dll
 0001:0001f0c4       _D3DXVec2Normalize@8       004200c4 f   d3dx10d:d3dx10d_43.dll
 0001:0001f0ca       _CreateDXGIFactory1@8      004200ca f   dxgi:dxgi.dll
 0001:0001f0d0       ??_U@YAPAXI@Z              004200d0 f   msvcprt:newaop_s.obj
 0001:0001f0dc       ??3@YAXPAX@Z               004200dc f   MSVCRT:MSVCR90.dll
 0001:0001f0e2       ??2@YAPAXI@Z               004200e2 f   MSVCRT:MSVCR90.dll
 0001:0001f0e8       __onexit                   004200e8 f   MSVCRT:atonexit.obj
 0001:0001f18d       _atexit                    0042018d f   MSVCRT:atonexit.obj
 0001:0001f1a4       ?what@exception@std@@UBEPBDXZ 004201a4 f   MSVCRT:MSVCR90.dll
 0001:0001f1aa       ??0exception@std@@QAE@ABV01@@Z 004201aa f   MSVCRT:MSVCR90.dll
 0001:0001f1b0       __purecall                 004201b0 f   MSVCRT:MSVCR90.dll
 0001:0001f1b6       ??_Etype_info@@UAEPAXI@Z   004201b6 f i MSVCRT:ti_inst.obj
 0001:0001f202       ??_V@YAXPAX@Z              00420202 f   MSVCRT:MSVCR90.dll
 0001:0001f513       _WinMainCRTStartup         00420513 f   MSVCRT:crtexew.obj
 0001:0001f51e       __unlock                   0042051e f   MSVCRT:MSVCR90.dll
 0001:0001f524       ___dllonexit               00420524 f   MSVCRT:MSVCR90.dll
 0001:0001f52a       __lock                     0042052a f   MSVCRT:MSVCR90.dll
 0001:0001f530       __SEH_prolog4              00420530 f   MSVCRT:sehprolg4.obj
 0001:0001f575       __SEH_epilog4              00420575 f   MSVCRT:sehprolg4.obj
 0001:0001f589       __except_handler4          00420589 f   MSVCRT:chandler4gs.obj
 0001:0001f5ae       ?__ArrayUnwind@@YGXPAXIHP6EX0@Z@Z 004205ae f   MSVCRT:ehvecdtr.obj
 0001:0001f60c       ??_M@YGXPAXIHP6EX0@Z@Z     0042060c f   MSVCRT:ehvecdtr.obj
 0001:0001f66f       ?__CxxUnhandledExceptionFilter@@YGJPAU_EXCEPTION_POINTERS@@@Z 0042066f f   MSVCRT:unhandld.obj
 0001:0001f6b1       ___CxxSetUnhandledExceptionFilter 004206b1 f   MSVCRT:unhandld.obj
 0001:0001f6c0       __amsg_exit                004206c0 f   MSVCRT:MSVCR90.dll
 0001:0001f6c6       __RTC_Initialize           004206c6 f   MSVCRT:_initsect_.obj
 0001:0001f6ec       __RTC_Terminate            004206ec f   MSVCRT:_initsect_.obj
 0001:0001f712       __XcptFilter               00420712 f   MSVCRT:MSVCR90.dll
 0001:0001f720       __ValidateImageBase        00420720 f   MSVCRT:pesect.obj
 0001:0001f760       __FindPESection            00420760 f   MSVCRT:pesect.obj
 0001:0001f7b0       __IsNonwritableInCurrentImage 004207b0 f   MSVCRT:pesect.obj
 0001:0001f86e       __initterm                 0042086e f   MSVCRT:MSVCR90.dll
 0001:0001f874       __initterm_e               00420874 f   MSVCRT:MSVCR90.dll
 0001:0001f87a       __setdefaultprecision      0042087a f   MSVCRT:fp8.obj
 0001:0001f8a5       __setargv                  004208a5 f   MSVCRT:dllargv.obj
 0001:0001f8a5       __matherr                  004208a5 f   MSVCRT:merr.obj
 0001:0001f8a8       ___security_init_cookie    004208a8 f   MSVCRT:gs_support.obj
 0001:0001f93e       @__security_check_cookie@4 0042093e f   MSVCRT:secchk.obj
 0001:0001f94e       __except_handler4_common   0042094e f   MSVCRT:MSVCR90.dll
 0001:0001f954       ?terminate@@YAXXZ          00420954 f   MSVCRT:MSVCR90.dll
 0001:0001f95a       ??1type_info@@UAE@XZ       0042095a f   MSVCRT:MSVCR90.dll
 0001:0001f95a       ?_type_info_dtor_internal_method@type_info@@QAEXXZ 0042095a f   MSVCRT:MSVCR90.dll
 0001:0001f960       __invoke_watson            00420960 f   MSVCRT:MSVCR90.dll
 0001:0001f966       __controlfp_s              00420966 f   MSVCRT:MSVCR90.dll
 0001:0001f96c       ___report_gsfailure        0042096c f   MSVCRT:gs_report.obj
 0001:0001fa72       __crt_debugger_hook        00420a72 f   MSVCRT:MSVCR90.dll
 0001:0001fa78       _floor                     00420a78 f   MSVCRT:MSVCR90.dll
 0001:0001fa7e       _memset                    00420a7e f   MSVCRT:MSVCR90.dll
 0001:0001fa84       __CxxThrowException@8      00420a84 f   MSVCRT:MSVCR90.dll
 0001:0001fa8a       ___CxxFrameHandler3        00420a8a f   MSVCRT:MSVCR90.dll
 0001:0001fa90       __EH_prolog                00420a90 f   MSVCRT:ehprolog.obj
 0001:0001fab0       __ftol2_sse                00420ab0 f   MSVCRT:ftol2.obj
 0001:0001fab9       __ftol2_pentium4           00420ab9 f   MSVCRT:ftol2.obj
 0001:0001facc       __ftol2_sse_excpt          00420acc f   MSVCRT:ftol2.obj
 0001:0001fae6       __ftol2                    00420ae6 f   MSVCRT:ftol2.obj
 0001:0001fb60       __alloca_probe             00420b60     MSVCRT:chkstk.obj
 0001:0001fb60       __chkstk                   00420b60 f   MSVCRT:chkstk.obj
 0001:0001fbdb       __get_sse2_info            00420bdb f   MSVCRT:cpu_disp.obj
 0001:0001fc3d       ___sse2_available_init     00420c3d f   MSVCRT:cpu_disp.obj
 0002:00000000       __imp__GetStockObject@4    00422000     gdi32:GDI32.dll
 0002:00000004       \177GDI32_NULL_THUNK_DATA  00422004     gdi32:GDI32.dll
 0002:00000008       __imp__MultiByteToWideChar@24 00422008     kernel32:KERNEL32.dll
 0002:0000000c       __imp__IsDebuggerPresent@0 0042200c     kernel32:KERNEL32.dll
 0002:00000010       __imp__UnhandledExceptionFilter@4 00422010     kernel32:KERNEL32.dll
 0002:00000014       __imp__GetCurrentProcess@0 00422014     kernel32:KERNEL32.dll
 0002:00000018       __imp__TerminateProcess@8  00422018     kernel32:KERNEL32.dll
 0002:0000001c       __imp__GetSystemTimeAsFileTime@4 0042201c     kernel32:KERNEL32.dll
 0002:00000020       __imp__GetCurrentProcessId@0 00422020     kernel32:KERNEL32.dll
 0002:00000024       __imp__GetCurrentThreadId@0 00422024     kernel32:KERNEL32.dll
 0002:00000028       __imp__GetTickCount@0      00422028     kernel32:KERNEL32.dll
 0002:0000002c       __imp__SetUnhandledExceptionFilter@4 0042202c     kernel32:KERNEL32.dll
 0002:00000030       __imp__GetStartupInfoA@4   00422030     kernel32:KERNEL32.dll
 0002:00000034       __imp__InterlockedCompareExchange@12 00422034     kernel32:KERNEL32.dll
 0002:00000038       __imp__Sleep@4             00422038     kernel32:KERNEL32.dll
 0002:0000003c       __imp__InterlockedExchange@8 0042203c     kernel32:KERNEL32.dll
 0002:00000040       __imp__QueryPerformanceFrequency@4 00422040     kernel32:KERNEL32.dll
 0002:00000044       __imp__QueryPerformanceCounter@4 00422044     kernel32:KERNEL32.dll
 0002:00000048       \177KERNEL32_NULL_THUNK_DATA 00422048     kernel32:KERNEL32.dll
 0002:0000004c       __imp_??$?8DU?$char_traits@D@std@@V?$allocator@D@1@@std@@YA_NABV?$basic_string@DU?$char_traits@D@std@@V?$allocator@D@2@@0@0@Z 0042204c     msvcprt:MSVCP90.dll
 0002:00000050       __imp_??0?$basic_string@_WU?$char_traits@_W@std@@V?$allocator@_W@2@@std@@QAE@PB_W@Z 00422050     msvcprt:MSVCP90.dll
 0002:00000054       __imp_??5?$basic_istream@DU?$char_traits@D@std@@@std@@QAEAAV01@AAH@Z 00422054     msvcprt:MSVCP90.dll
 0002:00000058       __imp_??5?$basic_istream@DU?$char_traits@D@std@@@std@@QAEAAV01@AAM@Z 00422058     msvcprt:MSVCP90.dll
 0002:0000005c       __imp_??_D?$basic_fstream@DU?$char_traits@D@std@@@std@@QAEXXZ 0042205c     msvcprt:MSVCP90.dll
 0002:00000060       __imp_??0?$basic_fstream@DU?$char_traits@D@std@@@std@@QAE@PBDHH@Z 00422060     msvcprt:MSVCP90.dll
 0002:00000064       __imp_?close@?$basic_fstream@DU?$char_traits@D@std@@@std@@QAEXXZ 00422064     msvcprt:MSVCP90.dll
 0002:00000068       __imp_??4?$basic_string@DU?$char_traits@D@std@@V?$allocator@D@2@@std@@QAEAAV01@ABV01@@Z 00422068     msvcprt:MSVCP90.dll
 0002:0000006c       __imp_??0?$basic_string@_WU?$char_traits@_W@std@@V?$allocator@_W@2@@std@@QAE@XZ 0042206c     msvcprt:MSVCP90.dll
 0002:00000070       __imp_??4?$basic_string@_WU?$char_traits@_W@std@@V?$allocator@_W@2@@std@@QAEAAV01@PB_W@Z 00422070     msvcprt:MSVCP90.dll
 0002:00000074       __imp_?endl@std@@YAAAV?$basic_ostream@DU?$char_traits@D@std@@@1@AAV21@@Z 00422074     msvcprt:MSVCP90.dll
 0002:00000078       __imp_??_D?$basic_ofstream@DU?$char_traits@D@std@@@std@@QAEXXZ 00422078     msvcprt:MSVCP90.dll
 0002:0000007c       __imp_??0?$basic_string@DU?$char_traits@D@std@@V?$allocator@D@2@@std@@QAE@ABV01@@Z 0042207c     msvcprt:MSVCP90.dll
 0002:00000080       __imp_??6?$basic_ostream@DU?$char_traits@D@std@@@std@@QAEAAV01@P6AAAV01@AAV01@@Z@Z 00422080     msvcprt:MSVCP90.dll
 0002:00000084       __imp_??6?$basic_ostream@DU?$char_traits@D@std@@@std@@QAEAAV01@M@Z 00422084     msvcprt:MSVCP90.dll
 0002:00000088       __imp_??0?$basic_ofstream@DU?$char_traits@D@std@@@std@@QAE@PBDHH@Z 00422088     msvcprt:MSVCP90.dll
 0002:0000008c       __imp_??0?$basic_string@DU?$char_traits@D@std@@V?$allocator@D@2@@std@@QAE@XZ 0042208c     msvcprt:MSVCP90.dll
 0002:00000090       __imp_??0?$basic_string@DU?$char_traits@D@std@@V?$allocator@D@2@@std@@QAE@PBD@Z 00422090     msvcprt:MSVCP90.dll
 0002:00000094       __imp_?close@?$basic_ofstream@DU?$char_traits@D@std@@@std@@QAEXXZ 00422094     msvcprt:MSVCP90.dll
 0002:00000098       __imp_?uncaught_exception@std@@YA_NXZ 00422098     msvcprt:MSVCP90.dll
 0002:0000009c       __imp_?sputn@?$basic_streambuf@DU?$char_traits@D@std@@@std@@QAEHPBDH@Z 0042209c     msvcprt:MSVCP90.dll
 0002:000000a0       __imp_?_Osfx@?$basic_ostream@DU?$char_traits@D@std@@@std@@QAEXXZ 004220a0     msvcprt:MSVCP90.dll
 0002:000000a4       __imp_?_Lock@?$basic_streambuf@DU?$char_traits@D@std@@@std@@QAEXXZ 004220a4     msvcprt:MSVCP90.dll
 0002:000000a8       __imp_?_Unlock@?$basic_streambuf@DU?$char_traits@D@std@@@std@@QAEXXZ 004220a8     msvcprt:MSVCP90.dll
 0002:000000ac       __imp_?sputc@?$basic_streambuf@DU?$char_traits@D@std@@@std@@QAEHD@Z 004220ac     msvcprt:MSVCP90.dll
 0002:000000b0       __imp_?str@?$basic_ostringstream@DU?$char_traits@D@std@@V?$allocator@D@2@@std@@QBE?AV?$basic_string@DU?$char_traits@D@std@@V?$allocator@D@2@@2@XZ 004220b0     msvcprt:MSVCP90.dll
 0002:000000b4       __imp_??0?$basic_ostringstream@DU?$char_traits@D@std@@V?$allocator@D@2@@std@@QAE@H@Z 004220b4     msvcprt:MSVCP90.dll
 0002:000000b8       __imp_?flush@?$basic_ostream@DU?$char_traits@D@std@@@std@@QAEAAV12@XZ 004220b8     msvcprt:MSVCP90.dll
 0002:000000bc       __imp_??6?$basic_ostream@DU?$char_traits@D@std@@@std@@QAEAAV01@I@Z 004220bc     msvcprt:MSVCP90.dll
 0002:000000c0       __imp_??6?$basic_ostream@DU?$char_traits@D@std@@@std@@QAEAAV01@H@Z 004220c0     msvcprt:MSVCP90.dll
 0002:000000c4       __imp_?setstate@?$basic_ios@DU?$char_traits@D@std@@@std@@QAEXH_N@Z 004220c4     msvcprt:MSVCP90.dll
 0002:000000c8       __imp_??1?$basic_string@_WU?$char_traits@_W@std@@V?$allocator@_W@2@@std@@QAE@XZ 004220c8     msvcprt:MSVCP90.dll
 0002:000000cc       __imp_??0?$basic_string@_WU?$char_traits@_W@std@@V?$allocator@_W@2@@std@@QAE@ABV01@@Z 004220cc     msvcprt:MSVCP90.dll
 0002:000000d0       __imp_??1?$basic_string@DU?$char_traits@D@std@@V?$allocator@D@2@@std@@QAE@XZ 004220d0     msvcprt:MSVCP90.dll
 0002:000000d4       __imp_??_D?$basic_ostringstream@DU?$char_traits@D@std@@V?$allocator@D@2@@std@@QAEXXZ 004220d4     msvcprt:MSVCP90.dll
 0002:000000d8       \177MSVCP90_NULL_THUNK_DATA 004220d8     msvcprt:MSVCP90.dll
 0002:000000dc       __imp___encode_pointer     004220dc     MSVCRT:MSVCR90.dll
 0002:000000e0       __imp___lock               004220e0     MSVCRT:MSVCR90.dll
 0002:000000e4       __imp___onexit             004220e4     MSVCRT:MSVCR90.dll
 0002:000000e8       __imp___decode_pointer     004220e8     MSVCRT:MSVCR90.dll
 0002:000000ec       __imp___amsg_exit          004220ec     MSVCRT:MSVCR90.dll
 0002:000000f0       __imp____CxxFrameHandler3  004220f0     MSVCRT:MSVCR90.dll
 0002:000000f4       __imp____getmainargs       004220f4     MSVCRT:MSVCR90.dll
 0002:000000f8       __imp___cexit              004220f8     MSVCRT:MSVCR90.dll
 0002:000000fc       __imp___exit               004220fc     MSVCRT:MSVCR90.dll
 0002:00000100       __imp___XcptFilter         00422100     MSVCRT:MSVCR90.dll
 0002:00000104       __imp___ismbblead          00422104     MSVCRT:MSVCR90.dll
 0002:00000108       __imp__exit                00422108     MSVCRT:MSVCR90.dll
 0002:0000010c       __imp___acmdln             0042210c     MSVCRT:MSVCR90.dll
 0002:00000110       __imp___initterm           00422110     MSVCRT:MSVCR90.dll
 0002:00000114       __imp___initterm_e         00422114     MSVCRT:MSVCR90.dll
 0002:00000118       __imp___configthreadlocale 00422118     MSVCRT:MSVCR90.dll
 0002:0000011c       __imp____setusermatherr    0042211c     MSVCRT:MSVCR90.dll
 0002:00000120       __imp___adjust_fdiv        00422120     MSVCRT:MSVCR90.dll
 0002:00000124       __imp____p__commode        00422124     MSVCRT:MSVCR90.dll
 0002:00000128       __imp____p__fmode          00422128     MSVCRT:MSVCR90.dll
 0002:0000012c       __imp____set_app_type      0042212c     MSVCRT:MSVCR90.dll
 0002:00000130       __imp___except_handler4_common 00422130     MSVCRT:MSVCR90.dll
 0002:00000134       __imp_?terminate@@YAXXZ    00422134     MSVCRT:MSVCR90.dll
 0002:00000138       __imp_?_type_info_dtor_internal_method@type_info@@QAEXXZ 00422138     MSVCRT:MSVCR90.dll
 0002:0000013c       __imp___invoke_watson      0042213c     MSVCRT:MSVCR90.dll
 0002:00000140       __imp___controlfp_s        00422140     MSVCRT:MSVCR90.dll
 0002:00000144       __imp___crt_debugger_hook  00422144     MSVCRT:MSVCR90.dll
 0002:00000148       __imp__floor               00422148     MSVCRT:MSVCR90.dll
 0002:0000014c       __imp__memset              0042214c     MSVCRT:MSVCR90.dll
 0002:00000150       __imp___CxxThrowException@8 00422150     MSVCRT:MSVCR90.dll
 0002:00000154       __imp____dllonexit         00422154     MSVCRT:MSVCR90.dll
 0002:00000158       __imp___invalid_parameter_noinfo 00422158     MSVCRT:MSVCR90.dll
 0002:0000015c       __imp_??3@YAXPAX@Z         0042215c     MSVCRT:MSVCR90.dll
 0002:00000160       __imp_??2@YAPAXI@Z         00422160     MSVCRT:MSVCR90.dll
 0002:00000164       __imp__memmove_s           00422164     MSVCRT:MSVCR90.dll
 0002:00000168       __imp_?what@exception@std@@UBEPBDXZ 00422168     MSVCRT:MSVCR90.dll
 0002:0000016c       __imp_??1exception@std@@UAE@XZ 0042216c     MSVCRT:MSVCR90.dll
 0002:00000170       __imp_??0exception@std@@QAE@XZ 00422170     MSVCRT:MSVCR90.dll
 0002:00000174       __imp_??0exception@std@@QAE@ABQBD@Z 00422174     MSVCRT:MSVCR90.dll
 0002:00000178       __imp_??0exception@std@@QAE@ABV01@@Z 00422178     MSVCRT:MSVCR90.dll
 0002:0000017c       __imp___purecall           0042217c     MSVCRT:MSVCR90.dll
 0002:00000180       __imp__wcscpy_s            00422180     MSVCRT:MSVCR90.dll
 0002:00000184       __imp_??_V@YAXPAX@Z        00422184     MSVCRT:MSVCR90.dll
 0002:00000188       __imp___unlock             00422188     MSVCRT:MSVCR90.dll
 0002:0000018c       \177MSVCR90_NULL_THUNK_DATA 0042218c     MSVCRT:MSVCR90.dll
 0002:00000190       __imp__ExtractIconW@12     00422190     shell32:SHELL32.dll
 0002:00000194       \177SHELL32_NULL_THUNK_DATA 00422194     shell32:SHELL32.dll
 0002:00000198       __imp__PostQuitMessage@4   00422198     user32:USER32.dll
 0002:0000019c       __imp__LoadCursorW@8       0042219c     user32:USER32.dll
 0002:000001a0       __imp__RegisterClassExW@4  004221a0     user32:USER32.dll
 0002:000001a4       __imp__ShowWindow@8        004221a4     user32:USER32.dll
 0002:000001a8       __imp__CreateWindowExW@48  004221a8     user32:USER32.dll
 0002:000001ac       __imp__MessageBoxW@16      004221ac     user32:USER32.dll
 0002:000001b0       __imp__UpdateWindow@4      004221b0     user32:USER32.dll
 0002:000001b4       __imp__AdjustWindowRect@12 004221b4     user32:USER32.dll
 0002:000001b8       __imp__DestroyIcon@4       004221b8     user32:USER32.dll
 0002:000001bc       __imp__DefWindowProcW@16   004221bc     user32:USER32.dll
 0002:000001c0       __imp__TranslateMessage@4  004221c0     user32:USER32.dll
 0002:000001c4       __imp__PeekMessageW@20     004221c4     user32:USER32.dll
 0002:000001c8       __imp__DispatchMessageW@4  004221c8     user32:USER32.dll
 0002:000001cc       \177USER32_NULL_THUNK_DATA 004221cc     user32:USER32.dll
 0002:000001d0       __imp__D3D10CreateDevice@24 004221d0     d3d10:d3d10.dll
 0002:000001d4       \177d3d10_NULL_THUNK_DATA  004221d4     d3d10:d3d10.dll
 0002:000001d8       __imp__D3DXVec2Normalize@8 004221d8     d3dx10d:d3dx10d_43.dll
 0002:000001dc       __imp__D3DXQuaternionMultiply@12 004221dc     d3dx10d:d3dx10d_43.dll
 0002:000001e0       __imp__D3DXMatrixTranspose@8 004221e0     d3dx10d:d3dx10d_43.dll
 0002:000001e4       __imp__D3DXVec3Transform@12 004221e4     d3dx10d:d3dx10d_43.dll
 0002:000001e8       __imp__D3DXMatrixMultiply@12 004221e8     d3dx10d:d3dx10d_43.dll
 0002:000001ec       __imp__D3DXMatrixRotationQuaternion@8 004221ec     d3dx10d:d3dx10d_43.dll
 0002:000001f0       __imp__D3DXMatrixTranslation@16 004221f0     d3dx10d:d3dx10d_43.dll
 0002:000001f4       __imp__D3DX10CreateEffectFromFileW@48 004221f4     d3dx10d:d3dx10d_43.dll
 0002:000001f8       __imp__D3DXVec2CatmullRom@24 004221f8     d3dx10d:d3dx10d_43.dll
 0002:000001fc       __imp__D3DXIntersectTri@32 004221fc     d3dx10d:d3dx10d_43.dll
 0002:00000200       __imp__D3DXVec3Normalize@8 00422200     d3dx10d:d3dx10d_43.dll
 0002:00000204       __imp__D3DXVec3TransformCoord@12 00422204     d3dx10d:d3dx10d_43.dll
 0002:00000208       __imp__D3DXMatrixLookAtLH@16 00422208     d3dx10d:d3dx10d_43.dll
 0002:0000020c       __imp__D3DXMatrixPerspectiveFovLH@20 0042220c     d3dx10d:d3dx10d_43.dll
 0002:00000210       __imp__D3DX10CreateFontIndirectW@12 00422210     d3dx10d:d3dx10d_43.dll
 0002:00000214       \177d3dx10d_43_NULL_THUNK_DATA 00422214     d3dx10d:d3dx10d_43.dll
 0002:00000218       __imp__CreateDXGIFactory1@8 00422218     dxgi:dxgi.dll
 0002:0000021c       \177dxgi_NULL_THUNK_DATA   0042221c     dxgi:dxgi.dll
 0002:00000220       ___xc_a                    00422220     MSVCRT:cinitexe.obj
 0002:00000248       ___xc_z                    00422248     MSVCRT:cinitexe.obj
 0002:0000024c       ___xi_a                    0042224c     MSVCRT:cinitexe.obj
 0002:0000025c       ___xi_z                    0042225c     MSVCRT:cinitexe.obj
 0002:00000264       ??_7type_info@@6B@         00422264     MSVCRT:ti_inst.obj
 0002:00000270       ??_C@_0P@GHFPNOJB@bad?5allocation?$AA@ 00422270     GameApp.obj
 0002:00000280       ??_C@_01EEMJAFIK@?6?$AA@   00422280     GameApp.obj
 0002:00000284       ??_C@_05MKOPJMEO@FPS?3?5?$AA@ 00422284     GameApp.obj
 0002:0000028c       ??_C@_0M@BLJFLFOE@Triangles?3?5?$AA@ 0042228c     GameApp.obj
 0002:00000298       ??_7GameApp@@6B@           00422298     GameApp.obj
 0002:000002a8       ??_C@_05DPNLPLKI@COLOR?$AA@ 004222a8     StoredShaders.obj
 0002:000002b0       ??_C@_07HOFFNMLH@TANGENT?$AA@ 004222b0     StoredShaders.obj
 0002:000002b8       ??_C@_06IOJAGNKJ@NORMAL?$AA@ 004222b8     StoredShaders.obj
 0002:000002c0       ??_C@_08CMDKBPJM@TEXCOORD?$AA@ 004222c0     StoredShaders.obj
 0002:000002cc       ??_C@_08JPMAAECC@POSITION?$AA@ 004222cc     StoredShaders.obj
 0002:000002d8       ??_C@_0M@DGJNEOBP@PermTexture?$AA@ 004222d8     StoredShaders.obj
 0002:000002e4       ??_C@_08MFPPGFEN@textSSDO?$AA@ 004222e4     StoredShaders.obj
 0002:000002f0       ??_C@_07MPOLMJH@textPos?$AA@ 004222f0     StoredShaders.obj
 0002:000002f8       ??_C@_07KFCDKNHK@textNor?$AA@ 004222f8     StoredShaders.obj
 0002:00000300       ??_C@_07DMBCPPFH@textLig?$AA@ 00422300     StoredShaders.obj
 0002:00000308       ??_C@_07IDAIEKHI@textCol?$AA@ 00422308     StoredShaders.obj
 0002:00000310       ??_C@_0O@HBOLMJEB@fogCircCenter?$AA@ 00422310     StoredShaders.obj
 0002:00000320       ??_C@_0O@MGCNBJPP@fogCircRadius?$AA@ 00422320     StoredShaders.obj
 0002:00000330       ??_C@_0BA@NPGDKHP@fogYPlaneBottom?$AA@ 00422330     StoredShaders.obj
 0002:00000340       ??_C@_0N@KLJFCJGE@fogYPlaneTop?$AA@ 00422340     StoredShaders.obj
 0002:00000350       ??_C@_04CKPLOMKL@Comp?$AA@ 00422350     StoredShaders.obj
 0002:00000358       ??_C@_1DA@COOBOPKP@?$AAd?$AAe?$AAf?$AAe?$AAr?$AAr?$AAe?$AAd?$AA_?$AAc?$AAo?$AAm?$AAp?$AAo?$AAs?$AAi?$AAt?$AAi?$AAo?$AAn?$AA?4?$AAf?$AAx?$AA?$AA@ 00422358     StoredShaders.obj
 0002:00000388       ??_C@_0M@OAMDMGCI@textRandDir?$AA@ 00422388     StoredShaders.obj
 0002:00000394       ??_C@_07HGGOGKNG@textTan?$AA@ 00422394     StoredShaders.obj
 0002:0000039c       ??_C@_0M@ELICHMDP@g_NearPlane?$AA@ 0042239c     StoredShaders.obj
 0002:000003a8       ??_C@_0L@OGKDHANC@g_FarPlane?$AA@ 004223a8     StoredShaders.obj
 0002:000003b4       ??_C@_0L@PGMNCGBF@g_InvFocal?$AA@ 004223b4     StoredShaders.obj
 0002:000003c0       ??_C@_07POMDMENG@g_Focal?$AA@ 004223c0     StoredShaders.obj
 0002:000003c8       ??_C@_0BA@OPOJHEDL@g_InvResolution?$AA@ 004223c8     StoredShaders.obj
 0002:000003d8       ??_C@_0N@PPGNMIIB@g_Resolution?$AA@ 004223d8     StoredShaders.obj
 0002:000003e8       ??_C@_08KGKECLLN@g_Radius?$AA@ 004223e8     StoredShaders.obj
 0002:000003f4       ??_C@_09GFOMOKOC@g_TanBias?$AA@ 004223f4     StoredShaders.obj
 0002:00000400       ??_C@_08DNAPJOOK@ViewProj?$AA@ 00422400     StoredShaders.obj
 0002:0000040c       ??_C@_04OGMCGMPK@View?$AA@ 0042240c     StoredShaders.obj
 0002:00000414       ??_C@_04JJGPKJII@SSAO?$AA@ 00422414     StoredShaders.obj
 0002:0000041c       ??_C@_1BC@PGGMKFAA@?$AAs?$AAs?$AAa?$AAo?$AA2?$AA?4?$AAf?$AAx?$AA?$AA@ 0042241c     StoredShaders.obj
 0002:00000430       ??_C@_08FPEABDIO@textSeed?$AA@ 00422430     StoredShaders.obj
 0002:0000043c       ??_C@_0BC@DDEKNAJA@debug_singularity?$AA@ 0042243c     StoredShaders.obj
 0002:00000450       ??_C@_0P@LHHDOCHH@debug_strength?$AA@ 00422450     StoredShaders.obj
 0002:00000460       ??_C@_0BA@EFFLBGEI@debug_depthBias?$AA@ 00422460     StoredShaders.obj
 0002:00000470       ??_C@_0BE@DABPCEJJ@debug_sample_radius?$AA@ 00422470     StoredShaders.obj
 0002:00000484       ??_C@_0O@BEHBPCLB@ModelViewProj?$AA@ 00422484     StoredShaders.obj
 0002:00000494       ??_C@_09NJONDDNG@ModelView?$AA@ 00422494     StoredShaders.obj
 0002:000004a0       ??_C@_04JPKEGLGD@SSDO?$AA@ 004224a0     StoredShaders.obj
 0002:000004a8       ??_C@_1BA@OEIGDJAF@?$AAs?$AAs?$AAd?$AAo?$AA?4?$AAf?$AAx?$AA?$AA@ 004224a8     StoredShaders.obj
 0002:000004b8       ??_C@_0L@BOLPPGAH@textLightP?$AA@ 004224b8     StoredShaders.obj
 0002:000004c4       ??_C@_08LDCNKFDF@textCol2?$AA@ 004224c4     StoredShaders.obj
 0002:000004d0       ??_C@_08ICLGENPK@textTan2?$AA@ 004224d0     StoredShaders.obj
 0002:000004dc       ??_C@_08FNAFOPPO@textNor2?$AA@ 004224dc     StoredShaders.obj
 0002:000004e8       ??_C@_08IDBHKMCK@textPos2?$AA@ 004224e8     StoredShaders.obj
 0002:000004f4       ??_C@_04EMJPFKDD@lRad?$AA@ 004224f4     StoredShaders.obj
 0002:000004fc       ??_C@_04GGHNMNML@lCol?$AA@ 004224fc     StoredShaders.obj
 0002:00000504       ??_C@_04OJILDLCE@lPos?$AA@ 00422504     StoredShaders.obj
 0002:0000050c       ??_C@_06PGFDLAHA@camPos?$AA@ 0042250c     StoredShaders.obj
 0002:00000514       ??_C@_02PKAKCDMK@mP?$AA@   00422514     StoredShaders.obj
 0002:00000518       ??_C@_02KMFAIEEM@mV?$AA@   00422518     StoredShaders.obj
 0002:0000051c       ??_C@_02LFELLFAN@mW?$AA@   0042251c     StoredShaders.obj
 0002:00000520       ??_C@_0BD@ONNGOFJG@SSDO_LIGHTING_PASS?$AA@ 00422520     StoredShaders.obj
 0002:00000534       ??_C@_1CC@PPDKOFLB@?$AAs?$AAs?$AAd?$AAo?$AA_?$AAl?$AAi?$AAg?$AAh?$AAt?$AAi?$AAn?$AAg?$AA?4?$AAf?$AAx?$AA?$AA@ 00422534     StoredShaders.obj
 0002:00000558       ??_C@_06HCAKHJJK@Height?$AA@ 00422558     StoredShaders.obj
 0002:00000560       ??_C@_05IBAMDCFI@Width?$AA@ 00422560     StoredShaders.obj
 0002:00000568       ??_C@_04CINGDHMD@BLUR?$AA@ 00422568     StoredShaders.obj
 0002:00000570       ??_C@_1BK@HBDHKNKE@?$AAp?$AAo?$AAs?$AAt?$AA_?$AAb?$AAl?$AAu?$AAr?$AA?4?$AAf?$AAx?$AA?$AA@ 00422570     StoredShaders.obj
 0002:0000058c       ??_C@_0L@HJOMBOJA@Projection?$AA@ 0042258c     StoredShaders.obj
 0002:00000598       ??_C@_05MFLOHCHP@World?$AA@ 00422598     StoredShaders.obj
 0002:000005a0       ??_C@_0P@EFLFBEFE@DeferredRender?$AA@ 004225a0     StoredShaders.obj
 0002:000005b0       ??_C@_1BO@KAGKFCJG@?$AAD?$AAG?$AA_?$AAP?$AAN?$AAT?$AA_?$AAa?$AAr?$AAc?$AAh?$AA?4?$AAf?$AAx?$AA?$AA@ 004225b0     StoredShaders.obj
 0002:000005d0       ??_C@_0BL@CBFALJFC@?4?1Log?1Ships?1ShipPlayer?4txt?$AA@ 004225d0     BaseDX.obj
 0002:000005ec       ??_C@_0BJ@LBEFFBIE@?4?1Log?1World?1creation?4txt?$AA@ 004225ec     BaseDX.obj
 0002:00000608       ??_C@_1BK@GCGICCFN@?$AAi?$AAm?$AAg?$AA?2?$AAi?$AAc?$AAo?$AAn?$AA?4?$AAb?$AAm?$AAp?$AA?$AA@ 00422608     BaseDX.obj
 0002:00000624       ??_C@_1BO@MGMEPGCB@?$AAI?$AAc?$AAo?$AAn?$AAW?$AAn?$AAd?$AAC?$AAl?$AAa?$AAs?$AAs?$AAE?$AAx?$AA?$AA@ 00422624     BaseDX.obj
 0002:00000644       ??_C@_1CK@DDMLOBBG@?$AAR?$AAe?$AAg?$AAi?$AAs?$AAt?$AAe?$AAr?$AAC?$AAl?$AAa?$AAs?$AAs?$AA?5?$AAf?$AAa?$AAi?$AAl?$AAe?$AAd?$AA?$AA@ 00422644     BaseDX.obj
 0002:00000670       ??_C@_1CI@IMCKPAKE@?$AAC?$AAr?$AAe?$AAa?$AAt?$AAe?$AAW?$AAi?$AAn?$AAd?$AAo?$AAw?$AA?5?$AAf?$AAa?$AAi?$AAl?$AAe?$AAd?$AA?$AA@ 00422670     BaseDX.obj
 0002:00000698       ??_C@_02KEGNLNML@?0?5?$AA@ 00422698     BaseDX.obj
 0002:0000069c       ??_C@_06DGOEECHL@MEnd?3?5?$AA@ 0042269c     BaseDX.obj
 0002:000006a4       ??_C@_0BG@EOMJEIFA@vector?$DMbool?$DO?5too?5long?$AA@ 004226a4     BaseDX.obj
 0002:000006bc       ??_C@_0BD@OLBABOEK@vector?$DMT?$DO?5too?5long?$AA@ 004226bc     BaseDX.obj
 0002:000006d0       ??_7bad_alloc@std@@6B@     004226d0     BaseDX.obj
 0002:000006d8       ??_S?$basic_ofstream@DU?$char_traits@D@std@@@std@@6B@ 004226d8     BaseDX.obj
 0002:000006dc       ??_7logic_error@std@@6B@   004226dc     BaseDX.obj
 0002:000006e4       ??_7length_error@std@@6B@  004226e4     BaseDX.obj
 0002:000006ec       ??_7BaseDX@@6B@            004226ec     BaseDX.obj
 0002:000006fc       __GUID_7b7166ec_21c7_44ae_b21a_c9ae321ae369 004226fc     BaseDX.obj
 0002:0000070c       ??_C@_1CI@EOOFHBFI@?$AAU?$AAn?$AAd?$AAe?$AAr?$AAg?$AAr?$AAo?$AAu?$AAn?$AAd?$AA?5?$AAS?$AAe?$AAa?$AA?5?$AA9?$AA6?$AAk?$AA?$AA@ 0042270c     main.obj
 0002:00000734       ??_C@_1BA@DNKKBBGG@?$AAV?$AAe?$AAr?$AAd?$AAa?$AAn?$AAa?$AA?$AA@ 00422734     DeferredEngine.obj
 0002:00000744       ??_7DeferredEngine@@6B@    00422744     DeferredEngine.obj
 0002:00000748       __GUID_9b7e4c04_342c_4106_a19f_4f2704f689f0 00422748     DeferredEngine.obj
 0002:00000758       ??_C@_0BA@IFLEGOHI@Camera?5Target?3?5?$AA@ 00422758     CameraThidPerson.obj
 0002:00000768       ??_C@_0BB@MOGOBHAF@list?$DMT?$DO?5too?5long?$AA@ 00422768     Mesh.obj
 0002:0000077c       ??_C@_06BACILOGA@fx_4_0?$AA@ 0042277c     Shader.obj
 0002:00000788       ?mPermutation@Noise3d@1@0QBHB 00422788     Noise3d.obj
 0002:00000b88       ??_C@_07KGIOBO@Mouse?3?5?$AA@ 00422b88     Game.obj
 0002:00000b90       ??_7GameContext@@6B@       00422b90     GameContext.obj
 0002:00000ba0       ??_C@_0BB@PPCJKJNB@?4?1DummyCargo?4nbo?$AA@ 00422ba0     GameStateWorld.obj
 0002:00000bb4       ??_7GameStateWorld@@6B@    00422bb4     GameStateWorld.obj
 0002:00000bc0       ??_7GameState@@6B@         00422bc0     GameStateWorld.obj
 0002:00000bcc       ??_C@_03CGKMPMPC@T?3?5?$AA@ 00422bcc     RigidBodyOde.obj
 0002:00000bd0       ??_C@_07MMHJMMDF@Tdrag?3?5?$AA@ 00422bd0     RigidBodyOde.obj
 0002:00000bd8       ??_C@_09FENBOCOO@?5Height?3?5?$AA@ 00422bd8     WorldTerrain.obj
 0002:00000be4       ??_C@_0N@NCGEDEKJ@?5AproxArea?3?5?$AA@ 00422be4     WorldTerrain.obj
 0002:00000bf4       ??_C@_0O@BEIDFBOK@Mountain?5at?3?5?$AA@ 00422bf4     WorldTerrain.obj
 0002:00000c04       __real@3f000000            00422c04      CIL library: CIL module
 0002:00000c08       __real@3f800000            00422c08      CIL library: CIL module
 0002:00000c0c       __real@00000000            00422c0c      CIL library: CIL module
 0002:00000c10       __real@3c23d70a            00422c10      CIL library: CIL module
 0002:00000c14       __real@41233333            00422c14      CIL library: CIL module
 0002:00000c18       __real@4024000000000000    00422c18      CIL library: CIL module
 0002:00000c20       __real@402e000000000000    00422c20      CIL library: CIL module
 0002:00000c28       __real@4018000000000000    00422c28      CIL library: CIL module
 0002:00000c30       __real@bf800000            00422c30      CIL library: CIL module
 0002:00000c34       __real@42c80000            00422c34      CIL library: CIL module
 0002:00000c38       __real@3df0000000100000    00422c38      CIL library: CIL module
 0002:00000c40       __real@41f0000000000000    00422c40      CIL library: CIL module
 0002:00000c48       __real@c2480000            00422c48      CIL library: CIL module
 0002:00000c4c       __real@41200000            00422c4c      CIL library: CIL module
 0002:00000c50       __real@41a00000            00422c50      CIL library: CIL module
 0002:00000c54       __real@3fc90fdb            00422c54      CIL library: CIL module
 0002:00000c58       __real@3ff0000000000000    00422c58      CIL library: CIL module
 0002:00000c60       __real@4f800000            00422c60      CIL library: CIL module
 0002:00000c64       __real@447a0000            00422c64      CIL library: CIL module
 0002:00000c68       __real@40200000            00422c68      CIL library: CIL module
 0002:00000c6c       __real@3e800000            00422c6c      CIL library: CIL module
 0002:00000c70       __real@3e4ccccd            00422c70      CIL library: CIL module
 0002:00000c74       __real@c1200000            00422c74      CIL library: CIL module
 0002:00000c78       __real@40800000            00422c78      CIL library: CIL module
 0002:00000c7c       __real@3eaaaaab            00422c7c      CIL library: CIL module
 0002:00000c80       __real@2edbe6ff            00422c80      CIL library: CIL module
 0002:00000c84       __real@3a83126f            00422c84      CIL library: CIL module
 0002:00000c88       __real@358637bd            00422c88      CIL library: CIL module
 0002:00000c8c       __real@40500000            00422c8c      CIL library: CIL module
 0002:00000c90       __real@40b00000            00422c90      CIL library: CIL module
 0002:00000c94       __real@40000000            00422c94      CIL library: CIL module
 0002:00000c98       __real@3727c5ac            00422c98      CIL library: CIL module
 0002:00000c9c       __real@3dcccccd            00422c9c      CIL library: CIL module
 0002:00000ca0       __real@3f8ccccd            00422ca0      CIL library: CIL module
 0002:00000ca4       __real@41000000            00422ca4      CIL library: CIL module
 0002:00000ca8       __real@41040000            00422ca8      CIL library: CIL module
 0002:00000cb0       __real@3f50624de0000000    00422cb0      CIL library: CIL module
 0002:00000cb8       __real@c2c80000            00422cb8      CIL library: CIL module
 0002:00000cbc       __real@42480000            00422cbc      CIL library: CIL module
 0002:00000cc0       __real@3089705f            00422cc0      CIL library: CIL module
 0002:00000cc4       __real@bf400000            00422cc4      CIL library: CIL module
 0002:00000cc8       __real@457a0000            00422cc8      CIL library: CIL module
 0002:00000ccc       __real@40cccccd            00422ccc      CIL library: CIL module
 0002:00000cd0       __real@3df5c28f            00422cd0      CIL library: CIL module
 0002:00000cd4       __real@3d75c28f            00422cd4      CIL library: CIL module
 0002:00000cd8       __real@3cf5c28f            00422cd8      CIL library: CIL module
 0002:00000cdc       __real@3fc00000            00422cdc      CIL library: CIL module
 0002:00000ce0       __real@43fa0000            00422ce0      CIL library: CIL module
 0002:00000ce8       __real@40ac1ffff3800000    00422ce8      CIL library: CIL module
 0002:00000cf0       __real@40052e38            00422cf0      CIL library: CIL module
 0002:00000cf4       __real@3f99999a            00422cf4      CIL library: CIL module
 0002:00000cf8       __real@3f19999a            00422cf8      CIL library: CIL module
 0002:00000cfc       __real@42a00000            00422cfc      CIL library: CIL module
 0002:00000d00       __real@41f00000            00422d00      CIL library: CIL module
 0002:00000d04       __real@42200000            00422d04      CIL library: CIL module
 0002:00000d08       __load_config_used         00422d08     MSVCRT:loadcfg.obj
 0002:00000d50       ??_R4type_info@@6B@        00422d50     MSVCRT:ti_inst.obj
 0002:00000d64       ??_R3type_info@@8          00422d64     MSVCRT:ti_inst.obj
 0002:00000d74       ??_R2type_info@@8          00422d74     MSVCRT:ti_inst.obj
 0002:00000d7c       ??_R1A@?0A@EA@type_info@@8 00422d7c     MSVCRT:ti_inst.obj
 0002:00000da0       ___safe_se_handler_table   00422da0     <linker-defined>
 0002:00000f0c       ___rtc_iaa                 00422f0c     MSVCRT:_initsect_.obj
 0002:00000f10       ___rtc_izz                 00422f10     MSVCRT:_initsect_.obj
 0002:00000f14       ___rtc_taa                 00422f14     MSVCRT:_initsect_.obj
 0002:00000f18       ___rtc_tzz                 00422f18     MSVCRT:_initsect_.obj
 0002:00000fc4       __CT??_R0?AVexception@std@@@8??0exception@std@@QAE@ABV01@@Z12 00422fc4     BaseDX.obj
 0002:00000fe0       __CT??_R0?AVlogic_error@std@@@8??0logic_error@std@@QAE@ABV01@@Z40 00422fe0     BaseDX.obj
 0002:00000ffc       __CT??_R0?AVlength_error@std@@@8??0length_error@std@@QAE@ABV01@@Z40 00422ffc     BaseDX.obj
 0002:00001018       __CTA3?AVlength_error@std@@ 00423018     BaseDX.obj
 0002:00001028       __TI3?AVlength_error@std@@ 00423028     BaseDX.obj
 0002:00001038       __CT??_R0?AVbad_alloc@std@@@8??0bad_alloc@std@@QAE@ABV01@@Z12 00423038     BaseDX.obj
 0002:00001054       __CTA2?AVbad_alloc@std@@   00423054     BaseDX.obj
 0002:00001060       __TI2?AVbad_alloc@std@@    00423060     BaseDX.obj
 0002:000034c4       __IMPORT_DESCRIPTOR_d3d10  004254c4     d3d10:d3d10.dll
 0002:000034d8       __IMPORT_DESCRIPTOR_d3dx10d_43 004254d8     d3dx10d:d3dx10d_43.dll
 0002:000034ec       __IMPORT_DESCRIPTOR_dxgi   004254ec     dxgi:dxgi.dll
 0002:00003500       __IMPORT_DESCRIPTOR_KERNEL32 00425500     kernel32:KERNEL32.dll
 0002:00003514       __IMPORT_DESCRIPTOR_USER32 00425514     user32:USER32.dll
 0002:00003528       __IMPORT_DESCRIPTOR_GDI32  00425528     gdi32:GDI32.dll
 0002:0000353c       __IMPORT_DESCRIPTOR_SHELL32 0042553c     shell32:SHELL32.dll
 0002:00003550       __IMPORT_DESCRIPTOR_MSVCP90 00425550     msvcprt:MSVCP90.dll
 0002:00003564       __IMPORT_DESCRIPTOR_MSVCR90 00425564     MSVCRT:MSVCR90.dll
 0002:00003578       __NULL_IMPORT_DESCRIPTOR   00425578     d3d10:d3d10.dll
 0003:00000004       ??_R0?AVtype_info@@@8      00427004     MSVCRT:ti_inst.obj
 0003:0000001c       ___native_dllmain_reason   0042701c     MSVCRT:natstart.obj
 0003:00000020       ___native_vcclrit_reason   00427020     MSVCRT:natstart.obj
 0003:00000024       ___globallocalestatus      00427024     MSVCRT:xthdloc.obj
 0003:00000028       ___defaultmatherr          00427028     MSVCRT:merr.obj
 0003:0000002c       ___security_cookie         0042702c     MSVCRT:gs_cookie.obj
 0003:00000030       ___security_cookie_complement 00427030     MSVCRT:gs_cookie.obj
 0003:00000138       ?gSplineFwdForce@@3PAMA    00427138     StoredSplines.obj
 0003:00000288       ?gShipTForceFwdSpline@@3UStoredSplineDesc@@A 00427288     StoredSplines.obj
 0003:00000290       ?layout_1@@3PAUD3D10_INPUT_ELEMENT_DESC@@A 00427290     StoredShaders.obj
 0003:000002c8       ?layout_2@@3PAUD3D10_INPUT_ELEMENT_DESC@@A 004272c8     StoredShaders.obj
 0003:00000300       ?layout_3@@3PAUD3D10_INPUT_ELEMENT_DESC@@A 00427300     StoredShaders.obj
 0003:00000320       ?layout_4@@3PAUD3D10_INPUT_ELEMENT_DESC@@A 00427320     StoredShaders.obj
 0003:00000378       ?layout_5@@3PAUD3D10_INPUT_ELEMENT_DESC@@A 00427378     StoredShaders.obj
 0003:000003cc       ?layout_6@@3PAUD3D10_INPUT_ELEMENT_DESC@@A 004273cc     StoredShaders.obj
 0003:00000408       ?layout_7@@3PAUD3D10_INPUT_ELEMENT_DESC@@A 00427408     StoredShaders.obj
 0003:00000478       ?shaderVertexLayouts@@3PAUVertexLayout@@A 00427478     StoredShaders.obj
 0003:000004b0       ?gStoredShaders@@3PAPAUShaderClassData@@A 004274b0     StoredShaders.obj
 0003:00000598       ?shaderDeferredComposition@@3UShaderClassData@@A 00427598     StoredShaders.obj
 0003:00000818       ?shaderDeferredSSAO@@3UShaderClassData@@A 00427818     StoredShaders.obj
 0003:00000a98       ?shaderDeferredSSDO@@3UShaderClassData@@A 00427a98     StoredShaders.obj
 0003:00000d18       ?shaderDeferredLighting@@3UShaderClassData@@A 00427d18     StoredShaders.obj
 0003:00000f98       ?shaderPostBlur@@3UShaderClassData@@A 00427f98     StoredShaders.obj
 0003:00001218       ?shaderDeferredGeometryV_PNT_Arch@@3UShaderClassData@@A 00428218     StoredShaders.obj
 0003:00004558       ??_R0?AVexception@std@@@8  0042b558     BaseDX.obj
 0003:00004574       ??_R0?AVlogic_error@std@@@8 0042b574     BaseDX.obj
 0003:00004594       ??_R0?AVlength_error@std@@@8 0042b594     BaseDX.obj
 0003:000045b4       ??_R0?AVbad_alloc@std@@@8  0042b5b4     BaseDX.obj
 0003:000045d0       ?mag01@?1??genrand_int32@Mersenne@2@QAEKXZ@4PAKA 0042b5d0     RandomNumberGenerator.obj
 0003:00004600       __dowildcard               0042b600     MSVCRT:wildcard.obj
 0003:00004604       __newmode                  0042b604     MSVCRT:_newmode.obj
 0003:00004608       __commode                  0042b608     MSVCRT:xncommod.obj
 0003:0000460c       __fmode                    0042b60c     MSVCRT:xtxtmode.obj
 0003:00004938       ?md3dDevice@Global@@3PAUID3D10Device@@A 0042b938     Global.obj
 0003:0000493c       ?newFaces@@3PAHA           0042b93c     Delaunay.obj
 0003:00004948       ?face_edges@@3PAHA         0042b948     Delaunay.obj
 0003:00004954       ?vn@@3HA                   0042b954     Delaunay.obj
 0003:00004958       ?mWorleyTextureSRV@ShaderManager@@2PAUID3D10ShaderResourceView@@A 0042b958     ShaderManager.obj
 0003:0000495c       ?md3dDevice@ShaderManager@@0PAUID3D10Device@@A 0042b95c     ShaderManager.obj
 0003:00004960       ?mWorleyTexture@ShaderManager@@0PAUID3D10Texture1D@@A 0042b960     ShaderManager.obj
 0003:00004964       ?mFileWorldCreation@Log@@2PAV?$basic_ofstream@DU?$char_traits@D@std@@@std@@A 0042b964     Log.obj
 0003:00004968       ?mFileShipPlayer@Log@@2PAV?$basic_ofstream@DU?$char_traits@D@std@@@std@@A 0042b968     Log.obj
 0003:0000496c       __fltused                  0042b96c     Intersections2d.obj
 0003:00004970       ?mInitializedCount@ShaderManager@@0HA 0042b970     ShaderManager.obj
 0003:00004974       ?mInitialized@ShaderManager@@0_NA 0042b974     ShaderManager.obj
 0003:00004975       ?mInitialized@Noise3d@1@0_NA 0042b975     Noise3d.obj
 0003:00004976       ?mInitialized@Log@@0_NA    0042b976     Log.obj
 0003:00004978       ?mReferences@Log@@0HA      0042b978     Log.obj
 0003:00004980       ?mShaderTable@ShaderManager@@2PAVShader@@A 0042b980     ShaderManager.obj
 0003:00005ac0       ?mP@Noise3d@1@0V?$vector@HV?$allocator@H@std@@@std@@A 0042cac0     Noise3d.obj
 0003:00005ad8       ___sse2_available          0042cad8     <common>
 0003:00005adc       __adjust_fdiv              0042cadc     <common>
 0003:00005ae0       ___native_startup_state    0042cae0     <common>
 0003:00005ae4       ___native_startup_lock     0042cae4     <common>
 0003:00005ae8       ___dyn_tls_init_callback   0042cae8     <common>
 0003:00005aec       ___onexitend               0042caec     <common>
 0003:00005af0       ___onexitbegin             0042caf0     <common>

 entry point at        0001:0001f513

 Static symbols

 0001:0000067e       __catch$??$?6U?$char_traits@D@std@@@std@@YAAAV?$basic_ostream@DU?$char_traits@D@std@@@0@AAV10@PBD@Z$0 0040167e f i  CIL library: CIL module
 0001:00003d65       __catch$??0?$vector@HV?$allocator@H@std@@@std@@QAE@ABV01@@Z$0 00404d65 f i  CIL library: CIL module
 0001:00003e34       __catch$??0?$vector@UD3DXVECTOR3@@V?$allocator@UD3DXVECTOR3@@@std@@@std@@QAE@ABV01@@Z$0 00404e34 f i  CIL library: CIL module
 0001:000041d8       __catch$??0?$vector@USelection@ObjEd@@V?$allocator@USelection@ObjEd@@@std@@@std@@QAE@ABV01@@Z$0 004051d8 f i  CIL library: CIL module
 0001:000056e5       __catch$?_Buynode@?$list@HV?$allocator@H@std@@@std@@IAEPAU_Node@?$_List_nod@HV?$allocator@H@std@@@2@XZ$0 004066e5 f i  CIL library: CIL module
 0001:00005a92       __catch$?_Insert_n@?$vector@PAVTimeTorque@@V?$allocator@PAVTimeTorque@@@std@@@std@@IAEXV?$_Vector_const_iterator@PAVTimeTorque@@V?$allocator@PAVTimeTorque@@@std@@@2@IABQAVTimeTorque@@@Z$0 00406a92 f i  CIL library: CIL module
 0001:00005a92       __catch$?_Insert_n@?$vector@PAVTimeForce@@V?$allocator@PAVTimeForce@@@std@@@std@@IAEXV?$_Vector_const_iterator@PAVTimeForce@@V?$allocator@PAVTimeForce@@@std@@@2@IABQAVTimeForce@@@Z$0 00406a92 f i  CIL library: CIL module
 0001:00005a92       __catch$?_Insert_n@?$vector@PAVMeshComponent@@V?$allocator@PAVMeshComponent@@@std@@@std@@IAEXV?$_Vector_const_iterator@PAVMeshComponent@@V?$allocator@PAVMeshComponent@@@std@@@2@IABQAVMeshComponent@@@Z$0 00406a92 f i  CIL library: CIL module
 0001:00005a9b       __catch$?_Insert_n@?$vector@PAVTimeForce@@V?$allocator@PAVTimeForce@@@std@@@std@@IAEXV?$_Vector_const_iterator@PAVTimeForce@@V?$allocator@PAVTimeForce@@@std@@@2@IABQAVTimeForce@@@Z$2 00406a9b f i  CIL library: CIL module
 0001:00005a9b       __catch$?_Insert_n@?$vector@PAVTimeTorque@@V?$allocator@PAVTimeTorque@@@std@@@std@@IAEXV?$_Vector_const_iterator@PAVTimeTorque@@V?$allocator@PAVTimeTorque@@@std@@@2@IABQAVTimeTorque@@@Z$2 00406a9b f i  CIL library: CIL module
 0001:00005a9b       __catch$?_Insert_n@?$vector@PAVMeshComponent@@V?$allocator@PAVMeshComponent@@@std@@@std@@IAEXV?$_Vector_const_iterator@PAVMeshComponent@@V?$allocator@PAVMeshComponent@@@std@@@2@IABQAVMeshComponent@@@Z$2 00406a9b f i  CIL library: CIL module
 0001:00005cc4       __catch$?_Insert_n@?$vector@UBevelVInfo@ObjEd@@V?$allocator@UBevelVInfo@ObjEd@@@std@@@std@@IAEXV?$_Vector_const_iterator@UBevelVInfo@ObjEd@@V?$allocator@UBevelVInfo@ObjEd@@@std@@@2@IABUBevelVInfo@ObjEd@@@Z$0 00406cc4 f i  CIL library: CIL module
 0001:00005d68       __catch$?_Insert_n@?$vector@UBevelVInfo@ObjEd@@V?$allocator@UBevelVInfo@ObjEd@@@std@@@std@@IAEXV?$_Vector_const_iterator@UBevelVInfo@ObjEd@@V?$allocator@UBevelVInfo@ObjEd@@@std@@@2@IABUBevelVInfo@ObjEd@@@Z$2 00406d68 f i  CIL library: CIL module
 0001:00005f19       __catch$?_Insert_n@?$vector@UExtrudeMatrixInfo@ObjEd@@V?$allocator@UExtrudeMatrixInfo@ObjEd@@@std@@@std@@IAEXV?$_Vector_const_iterator@UExtrudeMatrixInfo@ObjEd@@V?$allocator@UExtrudeMatrixInfo@ObjEd@@@std@@@2@IABUExtrudeMatrixInfo@ObjEd@@@Z$0 00406f19 f i  CIL library: CIL module
 0001:00005f19       __catch$?_Insert_n@?$vector@UExtrudeInfo@ObjEd@@V?$allocator@UExtrudeInfo@ObjEd@@@std@@@std@@IAEXV?$_Vector_const_iterator@UExtrudeInfo@ObjEd@@V?$allocator@UExtrudeInfo@ObjEd@@@std@@@2@IABUExtrudeInfo@ObjEd@@@Z$0 00406f19 f i  CIL library: CIL module
 0001:00005fb9       __catch$?_Insert_n@?$vector@UExtrudeInfo@ObjEd@@V?$allocator@UExtrudeInfo@ObjEd@@@std@@@std@@IAEXV?$_Vector_const_iterator@UExtrudeInfo@ObjEd@@V?$allocator@UExtrudeInfo@ObjEd@@@std@@@2@IABUExtrudeInfo@ObjEd@@@Z$2 00406fb9 f i  CIL library: CIL module
 0001:00005fb9       __catch$?_Insert_n@?$vector@UExtrudeMatrixInfo@ObjEd@@V?$allocator@UExtrudeMatrixInfo@ObjEd@@@std@@@std@@IAEXV?$_Vector_const_iterator@UExtrudeMatrixInfo@ObjEd@@V?$allocator@UExtrudeMatrixInfo@ObjEd@@@std@@@2@IABUExtrudeMatrixInfo@ObjEd@@@Z$2 00406fb9 f i  CIL library: CIL module
 0001:0000619a       __catch$?_Insert_n@?$vector@UExtrudeInnerInfo@ObjEd@@V?$allocator@UExtrudeInnerInfo@ObjEd@@@std@@@std@@IAEXV?$_Vector_const_iterator@UExtrudeInnerInfo@ObjEd@@V?$allocator@UExtrudeInnerInfo@ObjEd@@@std@@@2@IABUExtrudeInnerInfo@ObjEd@@@Z$0 0040719a f i  CIL library: CIL module
 0001:0000623c       __catch$?_Insert_n@?$vector@UExtrudeInnerInfo@ObjEd@@V?$allocator@UExtrudeInnerInfo@ObjEd@@@std@@@std@@IAEXV?$_Vector_const_iterator@UExtrudeInnerInfo@ObjEd@@V?$allocator@UExtrudeInnerInfo@ObjEd@@@std@@@2@IABUExtrudeInnerInfo@ObjEd@@@Z$2 0040723c f i  CIL library: CIL module
 0001:0000640c       __catch$?_Insert_n@?$vector@UNorScaleInfo@ObjEd@@V?$allocator@UNorScaleInfo@ObjEd@@@std@@@std@@IAEXV?$_Vector_const_iterator@UNorScaleInfo@ObjEd@@V?$allocator@UNorScaleInfo@ObjEd@@@std@@@2@IABUNorScaleInfo@ObjEd@@@Z$0 0040740c f i  CIL library: CIL module
 0001:000064a7       __catch$?_Insert_n@?$vector@UNorScaleInfo@ObjEd@@V?$allocator@UNorScaleInfo@ObjEd@@@std@@@std@@IAEXV?$_Vector_const_iterator@UNorScaleInfo@ObjEd@@V?$allocator@UNorScaleInfo@ObjEd@@@std@@@2@IABUNorScaleInfo@ObjEd@@@Z$2 004074a7 f i  CIL library: CIL module
 0001:000065fe       __catch$?_Buynode@?$list@HV?$allocator@H@std@@@std@@IAEPAU_Node@?$_List_nod@HV?$allocator@H@std@@@2@PAU342@0ABH@Z$0 004075fe f i  CIL library: CIL module
 0001:00006801       __catch$??0?$vector@V?$vector@PAVHE_vert@@V?$allocator@PAVHE_vert@@@std@@@std@@V?$allocator@V?$vector@PAVHE_vert@@V?$allocator@PAVHE_vert@@@std@@@std@@@2@@std@@QAE@ABV01@@Z$0 00407801 f i  CIL library: CIL module
 0001:000068d5       __catch$??0?$vector@PAVStaticRigidBody@@V?$allocator@PAVStaticRigidBody@@@std@@@std@@QAE@ABV01@@Z$0 004078d5 f i  CIL library: CIL module
 0001:000068d5       __catch$??0?$vector@PAVHE_vert@@V?$allocator@PAVHE_vert@@@std@@@std@@QAE@ABV01@@Z$0 004078d5 f i  CIL library: CIL module
 0001:000068d5       __catch$??0?$vector@PAVHE_edge@@V?$allocator@PAVHE_edge@@@std@@@std@@QAE@ABV01@@Z$0 004078d5 f i  CIL library: CIL module
 0001:00006d8c       __catch$??$_Construct@V?$_Vector_const_iterator@USelection@ObjEd@@V?$allocator@USelection@ObjEd@@@std@@@std@@@?$vector@USelection@ObjEd@@V?$allocator@USelection@ObjEd@@@std@@@std@@QAEXV?$_Vector_const_iterator@USelection@ObjEd@@V?$allocator@USelection@ObjEd@@@std@@@1@0Uinput_iterator_tag@1@@Z$0 00407d8c f i  CIL library: CIL module
 0001:00006f62       __catch$??$_Uninit_fill_n@PAUBevelVInfo@ObjEd@@IU12@V?$allocator@UBevelVInfo@ObjEd@@@std@@@std@@YAXPAUBevelVInfo@ObjEd@@IABU12@AAV?$allocator@UBevelVInfo@ObjEd@@@0@U_Nonscalar_ptr_iterator_tag@0@U_Range_checked_iterator_tag@0@@Z$0 00407f62 f i  CIL library: CIL module
 0001:00006fcb       __catch$??$_Uninit_fill_n@PAUExtrudeMatrixInfo@ObjEd@@IU12@V?$allocator@UExtrudeMatrixInfo@ObjEd@@@std@@@std@@YAXPAUExtrudeMatrixInfo@ObjEd@@IABU12@AAV?$allocator@UExtrudeMatrixInfo@ObjEd@@@0@U_Nonscalar_ptr_iterator_tag@0@U_Range_checked_iterator_tag@0@@Z$0 00407fcb f i  CIL library: CIL module
 0001:00006fcb       __catch$??$_Uninit_fill_n@PAUExtrudeInfo@ObjEd@@IU12@V?$allocator@UExtrudeInfo@ObjEd@@@std@@@std@@YAXPAUExtrudeInfo@ObjEd@@IABU12@AAV?$allocator@UExtrudeInfo@ObjEd@@@0@U_Nonscalar_ptr_iterator_tag@0@U_Range_checked_iterator_tag@0@@Z$0 00407fcb f i  CIL library: CIL module
 0001:00007034       __catch$??$_Uninit_fill_n@PAUExtrudeInnerInfo@ObjEd@@IU12@V?$allocator@UExtrudeInnerInfo@ObjEd@@@std@@@std@@YAXPAUExtrudeInnerInfo@ObjEd@@IABU12@AAV?$allocator@UExtrudeInnerInfo@ObjEd@@@0@U_Nonscalar_ptr_iterator_tag@0@U_Range_checked_iterator_tag@0@@Z$0 00408034 f i  CIL library: CIL module
 0001:0000709d       __catch$??$_Uninit_fill_n@PAUNorScaleInfo@ObjEd@@IU12@V?$allocator@UNorScaleInfo@ObjEd@@@std@@@std@@YAXPAUNorScaleInfo@ObjEd@@IABU12@AAV?$allocator@UNorScaleInfo@ObjEd@@@0@U_Nonscalar_ptr_iterator_tag@0@U_Range_checked_iterator_tag@0@@Z$0 0040809d f i  CIL library: CIL module
 0001:00007171       __catch$??$_Uninit_copy@PBUD3DXVECTOR3@@PAU1@V?$allocator@UD3DXVECTOR3@@@std@@@std@@YAPAUD3DXVECTOR3@@PBU1@0PAU1@AAV?$allocator@UD3DXVECTOR3@@@0@U_Nonscalar_ptr_iterator_tag@0@U_Range_checked_iterator_tag@0@@Z$0 00408171 f i  CIL library: CIL module
 0001:00007171       __catch$??$_Uninit_copy@PBUSelection@ObjEd@@PAU12@V?$allocator@USelection@ObjEd@@@std@@@std@@YAPAUSelection@ObjEd@@PBU12@0PAU12@AAV?$allocator@USelection@ObjEd@@@0@U_Nonscalar_ptr_iterator_tag@0@U_Range_checked_iterator_tag@0@@Z$0 00408171 f i  CIL library: CIL module
 0001:00007171       __catch$??$_Uninit_copy@PAUSelection@ObjEd@@PAU12@V?$allocator@USelection@ObjEd@@@std@@@std@@YAPAUSelection@ObjEd@@PAU12@00AAV?$allocator@USelection@ObjEd@@@0@U_Nonscalar_ptr_iterator_tag@0@U_Range_checked_iterator_tag@0@@Z$0 00408171 f i  CIL library: CIL module
 0001:00007171       __catch$??$_Uninit_copy@PAUD3DXVECTOR3@@PAU1@V?$allocator@UD3DXVECTOR3@@@std@@@std@@YAPAUD3DXVECTOR3@@PAU1@00AAV?$allocator@UD3DXVECTOR3@@@0@U_Nonscalar_ptr_iterator_tag@0@U_Range_checked_iterator_tag@0@@Z$0 00408171 f i  CIL library: CIL module
 0001:000071c9       __catch$??$_Uninit_copy@PBV?$vector@PAVHE_vert@@V?$allocator@PAVHE_vert@@@std@@@std@@PAV12@V?$allocator@V?$vector@PAVHE_vert@@V?$allocator@PAVHE_vert@@@std@@@std@@@2@@std@@YAPAV?$vector@PAVHE_vert@@V?$allocator@PAVHE_vert@@@std@@@0@PBV10@0PAV10@AAV?$allocator@V?$vector@PAVHE_vert@@V?$allocator@PAVHE_vert@@@std@@@std@@@0@U_Nonscalar_ptr_iterator_tag@0@U_Range_checked_iterator_tag@0@@Z$0 004081c9 f i  CIL library: CIL module
 0001:000071c9       __catch$??$_Uninit_copy@PAV?$vector@PAVHE_vert@@V?$allocator@PAVHE_vert@@@std@@@std@@PAV12@V?$allocator@V?$vector@PAVHE_vert@@V?$allocator@PAVHE_vert@@@std@@@std@@@2@@std@@YAPAV?$vector@PAVHE_vert@@V?$allocator@PAVHE_vert@@@std@@@0@PAV10@00AAV?$allocator@V?$vector@PAVHE_vert@@V?$allocator@PAVHE_vert@@@std@@@std@@@0@U_Nonscalar_ptr_iterator_tag@0@U_Range_checked_iterator_tag@0@@Z$0 004081c9 f i  CIL library: CIL module
 0001:00007238       __catch$??$_Uninit_copy@PAUEdgeIntersection@ObjEd@@PAU12@V?$allocator@UEdgeIntersection@ObjEd@@@std@@@std@@YAPAUEdgeIntersection@ObjEd@@PAU12@00AAV?$allocator@UEdgeIntersection@ObjEd@@@0@U_Nonscalar_ptr_iterator_tag@0@U_Range_checked_iterator_tag@0@@Z$0 00408238 f i  CIL library: CIL module
 0001:000073bd       __catch$??$_Insert@V?$_Vector_const_iterator@USelection@ObjEd@@V?$allocator@USelection@ObjEd@@@std@@@std@@@?$vector@USelection@ObjEd@@V?$allocator@USelection@ObjEd@@@std@@@std@@QAEXV?$_Vector_const_iterator@USelection@ObjEd@@V?$allocator@USelection@ObjEd@@@std@@@1@00Uforward_iterator_tag@1@@Z$0 004083bd f i  CIL library: CIL module
 0001:000074a2       __catch$??$_Uninit_copy@PAUBevelVInfo@ObjEd@@PAU12@V?$allocator@UBevelVInfo@ObjEd@@@std@@@std@@YAPAUBevelVInfo@ObjEd@@PAU12@00AAV?$allocator@UBevelVInfo@ObjEd@@@0@U_Nonscalar_ptr_iterator_tag@0@U_Range_checked_iterator_tag@0@@Z$0 004084a2 f i  CIL library: CIL module
 0001:0000750e       __catch$??$_Uninit_copy@PAUExtrudeInfo@ObjEd@@PAU12@V?$allocator@UExtrudeInfo@ObjEd@@@std@@@std@@YAPAUExtrudeInfo@ObjEd@@PAU12@00AAV?$allocator@UExtrudeInfo@ObjEd@@@0@U_Nonscalar_ptr_iterator_tag@0@U_Range_checked_iterator_tag@0@@Z$0 0040850e f i  CIL library: CIL module
 0001:0000750e       __catch$??$_Uninit_copy@PAUExtrudeMatrixInfo@ObjEd@@PAU12@V?$allocator@UExtrudeMatrixInfo@ObjEd@@@std@@@std@@YAPAUExtrudeMatrixInfo@ObjEd@@PAU12@00AAV?$allocator@UExtrudeMatrixInfo@ObjEd@@@0@U_Nonscalar_ptr_iterator_tag@0@U_Range_checked_iterator_tag@0@@Z$0 0040850e f i  CIL library: CIL module
 0001:0000757b       __catch$??$_Uninit_copy@PAUExtrudeInnerInfo@ObjEd@@PAU12@V?$allocator@UExtrudeInnerInfo@ObjEd@@@std@@@std@@YAPAUExtrudeInnerInfo@ObjEd@@PAU12@00AAV?$allocator@UExtrudeInnerInfo@ObjEd@@@0@U_Nonscalar_ptr_iterator_tag@0@U_Range_checked_iterator_tag@0@@Z$0 0040857b f i  CIL library: CIL module
 0001:000075e7       __catch$??$_Uninit_copy@PAUNorScaleInfo@ObjEd@@PAU12@V?$allocator@UNorScaleInfo@ObjEd@@@std@@@std@@YAPAUNorScaleInfo@ObjEd@@PAU12@00AAV?$allocator@UNorScaleInfo@ObjEd@@@0@U_Nonscalar_ptr_iterator_tag@0@U_Range_checked_iterator_tag@0@@Z$0 004085e7 f i  CIL library: CIL module
 0001:0000aa22       __catch$?_Construct_n@?$vector@UEdgeBevelE@?3??bevelEStart@MeshComponent@@QAE?AUBevelEInfo@ObjEd@@AAV?$vector@USelection@ObjEd@@V?$allocator@USelection@ObjEd@@@std@@@std@@@Z@V?$allocator@UEdgeBevelE@?3??bevelEStart@MeshComponent@@QAE?AUBevelEInfo@ObjEd@@AAV?$vector@USelection@ObjEd@@V?$allocator@USelection@ObjEd@@@std@@@std@@@Z@@7@@std@@QAEXIABUEdgeBevelE@?3??bevelEStart@MeshComponent@@QAE?AUBevelEInfo@ObjEd@@AAV?$vector@USelection@ObjEd@@V?$allocator@USelection@ObjEd@@@std@@@2@@Z@@Z$0 0040ba22 f i  CIL library: CIL module
 0001:0000aa9f       __catch$?_Construct_n@?$vector@UBevelEIntermidiateSharedNEdge@MeshComponent@@V?$allocator@UBevelEIntermidiateSharedNEdge@MeshComponent@@@std@@@std@@QAEXIABUBevelEIntermidiateSharedNEdge@MeshComponent@@@Z$0 0040ba9f f i  CIL library: CIL module
 0001:0000ac31       __catch$?_Construct_n@?$vector@UBevelESharedNEdgeGroup@MeshComponent@@V?$allocator@UBevelESharedNEdgeGroup@MeshComponent@@@std@@@std@@QAEXIABUBevelESharedNEdgeGroup@MeshComponent@@@Z$0 0040bc31 f i  CIL library: CIL module
 0001:0000ae2f       __catch$?_Insert_n@?$vector@UD3DXVECTOR3@@V?$allocator@UD3DXVECTOR3@@@std@@@std@@IAEXV?$_Vector_const_iterator@UD3DXVECTOR3@@V?$allocator@UD3DXVECTOR3@@@std@@@2@IABUD3DXVECTOR3@@@Z$0 0040be2f f i  CIL library: CIL module
 0001:0000ae38       __catch$?_Insert_n@?$vector@UD3DXVECTOR3@@V?$allocator@UD3DXVECTOR3@@@std@@@std@@IAEXV?$_Vector_const_iterator@UD3DXVECTOR3@@V?$allocator@UD3DXVECTOR3@@@std@@@2@IABUD3DXVECTOR3@@@Z$2 0040be38 f i  CIL library: CIL module
 0001:0000b098       __catch$?_Insert_n@?$vector@UBevelEIntermidiateSharedNEdge@MeshComponent@@V?$allocator@UBevelEIntermidiateSharedNEdge@MeshComponent@@@std@@@std@@IAEXV?$_Vector_const_iterator@UBevelEIntermidiateSharedNEdge@MeshComponent@@V?$allocator@UBevelEIntermidiateSharedNEdge@MeshComponent@@@std@@@2@IABUBevelEIntermidiateSharedNEdge@MeshComponent@@@Z$0 0040c098 f i  CIL library: CIL module
 0001:0000b0a1       __catch$?_Insert_n@?$vector@UBevelEIntermidiateSharedNEdge@MeshComponent@@V?$allocator@UBevelEIntermidiateSharedNEdge@MeshComponent@@@std@@@std@@IAEXV?$_Vector_const_iterator@UBevelEIntermidiateSharedNEdge@MeshComponent@@V?$allocator@UBevelEIntermidiateSharedNEdge@MeshComponent@@@std@@@2@IABUBevelEIntermidiateSharedNEdge@MeshComponent@@@Z$2 0040c0a1 f i  CIL library: CIL module
 0001:0000b400       __catch$?_Insert_n@?$vector@V?$vector@PAVHE_edge@@V?$allocator@PAVHE_edge@@@std@@@std@@V?$allocator@V?$vector@PAVHE_edge@@V?$allocator@PAVHE_edge@@@std@@@std@@@2@@std@@IAEXV?$_Vector_const_iterator@V?$vector@PAVHE_edge@@V?$allocator@PAVHE_edge@@@std@@@std@@V?$allocator@V?$vector@PAVHE_edge@@V?$allocator@PAVHE_edge@@@std@@@std@@@2@@2@IABV?$vector@PAVHE_edge@@V?$allocator@PAVHE_edge@@@std@@@2@@Z$0 0040c400 f i  CIL library: CIL module
 0001:0000b494       __catch$?_Insert_n@?$vector@V?$vector@PAVHE_edge@@V?$allocator@PAVHE_edge@@@std@@@std@@V?$allocator@V?$vector@PAVHE_edge@@V?$allocator@PAVHE_edge@@@std@@@std@@@2@@std@@IAEXV?$_Vector_const_iterator@V?$vector@PAVHE_edge@@V?$allocator@PAVHE_edge@@@std@@@std@@V?$allocator@V?$vector@PAVHE_edge@@V?$allocator@PAVHE_edge@@@std@@@std@@@2@@2@IABV?$vector@PAVHE_edge@@V?$allocator@PAVHE_edge@@@std@@@2@@Z$2 0040c494 f i  CIL library: CIL module
 0001:0000b6e1       __catch$??$_Uninit_fill_n@PAUD3DXVECTOR3@@IU1@V?$allocator@UD3DXVECTOR3@@@std@@@std@@YAXPAUD3DXVECTOR3@@IABU1@AAV?$allocator@UD3DXVECTOR3@@@0@U_Nonscalar_ptr_iterator_tag@0@U_Range_checked_iterator_tag@0@@Z$0 0040c6e1 f i  CIL library: CIL module
 0001:0000b6e1       __catch$??$_Uninit_fill_n@PAUSelection@ObjEd@@IU12@V?$allocator@USelection@ObjEd@@@std@@@std@@YAXPAUSelection@ObjEd@@IABU12@AAV?$allocator@USelection@ObjEd@@@0@U_Nonscalar_ptr_iterator_tag@0@U_Range_checked_iterator_tag@0@@Z$0 0040c6e1 f i  CIL library: CIL module
 0001:0000b734       __catch$??$_Uninit_fill_n@PAUBevelEIntermidiateSharedNEdge@MeshComponent@@IU12@V?$allocator@UBevelEIntermidiateSharedNEdge@MeshComponent@@@std@@@std@@YAXPAUBevelEIntermidiateSharedNEdge@MeshComponent@@IABU12@AAV?$allocator@UBevelEIntermidiateSharedNEdge@MeshComponent@@@0@U_Nonscalar_ptr_iterator_tag@0@U_Range_checked_iterator_tag@0@@Z$0 0040c734 f i  CIL library: CIL module
 0001:0000b788       __catch$??$_Uninit_fill_n@PAUBevelESharedNEdgeGroup@MeshComponent@@IU12@V?$allocator@UBevelESharedNEdgeGroup@MeshComponent@@@std@@@std@@YAXPAUBevelESharedNEdgeGroup@MeshComponent@@IABU12@AAV?$allocator@UBevelESharedNEdgeGroup@MeshComponent@@@0@U_Nonscalar_ptr_iterator_tag@0@U_Range_checked_iterator_tag@0@@Z$0 0040c788 f i  CIL library: CIL module
 0001:0000b788       __catch$??$_Uninit_fill_n@PAUD3DXVECTOR2@@IU1@V?$allocator@UD3DXVECTOR2@@@std@@@std@@YAXPAUD3DXVECTOR2@@IABU1@AAV?$allocator@UD3DXVECTOR2@@@0@U_Nonscalar_ptr_iterator_tag@0@U_Range_checked_iterator_tag@0@@Z$0 0040c788 f i  CIL library: CIL module
 0001:0000b788       __catch$??$_Uninit_fill_n@PAVOpPrimCube@OpInfo@@IV12@V?$allocator@VOpPrimCube@OpInfo@@@std@@@std@@YAXPAVOpPrimCube@OpInfo@@IABV12@AAV?$allocator@VOpPrimCube@OpInfo@@@0@U_Nonscalar_ptr_iterator_tag@0@U_Range_checked_iterator_tag@0@@Z$0 0040c788 f i  CIL library: CIL module
 0001:0000b788       __catch$??$_Uninit_fill_n@PAVPrecision@@IV1@V?$allocator@VPrecision@@@std@@@std@@YAXPAVPrecision@@IABV1@AAV?$allocator@VPrecision@@@0@U_Nonscalar_ptr_iterator_tag@0@U_Range_checked_iterator_tag@0@@Z$0 0040c788 f i  CIL library: CIL module
 0001:0000b7e1       __catch$??$_Uninit_fill_n@PAV?$vector@PAVHE_edge@@V?$allocator@PAVHE_edge@@@std@@@std@@IV12@V?$allocator@V?$vector@PAVHE_edge@@V?$allocator@PAVHE_edge@@@std@@@std@@@2@@std@@YAXPAV?$vector@PAVHE_edge@@V?$allocator@PAVHE_edge@@@std@@@0@IABV10@AAV?$allocator@V?$vector@PAVHE_edge@@V?$allocator@PAVHE_edge@@@std@@@std@@@0@U_Nonscalar_ptr_iterator_tag@0@U_Range_checked_iterator_tag@0@@Z$0 0040c7e1 f i  CIL library: CIL module
 0001:0000b88a       __catch$??$_Uninit_move@PAV?$vector@PAVHE_edge@@V?$allocator@PAVHE_edge@@@std@@@std@@PAV12@V?$allocator@V?$vector@PAVHE_edge@@V?$allocator@PAVHE_edge@@@std@@@std@@@2@@std@@YAPAV?$vector@PAVHE_edge@@V?$allocator@PAVHE_edge@@@std@@@0@PAV10@00AAV?$allocator@V?$vector@PAVHE_edge@@V?$allocator@PAVHE_edge@@@std@@@std@@@0@U_Swap_move_tag@0@U_Range_checked_iterator_tag@0@@Z$0 0040c88a f i  CIL library: CIL module
 0001:0000b8fd       __catch$??$_Uninit_copy@PAUBevelEIntermidiateSharedNEdge@MeshComponent@@PAU12@V?$allocator@UBevelEIntermidiateSharedNEdge@MeshComponent@@@std@@@std@@YAPAUBevelEIntermidiateSharedNEdge@MeshComponent@@PAU12@00AAV?$allocator@UBevelEIntermidiateSharedNEdge@MeshComponent@@@0@U_Nonscalar_ptr_iterator_tag@0@U_Range_checked_iterator_tag@0@@Z$0 0040c8fd f i  CIL library: CIL module
 0001:0000cc83       __catch$?_Construct_n@?$vector@USelection@ObjEd@@V?$allocator@USelection@ObjEd@@@std@@@std@@QAEXIABUSelection@ObjEd@@@Z$0 0040dc83 f i  CIL library: CIL module
 0001:0000cc83       __catch$?_Construct_n@?$vector@UD3DXVECTOR3@@V?$allocator@UD3DXVECTOR3@@@std@@@std@@QAEXIABUD3DXVECTOR3@@@Z$0 0040dc83 f i  CIL library: CIL module
 0001:0000cdc9       __catch$?_Construct_n@?$vector@PAVHE_face@@V?$allocator@PAVHE_face@@@std@@@std@@QAEXIABQAVHE_face@@@Z$0 0040ddc9 f i  CIL library: CIL module
 0001:0000cdc9       __catch$?_Construct_n@?$vector@HV?$allocator@H@std@@@std@@QAEXIABH@Z$0 0040ddc9 f i  CIL library: CIL module
 0001:0000cdc9       __catch$?_Construct_n@?$vector@PAVStaticRigidBody@@V?$allocator@PAVStaticRigidBody@@@std@@@std@@QAEXIABQAVStaticRigidBody@@@Z$0 0040ddc9 f i  CIL library: CIL module
 0001:0000cdc9       __catch$?_Construct_n@?$vector@PAVHE_edge@@V?$allocator@PAVHE_edge@@@std@@@std@@QAEXIABQAVHE_edge@@@Z$0 0040ddc9 f i  CIL library: CIL module
 0001:0000cdc9       __catch$?_Construct_n@?$vector@PAVHE_vert@@V?$allocator@PAVHE_vert@@@std@@@std@@QAEXIABQAVHE_vert@@@Z$0 0040ddc9 f i  CIL library: CIL module
 0001:0000cef6       __catch$?_Insert_n@?$vector@V?$vector@PAVHE_vert@@V?$allocator@PAVHE_vert@@@std@@@std@@V?$allocator@V?$vector@PAVHE_vert@@V?$allocator@PAVHE_vert@@@std@@@std@@@2@@std@@IAEXV?$_Vector_const_iterator@V?$vector@PAVHE_vert@@V?$allocator@PAVHE_vert@@@std@@@std@@V?$allocator@V?$vector@PAVHE_vert@@V?$allocator@PAVHE_vert@@@std@@@std@@@2@@2@IABV?$vector@PAVHE_vert@@V?$allocator@PAVHE_vert@@@std@@@2@@Z$0 0040def6 f i  CIL library: CIL module
 0001:0000cf8a       __catch$?_Insert_n@?$vector@V?$vector@PAVHE_vert@@V?$allocator@PAVHE_vert@@@std@@@std@@V?$allocator@V?$vector@PAVHE_vert@@V?$allocator@PAVHE_vert@@@std@@@std@@@2@@std@@IAEXV?$_Vector_const_iterator@V?$vector@PAVHE_vert@@V?$allocator@PAVHE_vert@@@std@@@std@@V?$allocator@V?$vector@PAVHE_vert@@V?$allocator@PAVHE_vert@@@std@@@std@@@2@@2@IABV?$vector@PAVHE_vert@@V?$allocator@PAVHE_vert@@@std@@@2@@Z$2 0040df8a f i  CIL library: CIL module
 0001:0000d149       __catch$??$_Uninit_fill_n@PAV?$vector@PAVHE_vert@@V?$allocator@PAVHE_vert@@@std@@@std@@IV12@V?$allocator@V?$vector@PAVHE_vert@@V?$allocator@PAVHE_vert@@@std@@@std@@@2@@std@@YAXPAV?$vector@PAVHE_vert@@V?$allocator@PAVHE_vert@@@std@@@0@IABV10@AAV?$allocator@V?$vector@PAVHE_vert@@V?$allocator@PAVHE_vert@@@std@@@std@@@0@U_Nonscalar_ptr_iterator_tag@0@U_Range_checked_iterator_tag@0@@Z$0 0040e149 f i  CIL library: CIL module
 0001:0000d1ee       __catch$??$_Uninit_move@PAV?$vector@PAVHE_vert@@V?$allocator@PAVHE_vert@@@std@@@std@@PAV12@V?$allocator@V?$vector@PAVHE_vert@@V?$allocator@PAVHE_vert@@@std@@@std@@@2@@std@@YAPAV?$vector@PAVHE_vert@@V?$allocator@PAVHE_vert@@@std@@@0@PAV10@00AAV?$allocator@V?$vector@PAVHE_vert@@V?$allocator@PAVHE_vert@@@std@@@std@@@0@U_Swap_move_tag@0@U_Range_checked_iterator_tag@0@@Z$0 0040e1ee f i  CIL library: CIL module
 0001:0000d9ef       __catch$?_Insert_n@?$vector@PAVHE_face@@V?$allocator@PAVHE_face@@@std@@@std@@IAEXV?$_Vector_const_iterator@PAVHE_face@@V?$allocator@PAVHE_face@@@std@@@2@IABQAVHE_face@@@Z$0 0040e9ef f i  CIL library: CIL module
 0001:0000d9f8       __catch$?_Insert_n@?$vector@PAVHE_face@@V?$allocator@PAVHE_face@@@std@@@std@@IAEXV?$_Vector_const_iterator@PAVHE_face@@V?$allocator@PAVHE_face@@@std@@@2@IABQAVHE_face@@@Z$2 0040e9f8 f i  CIL library: CIL module
 0001:0000e44c       __catch$?_Construct_n@?$vector@UEdgeIntersection@ObjEd@@V?$allocator@UEdgeIntersection@ObjEd@@@std@@@std@@QAEXIABUEdgeIntersection@ObjEd@@@Z$0 0040f44c f i  CIL library: CIL module
 0001:0000e4b3       __catch$?_Buynode@?$list@UFacesOfEdge@@V?$allocator@UFacesOfEdge@@@std@@@std@@IAEPAU_Node@?$_List_nod@UFacesOfEdge@@V?$allocator@UFacesOfEdge@@@std@@@2@XZ$0 0040f4b3 f i  CIL library: CIL module
 0001:0000e5b5       __catch$?_Insert_n@?$vector@HV?$allocator@H@std@@@std@@IAEXV?$_Vector_const_iterator@HV?$allocator@H@std@@@2@IABH@Z$0 0040f5b5 f i  CIL library: CIL module
 0001:0000e5b5       __catch$?_Insert_n@?$vector@IV?$allocator@I@std@@@std@@IAEXV?$_Vector_const_iterator@IV?$allocator@I@std@@@2@IABI@Z$0 0040f5b5 f i  CIL library: CIL module
 0001:0000e5b5       __catch$?_Insert_n@?$vector@PAVHE_vert@@V?$allocator@PAVHE_vert@@@std@@@std@@IAEXV?$_Vector_const_iterator@PAVHE_vert@@V?$allocator@PAVHE_vert@@@std@@@2@IABQAVHE_vert@@@Z$0 0040f5b5 f i  CIL library: CIL module
 0001:0000e5b5       __catch$?_Insert_n@?$vector@PAVHE_edge@@V?$allocator@PAVHE_edge@@@std@@@std@@IAEXV?$_Vector_const_iterator@PAVHE_edge@@V?$allocator@PAVHE_edge@@@std@@@2@IABQAVHE_edge@@@Z$0 0040f5b5 f i  CIL library: CIL module
 0001:0000e5be       __catch$?_Insert_n@?$vector@PAVHE_edge@@V?$allocator@PAVHE_edge@@@std@@@std@@IAEXV?$_Vector_const_iterator@PAVHE_edge@@V?$allocator@PAVHE_edge@@@std@@@2@IABQAVHE_edge@@@Z$2 0040f5be f i  CIL library: CIL module
 0001:0000e5be       __catch$?_Insert_n@?$vector@IV?$allocator@I@std@@@std@@IAEXV?$_Vector_const_iterator@IV?$allocator@I@std@@@2@IABI@Z$2 0040f5be f i  CIL library: CIL module
 0001:0000e5be       __catch$?_Insert_n@?$vector@HV?$allocator@H@std@@@std@@IAEXV?$_Vector_const_iterator@HV?$allocator@H@std@@@2@IABH@Z$2 0040f5be f i  CIL library: CIL module
 0001:0000e5be       __catch$?_Insert_n@?$vector@PAVHE_vert@@V?$allocator@PAVHE_vert@@@std@@@std@@IAEXV?$_Vector_const_iterator@PAVHE_vert@@V?$allocator@PAVHE_vert@@@std@@@2@IABQAVHE_vert@@@Z$2 0040f5be f i  CIL library: CIL module
 0001:0000e6f1       __catch$?_Buynode@?$list@UFacesOfEdge@@V?$allocator@UFacesOfEdge@@@std@@@std@@IAEPAU_Node@?$_List_nod@UFacesOfEdge@@V?$allocator@UFacesOfEdge@@@std@@@2@PAU342@0ABUFacesOfEdge@@@Z$0 0040f6f1 f i  CIL library: CIL module
 0001:0000e76f       __catch$??$_Uninit_fill_n@PAUEdgeIntersection@ObjEd@@IU12@V?$allocator@UEdgeIntersection@ObjEd@@@std@@@std@@YAXPAUEdgeIntersection@ObjEd@@IABU12@AAV?$allocator@UEdgeIntersection@ObjEd@@@0@U_Nonscalar_ptr_iterator_tag@0@U_Range_checked_iterator_tag@0@@Z$0 0040f76f f i  CIL library: CIL module
 0001:0000e76f       __catch$??$_Uninit_fill_n@PAUEdgeBevelE@?3??bevelEStart@MeshComponent@@QAE?AUBevelEInfo@ObjEd@@AAV?$vector@USelection@ObjEd@@V?$allocator@USelection@ObjEd@@@std@@@std@@@Z@IU1?3??23@QAE?AU45@0@Z@V?$allocator@UEdgeBevelE@?3??bevelEStart@MeshComponent@@QAE?AUBevelEInfo@ObjEd@@AAV?$vector@USelection@ObjEd@@V?$allocator@USelection@ObjEd@@@std@@@std@@@Z@@7@@std@@YAXPAUEdgeBevelE@?3??bevelEStart@MeshComponent@@QAE?AUBevelEInfo@ObjEd@@AAV?$vector@USelection@ObjEd@@V?$allocator@USelection@ObjEd@@@std@@@0@@Z@IABU1?3??23@QAE?AU45@0@Z@AAV?$allocator@UEdgeBevelE@?3??bevelEStart@MeshComponent@@QAE?AUBevelEInfo@ObjEd@@AAV?$vector@USelection@ObjEd@@V?$allocator@USelection@ObjEd@@@std@@@std@@@Z@@0@U_Nonscalar_ptr_iterator_tag@0@U_Range_checked_iterator_tag@0@@Z$0 0040f76f f i  CIL library: CIL module
 0001:0000f093       __catch$?_Insert_n@?$vector@UVertPNT@@V?$allocator@UVertPNT@@@std@@@std@@IAEXV?$_Vector_const_iterator@UVertPNT@@V?$allocator@UVertPNT@@@std@@@2@IABUVertPNT@@@Z$0 00410093 f i  CIL library: CIL module
 0001:0000f09c       __catch$?_Insert_n@?$vector@UVertPNT@@V?$allocator@UVertPNT@@@std@@@std@@IAEXV?$_Vector_const_iterator@UVertPNT@@V?$allocator@UVertPNT@@@std@@@2@IABUVertPNT@@@Z$2 0041009c f i  CIL library: CIL module
 0001:0000f1ef       __catch$??$_Uninit_fill_n@PAUVertPNT@@IU1@V?$allocator@UVertPNT@@@std@@@std@@YAXPAUVertPNT@@IABU1@AAV?$allocator@UVertPNT@@@0@U_Nonscalar_ptr_iterator_tag@0@U_Range_checked_iterator_tag@0@@Z$0 004101ef f i  CIL library: CIL module
 0001:0000f26b       __catch$??$_Uninit_copy@PAUVertPNT@@PAU1@V?$allocator@UVertPNT@@@std@@@std@@YAPAUVertPNT@@PAU1@00AAV?$allocator@UVertPNT@@@0@U_Nonscalar_ptr_iterator_tag@0@U_Range_checked_iterator_tag@0@@Z$0 0041026b f i  CIL library: CIL module
 0001:00011579       __catch$?_Insert_n@?$vector@VOpPrimCube@OpInfo@@V?$allocator@VOpPrimCube@OpInfo@@@std@@@std@@IAEXV?$_Vector_const_iterator@VOpPrimCube@OpInfo@@V?$allocator@VOpPrimCube@OpInfo@@@std@@@2@IABVOpPrimCube@OpInfo@@@Z$0 00412579 f i  CIL library: CIL module
 0001:00011582       __catch$?_Insert_n@?$vector@VOpPrimCube@OpInfo@@V?$allocator@VOpPrimCube@OpInfo@@@std@@@std@@IAEXV?$_Vector_const_iterator@VOpPrimCube@OpInfo@@V?$allocator@VOpPrimCube@OpInfo@@@std@@@2@IABVOpPrimCube@OpInfo@@@Z$2 00412582 f i  CIL library: CIL module
 0001:00011759       __catch$?_Insert_n@?$vector@VOpExtrude@OpInfo@@V?$allocator@VOpExtrude@OpInfo@@@std@@@std@@IAEXV?$_Vector_const_iterator@VOpExtrude@OpInfo@@V?$allocator@VOpExtrude@OpInfo@@@std@@@2@IABVOpExtrude@OpInfo@@@Z$0 00412759 f i  CIL library: CIL module
 0001:00011759       __catch$?_Insert_n@?$vector@VOpExtrudeInner@OpInfo@@V?$allocator@VOpExtrudeInner@OpInfo@@@std@@@std@@IAEXV?$_Vector_const_iterator@VOpExtrudeInner@OpInfo@@V?$allocator@VOpExtrudeInner@OpInfo@@@std@@@2@IABVOpExtrudeInner@OpInfo@@@Z$0 00412759 f i  CIL library: CIL module
 0001:00011759       __catch$?_Insert_n@?$vector@VOpExtrudeMatrix@OpInfo@@V?$allocator@VOpExtrudeMatrix@OpInfo@@@std@@@std@@IAEXV?$_Vector_const_iterator@VOpExtrudeMatrix@OpInfo@@V?$allocator@VOpExtrudeMatrix@OpInfo@@@std@@@2@IABVOpExtrudeMatrix@OpInfo@@@Z$0 00412759 f i  CIL library: CIL module
 0001:000117f5       __catch$?_Insert_n@?$vector@VOpExtrude@OpInfo@@V?$allocator@VOpExtrude@OpInfo@@@std@@@std@@IAEXV?$_Vector_const_iterator@VOpExtrude@OpInfo@@V?$allocator@VOpExtrude@OpInfo@@@std@@@2@IABVOpExtrude@OpInfo@@@Z$2 004127f5 f i  CIL library: CIL module
 0001:000117f5       __catch$?_Insert_n@?$vector@VOpExtrudeInner@OpInfo@@V?$allocator@VOpExtrudeInner@OpInfo@@@std@@@std@@IAEXV?$_Vector_const_iterator@VOpExtrudeInner@OpInfo@@V?$allocator@VOpExtrudeInner@OpInfo@@@std@@@2@IABVOpExtrudeInner@OpInfo@@@Z$2 004127f5 f i  CIL library: CIL module
 0001:000117f5       __catch$?_Insert_n@?$vector@VOpExtrudeMatrix@OpInfo@@V?$allocator@VOpExtrudeMatrix@OpInfo@@@std@@@std@@IAEXV?$_Vector_const_iterator@VOpExtrudeMatrix@OpInfo@@V?$allocator@VOpExtrudeMatrix@OpInfo@@@std@@@2@IABVOpExtrudeMatrix@OpInfo@@@Z$2 004127f5 f i  CIL library: CIL module
 0001:000119a6       __catch$?_Insert_n@?$vector@VOpNormScale@OpInfo@@V?$allocator@VOpNormScale@OpInfo@@@std@@@std@@IAEXV?$_Vector_const_iterator@VOpNormScale@OpInfo@@V?$allocator@VOpNormScale@OpInfo@@@std@@@2@IABVOpNormScale@OpInfo@@@Z$0 004129a6 f i  CIL library: CIL module
 0001:000119a6       __catch$?_Insert_n@?$vector@VOpBevelV@OpInfo@@V?$allocator@VOpBevelV@OpInfo@@@std@@@std@@IAEXV?$_Vector_const_iterator@VOpBevelV@OpInfo@@V?$allocator@VOpBevelV@OpInfo@@@std@@@2@IABVOpBevelV@OpInfo@@@Z$0 004129a6 f i  CIL library: CIL module
 0001:00011a23       __catch$?_Insert_n@?$vector@VOpBevelV@OpInfo@@V?$allocator@VOpBevelV@OpInfo@@@std@@@std@@IAEXV?$_Vector_const_iterator@VOpBevelV@OpInfo@@V?$allocator@VOpBevelV@OpInfo@@@std@@@2@IABVOpBevelV@OpInfo@@@Z$2 00412a23 f i  CIL library: CIL module
 0001:00011a23       __catch$?_Insert_n@?$vector@VOpNormScale@OpInfo@@V?$allocator@VOpNormScale@OpInfo@@@std@@@std@@IAEXV?$_Vector_const_iterator@VOpNormScale@OpInfo@@V?$allocator@VOpNormScale@OpInfo@@@std@@@2@IABVOpNormScale@OpInfo@@@Z$2 00412a23 f i  CIL library: CIL module
 0001:00011b96       __catch$?_Insert_n@?$vector@VOpKnifeLine@OpInfo@@V?$allocator@VOpKnifeLine@OpInfo@@@std@@@std@@IAEXV?$_Vector_const_iterator@VOpKnifeLine@OpInfo@@V?$allocator@VOpKnifeLine@OpInfo@@@std@@@2@IABVOpKnifeLine@OpInfo@@@Z$0 00412b96 f i  CIL library: CIL module
 0001:00011c30       __catch$?_Insert_n@?$vector@VOpKnifeLine@OpInfo@@V?$allocator@VOpKnifeLine@OpInfo@@@std@@@std@@IAEXV?$_Vector_const_iterator@VOpKnifeLine@OpInfo@@V?$allocator@VOpKnifeLine@OpInfo@@@std@@@2@IABVOpKnifeLine@OpInfo@@@Z$2 00412c30 f i  CIL library: CIL module
 0001:00011deb       __catch$?_Insert_n@?$vector@VOpBevelE@OpInfo@@V?$allocator@VOpBevelE@OpInfo@@@std@@@std@@IAEXV?$_Vector_const_iterator@VOpBevelE@OpInfo@@V?$allocator@VOpBevelE@OpInfo@@@std@@@2@IABVOpBevelE@OpInfo@@@Z$0 00412deb f i  CIL library: CIL module
 0001:00011e73       __catch$?_Insert_n@?$vector@VOpBevelE@OpInfo@@V?$allocator@VOpBevelE@OpInfo@@@std@@@std@@IAEXV?$_Vector_const_iterator@VOpBevelE@OpInfo@@V?$allocator@VOpBevelE@OpInfo@@@std@@@2@IABVOpBevelE@OpInfo@@@Z$2 00412e73 f i  CIL library: CIL module
 0001:0001202c       __catch$?_Insert_n@?$vector@VOpTranslate@OpInfo@@V?$allocator@VOpTranslate@OpInfo@@@std@@@std@@IAEXV?$_Vector_const_iterator@VOpTranslate@OpInfo@@V?$allocator@VOpTranslate@OpInfo@@@std@@@2@IABVOpTranslate@OpInfo@@@Z$0 0041302c f i  CIL library: CIL module
 0001:000120c7       __catch$?_Insert_n@?$vector@VOpTranslate@OpInfo@@V?$allocator@VOpTranslate@OpInfo@@@std@@@std@@IAEXV?$_Vector_const_iterator@VOpTranslate@OpInfo@@V?$allocator@VOpTranslate@OpInfo@@@std@@@2@IABVOpTranslate@OpInfo@@@Z$2 004130c7 f i  CIL library: CIL module
 0001:00012282       __catch$?_Insert_n@?$vector@VOpScale@OpInfo@@V?$allocator@VOpScale@OpInfo@@@std@@@std@@IAEXV?$_Vector_const_iterator@VOpScale@OpInfo@@V?$allocator@VOpScale@OpInfo@@@std@@@2@IABVOpScale@OpInfo@@@Z$0 00413282 f i  CIL library: CIL module
 0001:0001231d       __catch$?_Insert_n@?$vector@VOpScale@OpInfo@@V?$allocator@VOpScale@OpInfo@@@std@@@std@@IAEXV?$_Vector_const_iterator@VOpScale@OpInfo@@V?$allocator@VOpScale@OpInfo@@@std@@@2@IABVOpScale@OpInfo@@@Z$2 0041331d f i  CIL library: CIL module
 0001:00012aa6       __catch$??$_Uninit_fill_n@PAVOpExtrudeInner@OpInfo@@IV12@V?$allocator@VOpExtrudeInner@OpInfo@@@std@@@std@@YAXPAVOpExtrudeInner@OpInfo@@IABV12@AAV?$allocator@VOpExtrudeInner@OpInfo@@@0@U_Nonscalar_ptr_iterator_tag@0@U_Range_checked_iterator_tag@0@@Z$0 00413aa6 f i  CIL library: CIL module
 0001:00012aa6       __catch$??$_Uninit_fill_n@PAVOpExtrudeMatrix@OpInfo@@IV12@V?$allocator@VOpExtrudeMatrix@OpInfo@@@std@@@std@@YAXPAVOpExtrudeMatrix@OpInfo@@IABV12@AAV?$allocator@VOpExtrudeMatrix@OpInfo@@@0@U_Nonscalar_ptr_iterator_tag@0@U_Range_checked_iterator_tag@0@@Z$0 00413aa6 f i  CIL library: CIL module
 0001:00012aa6       __catch$??$_Uninit_fill_n@PAVOpExtrude@OpInfo@@IV12@V?$allocator@VOpExtrude@OpInfo@@@std@@@std@@YAXPAVOpExtrude@OpInfo@@IABV12@AAV?$allocator@VOpExtrude@OpInfo@@@0@U_Nonscalar_ptr_iterator_tag@0@U_Range_checked_iterator_tag@0@@Z$0 00413aa6 f i  CIL library: CIL module
 0001:00012b17       __catch$??$_Uninit_fill_n@PAVOpKnifeLine@OpInfo@@IV12@V?$allocator@VOpKnifeLine@OpInfo@@@std@@@std@@YAXPAVOpKnifeLine@OpInfo@@IABV12@AAV?$allocator@VOpKnifeLine@OpInfo@@@0@U_Nonscalar_ptr_iterator_tag@0@U_Range_checked_iterator_tag@0@@Z$0 00413b17 f i  CIL library: CIL module
 0001:00012b85       __catch$??$_Uninit_fill_n@PAVOpBevelV@OpInfo@@IV12@V?$allocator@VOpBevelV@OpInfo@@@std@@@std@@YAXPAVOpBevelV@OpInfo@@IABV12@AAV?$allocator@VOpBevelV@OpInfo@@@0@U_Nonscalar_ptr_iterator_tag@0@U_Range_checked_iterator_tag@0@@Z$0 00413b85 f i  CIL library: CIL module
 0001:00012b85       __catch$??$_Uninit_fill_n@PAVOpNormScale@OpInfo@@IV12@V?$allocator@VOpNormScale@OpInfo@@@std@@@std@@YAXPAVOpNormScale@OpInfo@@IABV12@AAV?$allocator@VOpNormScale@OpInfo@@@0@U_Nonscalar_ptr_iterator_tag@0@U_Range_checked_iterator_tag@0@@Z$0 00413b85 f i  CIL library: CIL module
 0001:00012bf6       __catch$??$_Uninit_fill_n@PAVOpBevelE@OpInfo@@IV12@V?$allocator@VOpBevelE@OpInfo@@@std@@@std@@YAXPAVOpBevelE@OpInfo@@IABV12@AAV?$allocator@VOpBevelE@OpInfo@@@0@U_Nonscalar_ptr_iterator_tag@0@U_Range_checked_iterator_tag@0@@Z$0 00413bf6 f i  CIL library: CIL module
 0001:00012c69       __catch$??$_Uninit_fill_n@PAVOpTranslate@OpInfo@@IV12@V?$allocator@VOpTranslate@OpInfo@@@std@@@std@@YAXPAVOpTranslate@OpInfo@@IABV12@AAV?$allocator@VOpTranslate@OpInfo@@@0@U_Nonscalar_ptr_iterator_tag@0@U_Range_checked_iterator_tag@0@@Z$0 00413c69 f i  CIL library: CIL module
 0001:00012cdc       __catch$??$_Uninit_fill_n@PAVOpScale@OpInfo@@IV12@V?$allocator@VOpScale@OpInfo@@@std@@@std@@YAXPAVOpScale@OpInfo@@IABV12@AAV?$allocator@VOpScale@OpInfo@@@0@U_Nonscalar_ptr_iterator_tag@0@U_Range_checked_iterator_tag@0@@Z$0 00413cdc f i  CIL library: CIL module
 0001:00012dca       __catch$??$_Uninit_copy@PAVPrecision@@PAV1@V?$allocator@VPrecision@@@std@@@std@@YAPAVPrecision@@PAV1@00AAV?$allocator@VPrecision@@@0@U_Nonscalar_ptr_iterator_tag@0@U_Range_checked_iterator_tag@0@@Z$0 00413dca f i  CIL library: CIL module
 0001:00012dca       __catch$??$_Uninit_copy@PAUD3DXVECTOR2@@PAU1@V?$allocator@UD3DXVECTOR2@@@std@@@std@@YAPAUD3DXVECTOR2@@PAU1@00AAV?$allocator@UD3DXVECTOR2@@@0@U_Nonscalar_ptr_iterator_tag@0@U_Range_checked_iterator_tag@0@@Z$0 00413dca f i  CIL library: CIL module
 0001:00012dca       __catch$??$_Uninit_copy@PAVOpPrimCube@OpInfo@@PAV12@V?$allocator@VOpPrimCube@OpInfo@@@std@@@std@@YAPAVOpPrimCube@OpInfo@@PAV12@00AAV?$allocator@VOpPrimCube@OpInfo@@@0@U_Nonscalar_ptr_iterator_tag@0@U_Range_checked_iterator_tag@0@@Z$0 00413dca f i  CIL library: CIL module
 0001:00012e24       __catch$??$_Uninit_copy@PAVOpExtrudeMatrix@OpInfo@@PAV12@V?$allocator@VOpExtrudeMatrix@OpInfo@@@std@@@std@@YAPAVOpExtrudeMatrix@OpInfo@@PAV12@00AAV?$allocator@VOpExtrudeMatrix@OpInfo@@@0@U_Nonscalar_ptr_iterator_tag@0@U_Range_checked_iterator_tag@0@@Z$0 00413e24 f i  CIL library: CIL module
 0001:00012e24       __catch$??$_Uninit_copy@PAVOpExtrude@OpInfo@@PAV12@V?$allocator@VOpExtrude@OpInfo@@@std@@@std@@YAPAVOpExtrude@OpInfo@@PAV12@00AAV?$allocator@VOpExtrude@OpInfo@@@0@U_Nonscalar_ptr_iterator_tag@0@U_Range_checked_iterator_tag@0@@Z$0 00413e24 f i  CIL library: CIL module
 0001:00012e24       __catch$??$_Uninit_copy@PAVOpExtrudeInner@OpInfo@@PAV12@V?$allocator@VOpExtrudeInner@OpInfo@@@std@@@std@@YAPAVOpExtrudeInner@OpInfo@@PAV12@00AAV?$allocator@VOpExtrudeInner@OpInfo@@@0@U_Nonscalar_ptr_iterator_tag@0@U_Range_checked_iterator_tag@0@@Z$0 00413e24 f i  CIL library: CIL module
 0001:00012e98       __catch$??$_Uninit_copy@PAVOpNormScale@OpInfo@@PAV12@V?$allocator@VOpNormScale@OpInfo@@@std@@@std@@YAPAVOpNormScale@OpInfo@@PAV12@00AAV?$allocator@VOpNormScale@OpInfo@@@0@U_Nonscalar_ptr_iterator_tag@0@U_Range_checked_iterator_tag@0@@Z$0 00413e98 f i  CIL library: CIL module
 0001:00012e98       __catch$??$_Uninit_copy@PAVOpBevelV@OpInfo@@PAV12@V?$allocator@VOpBevelV@OpInfo@@@std@@@std@@YAPAVOpBevelV@OpInfo@@PAV12@00AAV?$allocator@VOpBevelV@OpInfo@@@0@U_Nonscalar_ptr_iterator_tag@0@U_Range_checked_iterator_tag@0@@Z$0 00413e98 f i  CIL library: CIL module
 0001:00012f0c       __catch$??$_Uninit_copy@PAVOpKnifeLine@OpInfo@@PAV12@V?$allocator@VOpKnifeLine@OpInfo@@@std@@@std@@YAPAVOpKnifeLine@OpInfo@@PAV12@00AAV?$allocator@VOpKnifeLine@OpInfo@@@0@U_Nonscalar_ptr_iterator_tag@0@U_Range_checked_iterator_tag@0@@Z$0 00413f0c f i  CIL library: CIL module
 0001:00012f7c       __catch$??$_Uninit_copy@PAVOpBevelE@OpInfo@@PAV12@V?$allocator@VOpBevelE@OpInfo@@@std@@@std@@YAPAVOpBevelE@OpInfo@@PAV12@00AAV?$allocator@VOpBevelE@OpInfo@@@0@U_Nonscalar_ptr_iterator_tag@0@U_Range_checked_iterator_tag@0@@Z$0 00413f7c f i  CIL library: CIL module
 0001:00012ff1       __catch$??$_Uninit_copy@PAVOpTranslate@OpInfo@@PAV12@V?$allocator@VOpTranslate@OpInfo@@@std@@@std@@YAPAVOpTranslate@OpInfo@@PAV12@00AAV?$allocator@VOpTranslate@OpInfo@@@0@U_Nonscalar_ptr_iterator_tag@0@U_Range_checked_iterator_tag@0@@Z$0 00413ff1 f i  CIL library: CIL module
 0001:00013066       __catch$??$_Uninit_copy@PAVOpScale@OpInfo@@PAV12@V?$allocator@VOpScale@OpInfo@@@std@@@std@@YAPAVOpScale@OpInfo@@PAV12@00AAV?$allocator@VOpScale@OpInfo@@@0@U_Nonscalar_ptr_iterator_tag@0@U_Range_checked_iterator_tag@0@@Z$0 00414066 f i  CIL library: CIL module
 0001:00013de4       __catch$?_Construct_n@?$vector@UVertPNT@@V?$allocator@UVertPNT@@@std@@@std@@QAEXIABUVertPNT@@@Z$0 00414de4 f i  CIL library: CIL module
 0001:000141c5       __catch$?_Insert_n@?$vector@VVertexPosNor@@V?$allocator@VVertexPosNor@@@std@@@std@@IAEXV?$_Vector_const_iterator@VVertexPosNor@@V?$allocator@VVertexPosNor@@@std@@@2@IABVVertexPosNor@@@Z$0 004151c5 f i  CIL library: CIL module
 0001:000141ce       __catch$?_Insert_n@?$vector@VVertexPosNor@@V?$allocator@VVertexPosNor@@@std@@@std@@IAEXV?$_Vector_const_iterator@VVertexPosNor@@V?$allocator@VVertexPosNor@@@std@@@2@IABVVertexPosNor@@@Z$2 004151ce f i  CIL library: CIL module
 0001:000143e4       __catch$??$_Uninit_fill_n@PAVVertexPosNor@@IV1@V?$allocator@VVertexPosNor@@@std@@@std@@YAXPAVVertexPosNor@@IABV1@AAV?$allocator@VVertexPosNor@@@0@U_Nonscalar_ptr_iterator_tag@0@U_Range_checked_iterator_tag@0@@Z$0 004153e4 f i  CIL library: CIL module
 0001:0001443b       __catch$??$_Uninit_copy@PAVVertexPosNor@@PAV1@V?$allocator@VVertexPosNor@@@std@@@std@@YAPAVVertexPosNor@@PAV1@00AAV?$allocator@VVertexPosNor@@@0@U_Nonscalar_ptr_iterator_tag@0@U_Range_checked_iterator_tag@0@@Z$0 0041543b f i  CIL library: CIL module
 0001:00014e59       __catch$?_Insert_n@?$vector@V?$vector@HV?$allocator@H@std@@@std@@V?$allocator@V?$vector@HV?$allocator@H@std@@@std@@@2@@std@@IAEXV?$_Vector_const_iterator@V?$vector@HV?$allocator@H@std@@@std@@V?$allocator@V?$vector@HV?$allocator@H@std@@@std@@@2@@2@IABV?$vector@HV?$allocator@H@std@@@2@@Z$0 00415e59 f i  CIL library: CIL module
 0001:00014eed       __catch$?_Insert_n@?$vector@V?$vector@HV?$allocator@H@std@@@std@@V?$allocator@V?$vector@HV?$allocator@H@std@@@std@@@2@@std@@IAEXV?$_Vector_const_iterator@V?$vector@HV?$allocator@H@std@@@std@@V?$allocator@V?$vector@HV?$allocator@H@std@@@std@@@2@@2@IABV?$vector@HV?$allocator@H@std@@@2@@Z$2 00415eed f i  CIL library: CIL module
 0001:0001501e       __catch$??$_Uninit_fill_n@PAV?$vector@HV?$allocator@H@std@@@std@@IV12@V?$allocator@V?$vector@HV?$allocator@H@std@@@std@@@2@@std@@YAXPAV?$vector@HV?$allocator@H@std@@@0@IABV10@AAV?$allocator@V?$vector@HV?$allocator@H@std@@@std@@@0@U_Nonscalar_ptr_iterator_tag@0@U_Range_checked_iterator_tag@0@@Z$0 0041601e f i  CIL library: CIL module
 0001:000150b7       __catch$??$_Uninit_move@PAV?$vector@HV?$allocator@H@std@@@std@@PAV12@V?$allocator@V?$vector@HV?$allocator@H@std@@@std@@@2@@std@@YAPAV?$vector@HV?$allocator@H@std@@@0@PAV10@00AAV?$allocator@V?$vector@HV?$allocator@H@std@@@std@@@0@U_Swap_move_tag@0@U_Range_checked_iterator_tag@0@@Z$0 004160b7 f i  CIL library: CIL module
 0001:00016405       __catch$?_Construct_n@?$vector@VDcelEdge@@V?$allocator@VDcelEdge@@@std@@@std@@QAEXIABVDcelEdge@@@Z$0 00417405 f i  CIL library: CIL module
 0001:000165ac       __catch$??$_Uninit_fill_n@PAVDcelEdge@@IV1@V?$allocator@VDcelEdge@@@std@@@std@@YAXPAVDcelEdge@@IABV1@AAV?$allocator@VDcelEdge@@@0@U_Nonscalar_ptr_iterator_tag@0@U_Range_checked_iterator_tag@0@@Z$0 004175ac f i  CIL library: CIL module
 0001:00016603       __catch$??$_Uninit_copy@PAVDcelEdge@@PAV1@V?$allocator@VDcelEdge@@@std@@@std@@YAPAVDcelEdge@@PAV1@00AAV?$allocator@VDcelEdge@@@0@U_Nonscalar_ptr_iterator_tag@0@U_Range_checked_iterator_tag@0@@Z$0 00417603 f i  CIL library: CIL module
 0001:00016ea8       __catch$?_Insert_n@?$vector@MV?$allocator@M@std@@@std@@IAEXV?$_Vector_const_iterator@MV?$allocator@M@std@@@2@IABM@Z$0 00417ea8 f i  CIL library: CIL module
 0001:00016eb1       __catch$?_Insert_n@?$vector@MV?$allocator@M@std@@@std@@IAEXV?$_Vector_const_iterator@MV?$allocator@M@std@@@2@IABM@Z$2 00417eb1 f i  CIL library: CIL module
 0001:0001aea3       __catch$?_Construct_n@?$vector@IV?$allocator@I@std@@@std@@QAEXIABI@Z$0 0041bea3 f i  CIL library: CIL module
 0001:0001aea3       __catch$?_Construct_n@?$vector@PAVRigidBody@@V?$allocator@PAVRigidBody@@@std@@@std@@QAEXIABQAVRigidBody@@@Z$0 0041bea3 f i  CIL library: CIL module
 0001:0001b26e       __catch$?_Insert_n@?$vector@UD3DXVECTOR2@@V?$allocator@UD3DXVECTOR2@@@std@@@std@@IAEXV?$_Vector_const_iterator@UD3DXVECTOR2@@V?$allocator@UD3DXVECTOR2@@@std@@@2@IABUD3DXVECTOR2@@@Z$0 0041c26e f i  CIL library: CIL module
 0001:0001b26e       __catch$?_Insert_n@?$vector@VPrecision@@V?$allocator@VPrecision@@@std@@@std@@IAEXV?$_Vector_const_iterator@VPrecision@@V?$allocator@VPrecision@@@std@@@2@IABVPrecision@@@Z$0 0041c26e f i  CIL library: CIL module
 0001:0001b277       __catch$?_Insert_n@?$vector@VPrecision@@V?$allocator@VPrecision@@@std@@@std@@IAEXV?$_Vector_const_iterator@VPrecision@@V?$allocator@VPrecision@@@std@@@2@IABVPrecision@@@Z$2 0041c277 f i  CIL library: CIL module
 0001:0001b277       __catch$?_Insert_n@?$vector@UD3DXVECTOR2@@V?$allocator@UD3DXVECTOR2@@@std@@@std@@IAEXV?$_Vector_const_iterator@UD3DXVECTOR2@@V?$allocator@UD3DXVECTOR2@@@std@@@2@IABUD3DXVECTOR2@@@Z$2 0041c277 f i  CIL library: CIL module
 0001:0001b43f       __catch$?_Insert_n@?$vector@PAVRigidBody@@V?$allocator@PAVRigidBody@@@std@@@std@@IAEXV?$_Vector_const_iterator@PAVRigidBody@@V?$allocator@PAVRigidBody@@@std@@@2@IABQAVRigidBody@@@Z$0 0041c43f f i  CIL library: CIL module
 0001:0001b43f       __catch$?_Insert_n@?$vector@PAVStaticRigidBody@@V?$allocator@PAVStaticRigidBody@@@std@@@std@@IAEXV?$_Vector_const_iterator@PAVStaticRigidBody@@V?$allocator@PAVStaticRigidBody@@@std@@@2@IABQAVStaticRigidBody@@@Z$0 0041c43f f i  CIL library: CIL module
 0001:0001b43f       __catch$?_Insert_n@?$vector@PAVDeferredMeshModel@@V?$allocator@PAVDeferredMeshModel@@@std@@@std@@IAEXV?$_Vector_const_iterator@PAVDeferredMeshModel@@V?$allocator@PAVDeferredMeshModel@@@std@@@2@IABQAVDeferredMeshModel@@@Z$0 0041c43f f i  CIL library: CIL module
 0001:0001b448       __catch$?_Insert_n@?$vector@PAVDeferredMeshModel@@V?$allocator@PAVDeferredMeshModel@@@std@@@std@@IAEXV?$_Vector_const_iterator@PAVDeferredMeshModel@@V?$allocator@PAVDeferredMeshModel@@@std@@@2@IABQAVDeferredMeshModel@@@Z$2 0041c448 f i  CIL library: CIL module
 0001:0001b448       __catch$?_Insert_n@?$vector@PAVRigidBody@@V?$allocator@PAVRigidBody@@@std@@@std@@IAEXV?$_Vector_const_iterator@PAVRigidBody@@V?$allocator@PAVRigidBody@@@std@@@2@IABQAVRigidBody@@@Z$2 0041c448 f i  CIL library: CIL module
 0001:0001b448       __catch$?_Insert_n@?$vector@PAVStaticRigidBody@@V?$allocator@PAVStaticRigidBody@@@std@@@std@@IAEXV?$_Vector_const_iterator@PAVStaticRigidBody@@V?$allocator@PAVStaticRigidBody@@@std@@@2@IABQAVStaticRigidBody@@@Z$2 0041c448 f i  CIL library: CIL module
 0001:0001b691       __catch$?_Insert_n@?$vector@UPairBodies@@V?$allocator@UPairBodies@@@std@@@std@@IAEXV?$_Vector_const_iterator@UPairBodies@@V?$allocator@UPairBodies@@@std@@@2@IABUPairBodies@@@Z$0 0041c691 f i  CIL library: CIL module
 0001:0001b69a       __catch$?_Insert_n@?$vector@UPairBodies@@V?$allocator@UPairBodies@@@std@@@std@@IAEXV?$_Vector_const_iterator@UPairBodies@@V?$allocator@UPairBodies@@@std@@@2@IABUPairBodies@@@Z$2 0041c69a f i  CIL library: CIL module
 0001:0001bbf1       __catch$??$_Uninit_fill_n@PAUPairBodies@@IU1@V?$allocator@UPairBodies@@@std@@@std@@YAXPAUPairBodies@@IABU1@AAV?$allocator@UPairBodies@@@0@U_Nonscalar_ptr_iterator_tag@0@U_Range_checked_iterator_tag@0@@Z$0 0041cbf1 f i  CIL library: CIL module
 0001:0001bf81       __catch$??$_Uninit_copy@PAUPairBodies@@PAU1@V?$allocator@UPairBodies@@@std@@@std@@YAPAUPairBodies@@PAU1@00AAV?$allocator@UPairBodies@@@0@U_Nonscalar_ptr_iterator_tag@0@U_Range_checked_iterator_tag@0@@Z$0 0041cf81 f i  CIL library: CIL module
 0001:0001ebf2       __catch$?_Insert_n@?$vector@PAVHeightZone@@V?$allocator@PAVHeightZone@@@std@@@std@@IAEXV?$_Vector_const_iterator@PAVHeightZone@@V?$allocator@PAVHeightZone@@@std@@@2@IABQAVHeightZone@@@Z$0 0041fbf2 f i  CIL library: CIL module
 0001:0001ebf2       __catch$?_Insert_n@?$vector@PAVRigidBodyExt@@V?$allocator@PAVRigidBodyExt@@@std@@@std@@IAEXV?$_Vector_const_iterator@PAVRigidBodyExt@@V?$allocator@PAVRigidBodyExt@@@std@@@2@IABQAVRigidBodyExt@@@Z$0 0041fbf2 f i  CIL library: CIL module
 0001:0001ebf2       __catch$?_Insert_n@?$vector@PAV?$LineListModel@UD3DXVECTOR3@@@@V?$allocator@PAV?$LineListModel@UD3DXVECTOR3@@@@@std@@@std@@IAEXV?$_Vector_const_iterator@PAV?$LineListModel@UD3DXVECTOR3@@@@V?$allocator@PAV?$LineListModel@UD3DXVECTOR3@@@@@std@@@2@IABQAV?$LineListModel@UD3DXVECTOR3@@@@@Z$0 0041fbf2 f i  CIL library: CIL module
 0001:0001ebfb       __catch$?_Insert_n@?$vector@PAVRigidBodyExt@@V?$allocator@PAVRigidBodyExt@@@std@@@std@@IAEXV?$_Vector_const_iterator@PAVRigidBodyExt@@V?$allocator@PAVRigidBodyExt@@@std@@@2@IABQAVRigidBodyExt@@@Z$2 0041fbfb f i  CIL library: CIL module
 0001:0001ebfb       __catch$?_Insert_n@?$vector@PAVHeightZone@@V?$allocator@PAVHeightZone@@@std@@@std@@IAEXV?$_Vector_const_iterator@PAVHeightZone@@V?$allocator@PAVHeightZone@@@std@@@2@IABQAVHeightZone@@@Z$2 0041fbfb f i  CIL library: CIL module
 0001:0001ebfb       __catch$?_Insert_n@?$vector@PAV?$LineListModel@UD3DXVECTOR3@@@@V?$allocator@PAV?$LineListModel@UD3DXVECTOR3@@@@@std@@@std@@IAEXV?$_Vector_const_iterator@PAV?$LineListModel@UD3DXVECTOR3@@@@V?$allocator@PAV?$LineListModel@UD3DXVECTOR3@@@@@std@@@2@IABQAV?$LineListModel@UD3DXVECTOR3@@@@@Z$2 0041fbfb f i  CIL library: CIL module
 0001:0001f208       _pre_cpp_init              00420208 f   MSVCRT:crtexew.obj
 0001:0001f253       ___tmainCRTStartup         00420253 f   MSVCRT:crtexew.obj
 0001:0001f432       _pre_c_init                00420432 f   MSVCRT:crtexew.obj
 0001:0001fb8b       _has_osfxsr_set            00420b8b f   MSVCRT:cpu_disp.obj
 0001:0001fc4a       __ehhandler$??$_Uninit_fill_n@PAUPairBodies@@IU1@V?$allocator@UPairBodies@@@std@@@std@@YAXPAUPairBodies@@IABU1@AAV?$allocator@UPairBodies@@@0@U_Nonscalar_ptr_iterator_tag@0@U_Range_checked_iterator_tag@0@@Z 00420c4a f    CIL library: CIL module
 0001:0001fc54       __ehhandler$??$_Uninit_fill_n@PAVDcelEdge@@IV1@V?$allocator@VDcelEdge@@@std@@@std@@YAXPAVDcelEdge@@IABV1@AAV?$allocator@VDcelEdge@@@0@U_Nonscalar_ptr_iterator_tag@0@U_Range_checked_iterator_tag@0@@Z 00420c54 f    CIL library: CIL module
 0001:0001fc5e       __ehhandler$??$_Uninit_fill_n@PAVVertexPosNor@@IV1@V?$allocator@VVertexPosNor@@@std@@@std@@YAXPAVVertexPosNor@@IABV1@AAV?$allocator@VVertexPosNor@@@0@U_Nonscalar_ptr_iterator_tag@0@U_Range_checked_iterator_tag@0@@Z 00420c5e f    CIL library: CIL module
 0001:0001fc68       __ehhandler$??$_Uninit_fill_n@PAUVertPNT@@IU1@V?$allocator@UVertPNT@@@std@@@std@@YAXPAUVertPNT@@IABU1@AAV?$allocator@UVertPNT@@@0@U_Nonscalar_ptr_iterator_tag@0@U_Range_checked_iterator_tag@0@@Z 00420c68 f    CIL library: CIL module
 0001:0001fc72       __ehhandler$?_Buynode@?$list@UFacesOfEdge@@V?$allocator@UFacesOfEdge@@@std@@@std@@IAEPAU_Node@?$_List_nod@UFacesOfEdge@@V?$allocator@UFacesOfEdge@@@std@@@2@PAU342@0ABUFacesOfEdge@@@Z 00420c72 f    CIL library: CIL module
 0001:0001fc7c       __ehhandler$?_Buynode@?$list@UFacesOfEdge@@V?$allocator@UFacesOfEdge@@@std@@@std@@IAEPAU_Node@?$_List_nod@UFacesOfEdge@@V?$allocator@UFacesOfEdge@@@std@@@2@XZ 00420c7c f    CIL library: CIL module
 0001:0001fc86       __ehhandler$??$_Uninit_fill_n@PAVPrecision@@IV1@V?$allocator@VPrecision@@@std@@@std@@YAXPAVPrecision@@IABV1@AAV?$allocator@VPrecision@@@0@U_Nonscalar_ptr_iterator_tag@0@U_Range_checked_iterator_tag@0@@Z 00420c86 f    CIL library: CIL module
 0001:0001fc86       __ehhandler$??$_Uninit_fill_n@PAUBevelESharedNEdgeGroup@MeshComponent@@IU12@V?$allocator@UBevelESharedNEdgeGroup@MeshComponent@@@std@@@std@@YAXPAUBevelESharedNEdgeGroup@MeshComponent@@IABU12@AAV?$allocator@UBevelESharedNEdgeGroup@MeshComponent@@@0@U_Nonscalar_ptr_iterator_tag@0@U_Range_checked_iterator_tag@0@@Z 00420c86 f    CIL library: CIL module
 0001:0001fc86       __ehhandler$??$_Uninit_fill_n@PAVOpPrimCube@OpInfo@@IV12@V?$allocator@VOpPrimCube@OpInfo@@@std@@@std@@YAXPAVOpPrimCube@OpInfo@@IABV12@AAV?$allocator@VOpPrimCube@OpInfo@@@0@U_Nonscalar_ptr_iterator_tag@0@U_Range_checked_iterator_tag@0@@Z 00420c86 f    CIL library: CIL module
 0001:0001fc86       __ehhandler$??$_Uninit_fill_n@PAUD3DXVECTOR2@@IU1@V?$allocator@UD3DXVECTOR2@@@std@@@std@@YAXPAUD3DXVECTOR2@@IABU1@AAV?$allocator@UD3DXVECTOR2@@@0@U_Nonscalar_ptr_iterator_tag@0@U_Range_checked_iterator_tag@0@@Z 00420c86 f    CIL library: CIL module
 0001:0001fc90       __ehhandler$??$_Uninit_fill_n@PAUBevelEIntermidiateSharedNEdge@MeshComponent@@IU12@V?$allocator@UBevelEIntermidiateSharedNEdge@MeshComponent@@@std@@@std@@YAXPAUBevelEIntermidiateSharedNEdge@MeshComponent@@IABU12@AAV?$allocator@UBevelEIntermidiateSharedNEdge@MeshComponent@@@0@U_Nonscalar_ptr_iterator_tag@0@U_Range_checked_iterator_tag@0@@Z 00420c90 f    CIL library: CIL module
 0001:0001fc9a       __ehhandler$??$_Uninit_copy@PAUEdgeIntersection@ObjEd@@PAU12@V?$allocator@UEdgeIntersection@ObjEd@@@std@@@std@@YAPAUEdgeIntersection@ObjEd@@PAU12@00AAV?$allocator@UEdgeIntersection@ObjEd@@@0@U_Nonscalar_ptr_iterator_tag@0@U_Range_checked_iterator_tag@0@@Z 00420c9a f    CIL library: CIL module
 0001:0001fca4       __ehhandler$??$_Uninit_copy@PAUSelection@ObjEd@@PAU12@V?$allocator@USelection@ObjEd@@@std@@@std@@YAPAUSelection@ObjEd@@PAU12@00AAV?$allocator@USelection@ObjEd@@@0@U_Nonscalar_ptr_iterator_tag@0@U_Range_checked_iterator_tag@0@@Z 00420ca4 f    CIL library: CIL module
 0001:0001fca4       __ehhandler$??$_Uninit_copy@PAUD3DXVECTOR3@@PAU1@V?$allocator@UD3DXVECTOR3@@@std@@@std@@YAPAUD3DXVECTOR3@@PAU1@00AAV?$allocator@UD3DXVECTOR3@@@0@U_Nonscalar_ptr_iterator_tag@0@U_Range_checked_iterator_tag@0@@Z 00420ca4 f    CIL library: CIL module
 0001:0001fca4       __ehhandler$??$_Uninit_copy@PBUD3DXVECTOR3@@PAU1@V?$allocator@UD3DXVECTOR3@@@std@@@std@@YAPAUD3DXVECTOR3@@PBU1@0PAU1@AAV?$allocator@UD3DXVECTOR3@@@0@U_Nonscalar_ptr_iterator_tag@0@U_Range_checked_iterator_tag@0@@Z 00420ca4 f    CIL library: CIL module
 0001:0001fca4       __ehhandler$??$_Uninit_copy@PBUSelection@ObjEd@@PAU12@V?$allocator@USelection@ObjEd@@@std@@@std@@YAPAUSelection@ObjEd@@PBU12@0PAU12@AAV?$allocator@USelection@ObjEd@@@0@U_Nonscalar_ptr_iterator_tag@0@U_Range_checked_iterator_tag@0@@Z 00420ca4 f    CIL library: CIL module
 0001:0001fcae       __ehhandler$?_Buynode@?$list@HV?$allocator@H@std@@@std@@IAEPAU_Node@?$_List_nod@HV?$allocator@H@std@@@2@PAU342@0ABH@Z 00420cae f    CIL library: CIL module
 0001:0001fcb8       __ehhandler$?_Buynode@?$list@HV?$allocator@H@std@@@std@@IAEPAU_Node@?$_List_nod@HV?$allocator@H@std@@@2@XZ 00420cb8 f    CIL library: CIL module
 0001:0001fcc2       __ehhandler$??$?6U?$char_traits@D@std@@@std@@YAAAV?$basic_ostream@DU?$char_traits@D@std@@@0@AAV10@PBD@Z 00420cc2 f    CIL library: CIL module
 0001:0001fccc       __ehhandler$?_Insert_n@?$vector@PAV?$LineListModel@UD3DXVECTOR3@@@@V?$allocator@PAV?$LineListModel@UD3DXVECTOR3@@@@@std@@@std@@IAEXV?$_Vector_const_iterator@PAV?$LineListModel@UD3DXVECTOR3@@@@V?$allocator@PAV?$LineListModel@UD3DXVECTOR3@@@@@std@@@2@IABQAV?$LineListModel@UD3DXVECTOR3@@@@@Z 00420ccc f    CIL library: CIL module
 0001:0001fccc       __ehhandler$?_Insert_n@?$vector@PAVHeightZone@@V?$allocator@PAVHeightZone@@@std@@@std@@IAEXV?$_Vector_const_iterator@PAVHeightZone@@V?$allocator@PAVHeightZone@@@std@@@2@IABQAVHeightZone@@@Z 00420ccc f    CIL library: CIL module
 0001:0001fccc       __ehhandler$?_Insert_n@?$vector@PAVRigidBodyExt@@V?$allocator@PAVRigidBodyExt@@@std@@@std@@IAEXV?$_Vector_const_iterator@PAVRigidBodyExt@@V?$allocator@PAVRigidBodyExt@@@std@@@2@IABQAVRigidBodyExt@@@Z 00420ccc f    CIL library: CIL module
 0001:0001fcd6       __ehhandler$??$_Uninit_copy@PAUPairBodies@@PAU1@V?$allocator@UPairBodies@@@std@@@std@@YAPAUPairBodies@@PAU1@00AAV?$allocator@UPairBodies@@@0@U_Nonscalar_ptr_iterator_tag@0@U_Range_checked_iterator_tag@0@@Z 00420cd6 f    CIL library: CIL module
 0001:0001fce0       __ehhandler$?_Insert_n@?$vector@UPairBodies@@V?$allocator@UPairBodies@@@std@@@std@@IAEXV?$_Vector_const_iterator@UPairBodies@@V?$allocator@UPairBodies@@@std@@@2@IABUPairBodies@@@Z 00420ce0 f    CIL library: CIL module
 0001:0001fcea       __ehhandler$?_Insert_n@?$vector@PAVStaticRigidBody@@V?$allocator@PAVStaticRigidBody@@@std@@@std@@IAEXV?$_Vector_const_iterator@PAVStaticRigidBody@@V?$allocator@PAVStaticRigidBody@@@std@@@2@IABQAVStaticRigidBody@@@Z 00420cea f    CIL library: CIL module
 0001:0001fcea       __ehhandler$?_Insert_n@?$vector@PAVDeferredMeshModel@@V?$allocator@PAVDeferredMeshModel@@@std@@@std@@IAEXV?$_Vector_const_iterator@PAVDeferredMeshModel@@V?$allocator@PAVDeferredMeshModel@@@std@@@2@IABQAVDeferredMeshModel@@@Z 00420cea f    CIL library: CIL module
 0001:0001fcea       __ehhandler$?_Insert_n@?$vector@PAVRigidBody@@V?$allocator@PAVRigidBody@@@std@@@std@@IAEXV?$_Vector_const_iterator@PAVRigidBody@@V?$allocator@PAVRigidBody@@@std@@@2@IABQAVRigidBody@@@Z 00420cea f    CIL library: CIL module
 0001:0001fcf4       __ehhandler$?_Insert_n@?$vector@UD3DXVECTOR2@@V?$allocator@UD3DXVECTOR2@@@std@@@std@@IAEXV?$_Vector_const_iterator@UD3DXVECTOR2@@V?$allocator@UD3DXVECTOR2@@@std@@@2@IABUD3DXVECTOR2@@@Z 00420cf4 f    CIL library: CIL module
 0001:0001fcf4       __ehhandler$?_Insert_n@?$vector@VPrecision@@V?$allocator@VPrecision@@@std@@@std@@IAEXV?$_Vector_const_iterator@VPrecision@@V?$allocator@VPrecision@@@std@@@2@IABVPrecision@@@Z 00420cf4 f    CIL library: CIL module
 0001:0001fcfe       __ehhandler$?_Construct_n@?$vector@PAVRigidBody@@V?$allocator@PAVRigidBody@@@std@@@std@@QAEXIABQAVRigidBody@@@Z 00420cfe f    CIL library: CIL module
 0001:0001fcfe       __ehhandler$?_Construct_n@?$vector@IV?$allocator@I@std@@@std@@QAEXIABI@Z 00420cfe f    CIL library: CIL module
 0001:0001fd08       __ehhandler$?_Insert_n@?$vector@MV?$allocator@M@std@@@std@@IAEXV?$_Vector_const_iterator@MV?$allocator@M@std@@@2@IABM@Z 00420d08 f    CIL library: CIL module
 0001:0001fd12       __ehhandler$??$_Uninit_copy@PAVDcelEdge@@PAV1@V?$allocator@VDcelEdge@@@std@@@std@@YAPAVDcelEdge@@PAV1@00AAV?$allocator@VDcelEdge@@@0@U_Nonscalar_ptr_iterator_tag@0@U_Range_checked_iterator_tag@0@@Z 00420d12 f    CIL library: CIL module
 0001:0001fd1c       __ehhandler$?_Construct_n@?$vector@VDcelEdge@@V?$allocator@VDcelEdge@@@std@@@std@@QAEXIABVDcelEdge@@@Z 00420d1c f    CIL library: CIL module
 0001:0001fd26       __ehhandler$??$_Uninit_copy@PAVVertexPosNor@@PAV1@V?$allocator@VVertexPosNor@@@std@@@std@@YAPAVVertexPosNor@@PAV1@00AAV?$allocator@VVertexPosNor@@@0@U_Nonscalar_ptr_iterator_tag@0@U_Range_checked_iterator_tag@0@@Z 00420d26 f    CIL library: CIL module
 0001:0001fd30       __ehhandler$??$_Uninit_copy@PAVOpPrimCube@OpInfo@@PAV12@V?$allocator@VOpPrimCube@OpInfo@@@std@@@std@@YAPAVOpPrimCube@OpInfo@@PAV12@00AAV?$allocator@VOpPrimCube@OpInfo@@@0@U_Nonscalar_ptr_iterator_tag@0@U_Range_checked_iterator_tag@0@@Z 00420d30 f    CIL library: CIL module
 0001:0001fd30       __ehhandler$??$_Uninit_copy@PAVPrecision@@PAV1@V?$allocator@VPrecision@@@std@@@std@@YAPAVPrecision@@PAV1@00AAV?$allocator@VPrecision@@@0@U_Nonscalar_ptr_iterator_tag@0@U_Range_checked_iterator_tag@0@@Z 00420d30 f    CIL library: CIL module
 0001:0001fd30       __ehhandler$??$_Uninit_copy@PAUD3DXVECTOR2@@PAU1@V?$allocator@UD3DXVECTOR2@@@std@@@std@@YAPAUD3DXVECTOR2@@PAU1@00AAV?$allocator@UD3DXVECTOR2@@@0@U_Nonscalar_ptr_iterator_tag@0@U_Range_checked_iterator_tag@0@@Z 00420d30 f    CIL library: CIL module
 0001:0001fd3a       __ehhandler$??$_Uninit_copy@PAUVertPNT@@PAU1@V?$allocator@UVertPNT@@@std@@@std@@YAPAUVertPNT@@PAU1@00AAV?$allocator@UVertPNT@@@0@U_Nonscalar_ptr_iterator_tag@0@U_Range_checked_iterator_tag@0@@Z 00420d3a f    CIL library: CIL module
 0001:0001fd44       __ehhandler$?_Insert_n@?$vector@UVertPNT@@V?$allocator@UVertPNT@@@std@@@std@@IAEXV?$_Vector_const_iterator@UVertPNT@@V?$allocator@UVertPNT@@@std@@@2@IABUVertPNT@@@Z 00420d44 f    CIL library: CIL module
 0001:0001fd4e       __ehhandler$??$_Uninit_fill_n@PAUEdgeBevelE@?3??bevelEStart@MeshComponent@@QAE?AUBevelEInfo@ObjEd@@AAV?$vector@USelection@ObjEd@@V?$allocator@USelection@ObjEd@@@std@@@std@@@Z@IU1?3??23@QAE?AU45@0@Z@V?$allocator@UEdgeBevelE@?3??bevelEStart@MeshComponent@@QAE?AUBevelEInfo@ObjEd@@AAV?$vector@USelection@ObjEd@@V?$allocator@USelection@ObjEd@@@std@@@std@@@Z@@7@@std@@YAXPAUEdgeBevelE@?3??bevelEStart@MeshComponent@@QAE?AUBevelEInfo@ObjEd@@AAV?$vector@USelection@ObjEd@@V?$allocator@USelection@ObjEd@@@std@@@0@@Z@IABU1?3??23@QAE?AU45@0@Z@AAV?$allocator@UEdgeBevelE@?3??bevelEStart@MeshComponent@@QAE?AUBevelEInfo@ObjEd@@AAV?$vector@USelection@ObjEd@@V?$allocator@USelection@ObjEd@@@std@@@std@@@Z@@0@U_Nonscalar_ptr_iterator_tag@0@U_Range_checked_iterator_tag@0@@Z 00420d4e f    CIL library: CIL module
 0001:0001fd4e       __ehhandler$??$_Uninit_fill_n@PAUEdgeIntersection@ObjEd@@IU12@V?$allocator@UEdgeIntersection@ObjEd@@@std@@@std@@YAXPAUEdgeIntersection@ObjEd@@IABU12@AAV?$allocator@UEdgeIntersection@ObjEd@@@0@U_Nonscalar_ptr_iterator_tag@0@U_Range_checked_iterator_tag@0@@Z 00420d4e f    CIL library: CIL module
 0001:0001fd58       __ehhandler$?_Construct_n@?$vector@HV?$allocator@H@std@@@std@@QAEXIABH@Z 00420d58 f    CIL library: CIL module
 0001:0001fd58       __ehhandler$?_Construct_n@?$vector@PAVHE_face@@V?$allocator@PAVHE_face@@@std@@@std@@QAEXIABQAVHE_face@@@Z 00420d58 f    CIL library: CIL module
 0001:0001fd58       __ehhandler$?_Construct_n@?$vector@PAVStaticRigidBody@@V?$allocator@PAVStaticRigidBody@@@std@@@std@@QAEXIABQAVStaticRigidBody@@@Z 00420d58 f    CIL library: CIL module
 0001:0001fd58       __ehhandler$?_Construct_n@?$vector@PAVHE_edge@@V?$allocator@PAVHE_edge@@@std@@@std@@QAEXIABQAVHE_edge@@@Z 00420d58 f    CIL library: CIL module
 0001:0001fd58       __ehhandler$?_Construct_n@?$vector@PAVHE_vert@@V?$allocator@PAVHE_vert@@@std@@@std@@QAEXIABQAVHE_vert@@@Z 00420d58 f    CIL library: CIL module
 0001:0001fd62       __ehhandler$??$_Uninit_copy@PAUBevelEIntermidiateSharedNEdge@MeshComponent@@PAU12@V?$allocator@UBevelEIntermidiateSharedNEdge@MeshComponent@@@std@@@std@@YAPAUBevelEIntermidiateSharedNEdge@MeshComponent@@PAU12@00AAV?$allocator@UBevelEIntermidiateSharedNEdge@MeshComponent@@@0@U_Nonscalar_ptr_iterator_tag@0@U_Range_checked_iterator_tag@0@@Z 00420d62 f    CIL library: CIL module
 0001:0001fd6c       __ehhandler$??$_Uninit_fill_n@PAUSelection@ObjEd@@IU12@V?$allocator@USelection@ObjEd@@@std@@@std@@YAXPAUSelection@ObjEd@@IABU12@AAV?$allocator@USelection@ObjEd@@@0@U_Nonscalar_ptr_iterator_tag@0@U_Range_checked_iterator_tag@0@@Z 00420d6c f    CIL library: CIL module
 0001:0001fd6c       __ehhandler$??$_Uninit_fill_n@PAUD3DXVECTOR3@@IU1@V?$allocator@UD3DXVECTOR3@@@std@@@std@@YAXPAUD3DXVECTOR3@@IABU1@AAV?$allocator@UD3DXVECTOR3@@@0@U_Nonscalar_ptr_iterator_tag@0@U_Range_checked_iterator_tag@0@@Z 00420d6c f    CIL library: CIL module
 0001:0001fd76       __ehhandler$?_Insert_n@?$vector@UBevelEIntermidiateSharedNEdge@MeshComponent@@V?$allocator@UBevelEIntermidiateSharedNEdge@MeshComponent@@@std@@@std@@IAEXV?$_Vector_const_iterator@UBevelEIntermidiateSharedNEdge@MeshComponent@@V?$allocator@UBevelEIntermidiateSharedNEdge@MeshComponent@@@std@@@2@IABUBevelEIntermidiateSharedNEdge@MeshComponent@@@Z 00420d76 f    CIL library: CIL module
 0001:0001fd80       __ehhandler$?_Construct_n@?$vector@UBevelESharedNEdgeGroup@MeshComponent@@V?$allocator@UBevelESharedNEdgeGroup@MeshComponent@@@std@@@std@@QAEXIABUBevelESharedNEdgeGroup@MeshComponent@@@Z 00420d80 f    CIL library: CIL module
 0001:0001fd8a       __ehhandler$?_Construct_n@?$vector@UBevelEIntermidiateSharedNEdge@MeshComponent@@V?$allocator@UBevelEIntermidiateSharedNEdge@MeshComponent@@@std@@@std@@QAEXIABUBevelEIntermidiateSharedNEdge@MeshComponent@@@Z 00420d8a f    CIL library: CIL module
 0001:0001fd94       __ehhandler$?_Construct_n@?$vector@UEdgeBevelE@?3??bevelEStart@MeshComponent@@QAE?AUBevelEInfo@ObjEd@@AAV?$vector@USelection@ObjEd@@V?$allocator@USelection@ObjEd@@@std@@@std@@@Z@V?$allocator@UEdgeBevelE@?3??bevelEStart@MeshComponent@@QAE?AUBevelEInfo@ObjEd@@AAV?$vector@USelection@ObjEd@@V?$allocator@USelection@ObjEd@@@std@@@std@@@Z@@7@@std@@QAEXIABUEdgeBevelE@?3??bevelEStart@MeshComponent@@QAE?AUBevelEInfo@ObjEd@@AAV?$vector@USelection@ObjEd@@V?$allocator@USelection@ObjEd@@@std@@@2@@Z@@Z 00420d94 f    CIL library: CIL module
 0001:0001fd9e       __ehhandler$?_Insert_n@?$vector@PAVTimeTorque@@V?$allocator@PAVTimeTorque@@@std@@@std@@IAEXV?$_Vector_const_iterator@PAVTimeTorque@@V?$allocator@PAVTimeTorque@@@std@@@2@IABQAVTimeTorque@@@Z 00420d9e f    CIL library: CIL module
 0001:0001fd9e       __ehhandler$?_Insert_n@?$vector@PAVTimeForce@@V?$allocator@PAVTimeForce@@@std@@@std@@IAEXV?$_Vector_const_iterator@PAVTimeForce@@V?$allocator@PAVTimeForce@@@std@@@2@IABQAVTimeForce@@@Z 00420d9e f    CIL library: CIL module
 0001:0001fd9e       __ehhandler$?_Insert_n@?$vector@PAVMeshComponent@@V?$allocator@PAVMeshComponent@@@std@@@std@@IAEXV?$_Vector_const_iterator@PAVMeshComponent@@V?$allocator@PAVMeshComponent@@@std@@@2@IABQAVMeshComponent@@@Z 00420d9e f    CIL library: CIL module
 0001:0001fda8       __ehhandler$??0?$vector@USelection@ObjEd@@V?$allocator@USelection@ObjEd@@@std@@@std@@QAE@ABV01@@Z 00420da8 f    CIL library: CIL module
 0001:0001fdb2       __ehhandler$??0?$vector@UD3DXVECTOR3@@V?$allocator@UD3DXVECTOR3@@@std@@@std@@QAE@ABV01@@Z 00420db2 f    CIL library: CIL module
 0001:0001fdbc       __ehhandler$??0?$vector@HV?$allocator@H@std@@@std@@QAE@ABV01@@Z 00420dbc f    CIL library: CIL module
 0001:0001fdc6       __ehhandler$??$_Uninit_fill_n@PAV?$vector@HV?$allocator@H@std@@@std@@IV12@V?$allocator@V?$vector@HV?$allocator@H@std@@@std@@@2@@std@@YAXPAV?$vector@HV?$allocator@H@std@@@0@IABV10@AAV?$allocator@V?$vector@HV?$allocator@H@std@@@std@@@0@U_Nonscalar_ptr_iterator_tag@0@U_Range_checked_iterator_tag@0@@Z 00420dc6 f    CIL library: CIL module
 0001:0001fdd0       __ehhandler$?_Insert_n@?$vector@VVertexPosNor@@V?$allocator@VVertexPosNor@@@std@@@std@@IAEXV?$_Vector_const_iterator@VVertexPosNor@@V?$allocator@VVertexPosNor@@@std@@@2@IABVVertexPosNor@@@Z 00420dd0 f    CIL library: CIL module
 0001:0001fdda       __ehhandler$?_Construct_n@?$vector@UVertPNT@@V?$allocator@UVertPNT@@@std@@@std@@QAEXIABUVertPNT@@@Z 00420dda f    CIL library: CIL module
 0001:0001fde4       __ehhandler$?_Insert_n@?$vector@VOpPrimCube@OpInfo@@V?$allocator@VOpPrimCube@OpInfo@@@std@@@std@@IAEXV?$_Vector_const_iterator@VOpPrimCube@OpInfo@@V?$allocator@VOpPrimCube@OpInfo@@@std@@@2@IABVOpPrimCube@OpInfo@@@Z 00420de4 f    CIL library: CIL module
 0001:0001fdee       __ehhandler$?_Insert_n@?$vector@PAVHE_edge@@V?$allocator@PAVHE_edge@@@std@@@std@@IAEXV?$_Vector_const_iterator@PAVHE_edge@@V?$allocator@PAVHE_edge@@@std@@@2@IABQAVHE_edge@@@Z 00420dee f    CIL library: CIL module
 0001:0001fdee       __ehhandler$?_Insert_n@?$vector@IV?$allocator@I@std@@@std@@IAEXV?$_Vector_const_iterator@IV?$allocator@I@std@@@2@IABI@Z 00420dee f    CIL library: CIL module
 0001:0001fdee       __ehhandler$?_Insert_n@?$vector@HV?$allocator@H@std@@@std@@IAEXV?$_Vector_const_iterator@HV?$allocator@H@std@@@2@IABH@Z 00420dee f    CIL library: CIL module
 0001:0001fdee       __ehhandler$?_Insert_n@?$vector@PAVHE_vert@@V?$allocator@PAVHE_vert@@@std@@@std@@IAEXV?$_Vector_const_iterator@PAVHE_vert@@V?$allocator@PAVHE_vert@@@std@@@2@IABQAVHE_vert@@@Z 00420dee f    CIL library: CIL module
 0001:0001fdf8       __ehhandler$?_Construct_n@?$vector@UEdgeIntersection@ObjEd@@V?$allocator@UEdgeIntersection@ObjEd@@@std@@@std@@QAEXIABUEdgeIntersection@ObjEd@@@Z 00420df8 f    CIL library: CIL module
 0001:0001fe02       __ehhandler$?_Insert_n@?$vector@PAVHE_face@@V?$allocator@PAVHE_face@@@std@@@std@@IAEXV?$_Vector_const_iterator@PAVHE_face@@V?$allocator@PAVHE_face@@@std@@@2@IABQAVHE_face@@@Z 00420e02 f    CIL library: CIL module
 0001:0001fe0c       __ehhandler$?_Construct_n@?$vector@USelection@ObjEd@@V?$allocator@USelection@ObjEd@@@std@@@std@@QAEXIABUSelection@ObjEd@@@Z 00420e0c f    CIL library: CIL module
 0001:0001fe0c       __ehhandler$?_Construct_n@?$vector@UD3DXVECTOR3@@V?$allocator@UD3DXVECTOR3@@@std@@@std@@QAEXIABUD3DXVECTOR3@@@Z 00420e0c f    CIL library: CIL module
 0001:0001fe16       __ehhandler$??$_Uninit_fill_n@PAV?$vector@PAVHE_edge@@V?$allocator@PAVHE_edge@@@std@@@std@@IV12@V?$allocator@V?$vector@PAVHE_edge@@V?$allocator@PAVHE_edge@@@std@@@std@@@2@@std@@YAXPAV?$vector@PAVHE_edge@@V?$allocator@PAVHE_edge@@@std@@@0@IABV10@AAV?$allocator@V?$vector@PAVHE_edge@@V?$allocator@PAVHE_edge@@@std@@@std@@@0@U_Nonscalar_ptr_iterator_tag@0@U_Range_checked_iterator_tag@0@@Z 00420e16 f    CIL library: CIL module
 0001:0001fe20       __ehhandler$?_Insert_n@?$vector@UD3DXVECTOR3@@V?$allocator@UD3DXVECTOR3@@@std@@@std@@IAEXV?$_Vector_const_iterator@UD3DXVECTOR3@@V?$allocator@UD3DXVECTOR3@@@std@@@2@IABUD3DXVECTOR3@@@Z 00420e20 f    CIL library: CIL module
 0001:0001fe2a       __ehhandler$??0?$vector@PAVHE_edge@@V?$allocator@PAVHE_edge@@@std@@@std@@QAE@ABV01@@Z 00420e2a f    CIL library: CIL module
 0001:0001fe2a       __ehhandler$??0?$vector@PAVHE_vert@@V?$allocator@PAVHE_vert@@@std@@@std@@QAE@ABV01@@Z 00420e2a f    CIL library: CIL module
 0001:0001fe2a       __ehhandler$??0?$vector@PAVStaticRigidBody@@V?$allocator@PAVStaticRigidBody@@@std@@@std@@QAE@ABV01@@Z 00420e2a f    CIL library: CIL module
 0001:0001fe34       __ehhandler$??$_Uninit_move@PAV?$vector@HV?$allocator@H@std@@@std@@PAV12@V?$allocator@V?$vector@HV?$allocator@H@std@@@std@@@2@@std@@YAPAV?$vector@HV?$allocator@H@std@@@0@PAV10@00AAV?$allocator@V?$vector@HV?$allocator@H@std@@@std@@@0@U_Swap_move_tag@0@U_Range_checked_iterator_tag@0@@Z 00420e34 f    CIL library: CIL module
 0001:0001fe3e       __ehhandler$?_Insert_n@?$vector@V?$vector@HV?$allocator@H@std@@@std@@V?$allocator@V?$vector@HV?$allocator@H@std@@@std@@@2@@std@@IAEXV?$_Vector_const_iterator@V?$vector@HV?$allocator@H@std@@@std@@V?$allocator@V?$vector@HV?$allocator@H@std@@@std@@@2@@2@IABV?$vector@HV?$allocator@H@std@@@2@@Z 00420e3e f    CIL library: CIL module
 0001:0001fe48       __ehhandler$??$_Uninit_fill_n@PAVOpBevelE@OpInfo@@IV12@V?$allocator@VOpBevelE@OpInfo@@@std@@@std@@YAXPAVOpBevelE@OpInfo@@IABV12@AAV?$allocator@VOpBevelE@OpInfo@@@0@U_Nonscalar_ptr_iterator_tag@0@U_Range_checked_iterator_tag@0@@Z 00420e48 f    CIL library: CIL module
 0001:0001fe52       __ehhandler$??$_Uninit_fill_n@PAVOpKnifeLine@OpInfo@@IV12@V?$allocator@VOpKnifeLine@OpInfo@@@std@@@std@@YAXPAVOpKnifeLine@OpInfo@@IABV12@AAV?$allocator@VOpKnifeLine@OpInfo@@@0@U_Nonscalar_ptr_iterator_tag@0@U_Range_checked_iterator_tag@0@@Z 00420e52 f    CIL library: CIL module
 0001:0001fe5c       __ehhandler$??$_Insert@V?$_Vector_const_iterator@USelection@ObjEd@@V?$allocator@USelection@ObjEd@@@std@@@std@@@?$vector@USelection@ObjEd@@V?$allocator@USelection@ObjEd@@@std@@@std@@QAEXV?$_Vector_const_iterator@USelection@ObjEd@@V?$allocator@USelection@ObjEd@@@std@@@1@00Uforward_iterator_tag@1@@Z 00420e5c f    CIL library: CIL module
 0001:0001fe66       __ehhandler$??$_Uninit_copy@PBV?$vector@PAVHE_vert@@V?$allocator@PAVHE_vert@@@std@@@std@@PAV12@V?$allocator@V?$vector@PAVHE_vert@@V?$allocator@PAVHE_vert@@@std@@@std@@@2@@std@@YAPAV?$vector@PAVHE_vert@@V?$allocator@PAVHE_vert@@@std@@@0@PBV10@0PAV10@AAV?$allocator@V?$vector@PAVHE_vert@@V?$allocator@PAVHE_vert@@@std@@@std@@@0@U_Nonscalar_ptr_iterator_tag@0@U_Range_checked_iterator_tag@0@@Z 00420e66 f    CIL library: CIL module
 0001:0001fe66       __ehhandler$??$_Uninit_copy@PAV?$vector@PAVHE_vert@@V?$allocator@PAVHE_vert@@@std@@@std@@PAV12@V?$allocator@V?$vector@PAVHE_vert@@V?$allocator@PAVHE_vert@@@std@@@std@@@2@@std@@YAPAV?$vector@PAVHE_vert@@V?$allocator@PAVHE_vert@@@std@@@0@PAV10@00AAV?$allocator@V?$vector@PAVHE_vert@@V?$allocator@PAVHE_vert@@@std@@@std@@@0@U_Nonscalar_ptr_iterator_tag@0@U_Range_checked_iterator_tag@0@@Z 00420e66 f    CIL library: CIL module
 0001:0001fe70       __ehhandler$??$_Uninit_fill_n@PAUNorScaleInfo@ObjEd@@IU12@V?$allocator@UNorScaleInfo@ObjEd@@@std@@@std@@YAXPAUNorScaleInfo@ObjEd@@IABU12@AAV?$allocator@UNorScaleInfo@ObjEd@@@0@U_Nonscalar_ptr_iterator_tag@0@U_Range_checked_iterator_tag@0@@Z 00420e70 f    CIL library: CIL module
 0001:0001fe7a       __ehhandler$??$_Uninit_fill_n@PAUBevelVInfo@ObjEd@@IU12@V?$allocator@UBevelVInfo@ObjEd@@@std@@@std@@YAXPAUBevelVInfo@ObjEd@@IABU12@AAV?$allocator@UBevelVInfo@ObjEd@@@0@U_Nonscalar_ptr_iterator_tag@0@U_Range_checked_iterator_tag@0@@Z 00420e7a f    CIL library: CIL module
 0001:0001fe84       __ehhandler$??$_Construct@V?$_Vector_const_iterator@USelection@ObjEd@@V?$allocator@USelection@ObjEd@@@std@@@std@@@?$vector@USelection@ObjEd@@V?$allocator@USelection@ObjEd@@@std@@@std@@QAEXV?$_Vector_const_iterator@USelection@ObjEd@@V?$allocator@USelection@ObjEd@@@std@@@1@0Uinput_iterator_tag@1@@Z 00420e84 f    CIL library: CIL module
 0001:0001fe8e       __ehhandler$??0?$vector@V?$vector@PAVHE_vert@@V?$allocator@PAVHE_vert@@@std@@@std@@V?$allocator@V?$vector@PAVHE_vert@@V?$allocator@PAVHE_vert@@@std@@@std@@@2@@std@@QAE@ABV01@@Z 00420e8e f    CIL library: CIL module
 0001:0001fe98       __ehhandler$??$_Uninit_copy@PAVOpBevelE@OpInfo@@PAV12@V?$allocator@VOpBevelE@OpInfo@@@std@@@std@@YAPAVOpBevelE@OpInfo@@PAV12@00AAV?$allocator@VOpBevelE@OpInfo@@@0@U_Nonscalar_ptr_iterator_tag@0@U_Range_checked_iterator_tag@0@@Z 00420e98 f    CIL library: CIL module
 0001:0001fea2       __ehhandler$??$_Uninit_copy@PAVOpKnifeLine@OpInfo@@PAV12@V?$allocator@VOpKnifeLine@OpInfo@@@std@@@std@@YAPAVOpKnifeLine@OpInfo@@PAV12@00AAV?$allocator@VOpKnifeLine@OpInfo@@@0@U_Nonscalar_ptr_iterator_tag@0@U_Range_checked_iterator_tag@0@@Z 00420ea2 f    CIL library: CIL module
 0001:0001feac       __ehhandler$??$_Uninit_move@PAV?$vector@PAVHE_vert@@V?$allocator@PAVHE_vert@@@std@@@std@@PAV12@V?$allocator@V?$vector@PAVHE_vert@@V?$allocator@PAVHE_vert@@@std@@@std@@@2@@std@@YAPAV?$vector@PAVHE_vert@@V?$allocator@PAVHE_vert@@@std@@@0@PAV10@00AAV?$allocator@V?$vector@PAVHE_vert@@V?$allocator@PAVHE_vert@@@std@@@std@@@0@U_Swap_move_tag@0@U_Range_checked_iterator_tag@0@@Z 00420eac f    CIL library: CIL module
 0001:0001feb6       __ehhandler$??$_Uninit_fill_n@PAV?$vector@PAVHE_vert@@V?$allocator@PAVHE_vert@@@std@@@std@@IV12@V?$allocator@V?$vector@PAVHE_vert@@V?$allocator@PAVHE_vert@@@std@@@std@@@2@@std@@YAXPAV?$vector@PAVHE_vert@@V?$allocator@PAVHE_vert@@@std@@@0@IABV10@AAV?$allocator@V?$vector@PAVHE_vert@@V?$allocator@PAVHE_vert@@@std@@@std@@@0@U_Nonscalar_ptr_iterator_tag@0@U_Range_checked_iterator_tag@0@@Z 00420eb6 f    CIL library: CIL module
 0001:0001fec0       __ehhandler$?_Insert_n@?$vector@V?$vector@PAVHE_vert@@V?$allocator@PAVHE_vert@@@std@@@std@@V?$allocator@V?$vector@PAVHE_vert@@V?$allocator@PAVHE_vert@@@std@@@std@@@2@@std@@IAEXV?$_Vector_const_iterator@V?$vector@PAVHE_vert@@V?$allocator@PAVHE_vert@@@std@@@std@@V?$allocator@V?$vector@PAVHE_vert@@V?$allocator@PAVHE_vert@@@std@@@std@@@2@@2@IABV?$vector@PAVHE_vert@@V?$allocator@PAVHE_vert@@@std@@@2@@Z 00420ec0 f    CIL library: CIL module
 0001:0001feca       __ehhandler$??$_Uninit_move@PAV?$vector@PAVHE_edge@@V?$allocator@PAVHE_edge@@@std@@@std@@PAV12@V?$allocator@V?$vector@PAVHE_edge@@V?$allocator@PAVHE_edge@@@std@@@std@@@2@@std@@YAPAV?$vector@PAVHE_edge@@V?$allocator@PAVHE_edge@@@std@@@0@PAV10@00AAV?$allocator@V?$vector@PAVHE_edge@@V?$allocator@PAVHE_edge@@@std@@@std@@@0@U_Swap_move_tag@0@U_Range_checked_iterator_tag@0@@Z 00420eca f    CIL library: CIL module
 0001:0001fed4       __ehhandler$?_Insert_n@?$vector@V?$vector@PAVHE_edge@@V?$allocator@PAVHE_edge@@@std@@@std@@V?$allocator@V?$vector@PAVHE_edge@@V?$allocator@PAVHE_edge@@@std@@@std@@@2@@std@@IAEXV?$_Vector_const_iterator@V?$vector@PAVHE_edge@@V?$allocator@PAVHE_edge@@@std@@@std@@V?$allocator@V?$vector@PAVHE_edge@@V?$allocator@PAVHE_edge@@@std@@@std@@@2@@2@IABV?$vector@PAVHE_edge@@V?$allocator@PAVHE_edge@@@std@@@2@@Z 00420ed4 f    CIL library: CIL module
 0001:0001fede       __ehhandler$??$_Uninit_copy@PAUNorScaleInfo@ObjEd@@PAU12@V?$allocator@UNorScaleInfo@ObjEd@@@std@@@std@@YAPAUNorScaleInfo@ObjEd@@PAU12@00AAV?$allocator@UNorScaleInfo@ObjEd@@@0@U_Nonscalar_ptr_iterator_tag@0@U_Range_checked_iterator_tag@0@@Z 00420ede f    CIL library: CIL module
 0001:0001fee8       __ehhandler$??$_Uninit_copy@PAUBevelVInfo@ObjEd@@PAU12@V?$allocator@UBevelVInfo@ObjEd@@@std@@@std@@YAPAUBevelVInfo@ObjEd@@PAU12@00AAV?$allocator@UBevelVInfo@ObjEd@@@0@U_Nonscalar_ptr_iterator_tag@0@U_Range_checked_iterator_tag@0@@Z 00420ee8 f    CIL library: CIL module
 0001:0001fef2       __ehhandler$??$_Uninit_fill_n@PAUExtrudeInnerInfo@ObjEd@@IU12@V?$allocator@UExtrudeInnerInfo@ObjEd@@@std@@@std@@YAXPAUExtrudeInnerInfo@ObjEd@@IABU12@AAV?$allocator@UExtrudeInnerInfo@ObjEd@@@0@U_Nonscalar_ptr_iterator_tag@0@U_Range_checked_iterator_tag@0@@Z 00420ef2 f    CIL library: CIL module
 0001:0001fefc       __ehhandler$??$_Uninit_fill_n@PAUExtrudeMatrixInfo@ObjEd@@IU12@V?$allocator@UExtrudeMatrixInfo@ObjEd@@@std@@@std@@YAXPAUExtrudeMatrixInfo@ObjEd@@IABU12@AAV?$allocator@UExtrudeMatrixInfo@ObjEd@@@0@U_Nonscalar_ptr_iterator_tag@0@U_Range_checked_iterator_tag@0@@Z 00420efc f    CIL library: CIL module
 0001:0001fefc       __ehhandler$??$_Uninit_fill_n@PAUExtrudeInfo@ObjEd@@IU12@V?$allocator@UExtrudeInfo@ObjEd@@@std@@@std@@YAXPAUExtrudeInfo@ObjEd@@IABU12@AAV?$allocator@UExtrudeInfo@ObjEd@@@0@U_Nonscalar_ptr_iterator_tag@0@U_Range_checked_iterator_tag@0@@Z 00420efc f    CIL library: CIL module
 0001:0001ff06       __ehhandler$?_Insert_n@?$vector@UNorScaleInfo@ObjEd@@V?$allocator@UNorScaleInfo@ObjEd@@@std@@@std@@IAEXV?$_Vector_const_iterator@UNorScaleInfo@ObjEd@@V?$allocator@UNorScaleInfo@ObjEd@@@std@@@2@IABUNorScaleInfo@ObjEd@@@Z 00420f06 f    CIL library: CIL module
 0001:0001ff10       __ehhandler$?_Insert_n@?$vector@UBevelVInfo@ObjEd@@V?$allocator@UBevelVInfo@ObjEd@@@std@@@std@@IAEXV?$_Vector_const_iterator@UBevelVInfo@ObjEd@@V?$allocator@UBevelVInfo@ObjEd@@@std@@@2@IABUBevelVInfo@ObjEd@@@Z 00420f10 f    CIL library: CIL module
 0001:0001ff1a       __ehhandler$??$_Uninit_fill_n@PAVOpScale@OpInfo@@IV12@V?$allocator@VOpScale@OpInfo@@@std@@@std@@YAXPAVOpScale@OpInfo@@IABV12@AAV?$allocator@VOpScale@OpInfo@@@0@U_Nonscalar_ptr_iterator_tag@0@U_Range_checked_iterator_tag@0@@Z 00420f1a f    CIL library: CIL module
 0001:0001ff24       __ehhandler$??$_Uninit_fill_n@PAVOpTranslate@OpInfo@@IV12@V?$allocator@VOpTranslate@OpInfo@@@std@@@std@@YAXPAVOpTranslate@OpInfo@@IABV12@AAV?$allocator@VOpTranslate@OpInfo@@@0@U_Nonscalar_ptr_iterator_tag@0@U_Range_checked_iterator_tag@0@@Z 00420f24 f    CIL library: CIL module
 0001:0001ff2e       __ehhandler$??$_Uninit_fill_n@PAVOpBevelV@OpInfo@@IV12@V?$allocator@VOpBevelV@OpInfo@@@std@@@std@@YAXPAVOpBevelV@OpInfo@@IABV12@AAV?$allocator@VOpBevelV@OpInfo@@@0@U_Nonscalar_ptr_iterator_tag@0@U_Range_checked_iterator_tag@0@@Z 00420f2e f    CIL library: CIL module
 0001:0001ff2e       __ehhandler$??$_Uninit_fill_n@PAVOpNormScale@OpInfo@@IV12@V?$allocator@VOpNormScale@OpInfo@@@std@@@std@@YAXPAVOpNormScale@OpInfo@@IABV12@AAV?$allocator@VOpNormScale@OpInfo@@@0@U_Nonscalar_ptr_iterator_tag@0@U_Range_checked_iterator_tag@0@@Z 00420f2e f    CIL library: CIL module
 0001:0001ff38       __ehhandler$??$_Uninit_fill_n@PAVOpExtrudeMatrix@OpInfo@@IV12@V?$allocator@VOpExtrudeMatrix@OpInfo@@@std@@@std@@YAXPAVOpExtrudeMatrix@OpInfo@@IABV12@AAV?$allocator@VOpExtrudeMatrix@OpInfo@@@0@U_Nonscalar_ptr_iterator_tag@0@U_Range_checked_iterator_tag@0@@Z 00420f38 f    CIL library: CIL module
 0001:0001ff38       __ehhandler$??$_Uninit_fill_n@PAVOpExtrudeInner@OpInfo@@IV12@V?$allocator@VOpExtrudeInner@OpInfo@@@std@@@std@@YAXPAVOpExtrudeInner@OpInfo@@IABV12@AAV?$allocator@VOpExtrudeInner@OpInfo@@@0@U_Nonscalar_ptr_iterator_tag@0@U_Range_checked_iterator_tag@0@@Z 00420f38 f    CIL library: CIL module
 0001:0001ff38       __ehhandler$??$_Uninit_fill_n@PAVOpExtrude@OpInfo@@IV12@V?$allocator@VOpExtrude@OpInfo@@@std@@@std@@YAXPAVOpExtrude@OpInfo@@IABV12@AAV?$allocator@VOpExtrude@OpInfo@@@0@U_Nonscalar_ptr_iterator_tag@0@U_Range_checked_iterator_tag@0@@Z 00420f38 f    CIL library: CIL module
 0001:0001ff42       __ehhandler$?_Insert_n@?$vector@VOpBevelE@OpInfo@@V?$allocator@VOpBevelE@OpInfo@@@std@@@std@@IAEXV?$_Vector_const_iterator@VOpBevelE@OpInfo@@V?$allocator@VOpBevelE@OpInfo@@@std@@@2@IABVOpBevelE@OpInfo@@@Z 00420f42 f    CIL library: CIL module
 0001:0001ff4c       __ehhandler$?_Insert_n@?$vector@VOpKnifeLine@OpInfo@@V?$allocator@VOpKnifeLine@OpInfo@@@std@@@std@@IAEXV?$_Vector_const_iterator@VOpKnifeLine@OpInfo@@V?$allocator@VOpKnifeLine@OpInfo@@@std@@@2@IABVOpKnifeLine@OpInfo@@@Z 00420f4c f    CIL library: CIL module
 0001:0001ff56       __ehhandler$??$_Uninit_copy@PAUExtrudeInnerInfo@ObjEd@@PAU12@V?$allocator@UExtrudeInnerInfo@ObjEd@@@std@@@std@@YAPAUExtrudeInnerInfo@ObjEd@@PAU12@00AAV?$allocator@UExtrudeInnerInfo@ObjEd@@@0@U_Nonscalar_ptr_iterator_tag@0@U_Range_checked_iterator_tag@0@@Z 00420f56 f    CIL library: CIL module
 0001:0001ff60       __ehhandler$??$_Uninit_copy@PAUExtrudeMatrixInfo@ObjEd@@PAU12@V?$allocator@UExtrudeMatrixInfo@ObjEd@@@std@@@std@@YAPAUExtrudeMatrixInfo@ObjEd@@PAU12@00AAV?$allocator@UExtrudeMatrixInfo@ObjEd@@@0@U_Nonscalar_ptr_iterator_tag@0@U_Range_checked_iterator_tag@0@@Z 00420f60 f    CIL library: CIL module
 0001:0001ff60       __ehhandler$??$_Uninit_copy@PAUExtrudeInfo@ObjEd@@PAU12@V?$allocator@UExtrudeInfo@ObjEd@@@std@@@std@@YAPAUExtrudeInfo@ObjEd@@PAU12@00AAV?$allocator@UExtrudeInfo@ObjEd@@@0@U_Nonscalar_ptr_iterator_tag@0@U_Range_checked_iterator_tag@0@@Z 00420f60 f    CIL library: CIL module
 0001:0001ff6a       __ehhandler$?_Insert_n@?$vector@UExtrudeInnerInfo@ObjEd@@V?$allocator@UExtrudeInnerInfo@ObjEd@@@std@@@std@@IAEXV?$_Vector_const_iterator@UExtrudeInnerInfo@ObjEd@@V?$allocator@UExtrudeInnerInfo@ObjEd@@@std@@@2@IABUExtrudeInnerInfo@ObjEd@@@Z 00420f6a f    CIL library: CIL module
 0001:0001ff74       __ehhandler$?_Insert_n@?$vector@UExtrudeInfo@ObjEd@@V?$allocator@UExtrudeInfo@ObjEd@@@std@@@std@@IAEXV?$_Vector_const_iterator@UExtrudeInfo@ObjEd@@V?$allocator@UExtrudeInfo@ObjEd@@@std@@@2@IABUExtrudeInfo@ObjEd@@@Z 00420f74 f    CIL library: CIL module
 0001:0001ff74       __ehhandler$?_Insert_n@?$vector@UExtrudeMatrixInfo@ObjEd@@V?$allocator@UExtrudeMatrixInfo@ObjEd@@@std@@@std@@IAEXV?$_Vector_const_iterator@UExtrudeMatrixInfo@ObjEd@@V?$allocator@UExtrudeMatrixInfo@ObjEd@@@std@@@2@IABUExtrudeMatrixInfo@ObjEd@@@Z 00420f74 f    CIL library: CIL module
 0001:0001ff7e       __ehhandler$??$_Uninit_copy@PAVOpScale@OpInfo@@PAV12@V?$allocator@VOpScale@OpInfo@@@std@@@std@@YAPAVOpScale@OpInfo@@PAV12@00AAV?$allocator@VOpScale@OpInfo@@@0@U_Nonscalar_ptr_iterator_tag@0@U_Range_checked_iterator_tag@0@@Z 00420f7e f    CIL library: CIL module
 0001:0001ff88       __ehhandler$??$_Uninit_copy@PAVOpTranslate@OpInfo@@PAV12@V?$allocator@VOpTranslate@OpInfo@@@std@@@std@@YAPAVOpTranslate@OpInfo@@PAV12@00AAV?$allocator@VOpTranslate@OpInfo@@@0@U_Nonscalar_ptr_iterator_tag@0@U_Range_checked_iterator_tag@0@@Z 00420f88 f    CIL library: CIL module
 0001:0001ff92       __ehhandler$??$_Uninit_copy@PAVOpBevelV@OpInfo@@PAV12@V?$allocator@VOpBevelV@OpInfo@@@std@@@std@@YAPAVOpBevelV@OpInfo@@PAV12@00AAV?$allocator@VOpBevelV@OpInfo@@@0@U_Nonscalar_ptr_iterator_tag@0@U_Range_checked_iterator_tag@0@@Z 00420f92 f    CIL library: CIL module
 0001:0001ff92       __ehhandler$??$_Uninit_copy@PAVOpNormScale@OpInfo@@PAV12@V?$allocator@VOpNormScale@OpInfo@@@std@@@std@@YAPAVOpNormScale@OpInfo@@PAV12@00AAV?$allocator@VOpNormScale@OpInfo@@@0@U_Nonscalar_ptr_iterator_tag@0@U_Range_checked_iterator_tag@0@@Z 00420f92 f    CIL library: CIL module
 0001:0001ff9c       __ehhandler$??$_Uninit_copy@PAVOpExtrudeMatrix@OpInfo@@PAV12@V?$allocator@VOpExtrudeMatrix@OpInfo@@@std@@@std@@YAPAVOpExtrudeMatrix@OpInfo@@PAV12@00AAV?$allocator@VOpExtrudeMatrix@OpInfo@@@0@U_Nonscalar_ptr_iterator_tag@0@U_Range_checked_iterator_tag@0@@Z 00420f9c f    CIL library: CIL module
 0001:0001ff9c       __ehhandler$??$_Uninit_copy@PAVOpExtrude@OpInfo@@PAV12@V?$allocator@VOpExtrude@OpInfo@@@std@@@std@@YAPAVOpExtrude@OpInfo@@PAV12@00AAV?$allocator@VOpExtrude@OpInfo@@@0@U_Nonscalar_ptr_iterator_tag@0@U_Range_checked_iterator_tag@0@@Z 00420f9c f    CIL library: CIL module
 0001:0001ff9c       __ehhandler$??$_Uninit_copy@PAVOpExtrudeInner@OpInfo@@PAV12@V?$allocator@VOpExtrudeInner@OpInfo@@@std@@@std@@YAPAVOpExtrudeInner@OpInfo@@PAV12@00AAV?$allocator@VOpExtrudeInner@OpInfo@@@0@U_Nonscalar_ptr_iterator_tag@0@U_Range_checked_iterator_tag@0@@Z 00420f9c f    CIL library: CIL module
 0001:0001ffa6       __ehhandler$?_Insert_n@?$vector@VOpScale@OpInfo@@V?$allocator@VOpScale@OpInfo@@@std@@@std@@IAEXV?$_Vector_const_iterator@VOpScale@OpInfo@@V?$allocator@VOpScale@OpInfo@@@std@@@2@IABVOpScale@OpInfo@@@Z 00420fa6 f    CIL library: CIL module
 0001:0001ffb0       __ehhandler$?_Insert_n@?$vector@VOpTranslate@OpInfo@@V?$allocator@VOpTranslate@OpInfo@@@std@@@std@@IAEXV?$_Vector_const_iterator@VOpTranslate@OpInfo@@V?$allocator@VOpTranslate@OpInfo@@@std@@@2@IABVOpTranslate@OpInfo@@@Z 00420fb0 f    CIL library: CIL module
 0001:0001ffba       __ehhandler$?_Insert_n@?$vector@VOpNormScale@OpInfo@@V?$allocator@VOpNormScale@OpInfo@@@std@@@std@@IAEXV?$_Vector_const_iterator@VOpNormScale@OpInfo@@V?$allocator@VOpNormScale@OpInfo@@@std@@@2@IABVOpNormScale@OpInfo@@@Z 00420fba f    CIL library: CIL module
 0001:0001ffba       __ehhandler$?_Insert_n@?$vector@VOpBevelV@OpInfo@@V?$allocator@VOpBevelV@OpInfo@@@std@@@std@@IAEXV?$_Vector_const_iterator@VOpBevelV@OpInfo@@V?$allocator@VOpBevelV@OpInfo@@@std@@@2@IABVOpBevelV@OpInfo@@@Z 00420fba f    CIL library: CIL module
 0001:0001ffc4       __ehhandler$?_Insert_n@?$vector@VOpExtrudeMatrix@OpInfo@@V?$allocator@VOpExtrudeMatrix@OpInfo@@@std@@@std@@IAEXV?$_Vector_const_iterator@VOpExtrudeMatrix@OpInfo@@V?$allocator@VOpExtrudeMatrix@OpInfo@@@std@@@2@IABVOpExtrudeMatrix@OpInfo@@@Z 00420fc4 f    CIL library: CIL module
 0001:0001ffc4       __ehhandler$?_Insert_n@?$vector@VOpExtrude@OpInfo@@V?$allocator@VOpExtrude@OpInfo@@@std@@@std@@IAEXV?$_Vector_const_iterator@VOpExtrude@OpInfo@@V?$allocator@VOpExtrude@OpInfo@@@std@@@2@IABVOpExtrude@OpInfo@@@Z 00420fc4 f    CIL library: CIL module
 0001:0001ffc4       __ehhandler$?_Insert_n@?$vector@VOpExtrudeInner@OpInfo@@V?$allocator@VOpExtrudeInner@OpInfo@@@std@@@std@@IAEXV?$_Vector_const_iterator@VOpExtrudeInner@OpInfo@@V?$allocator@VOpExtrudeInner@OpInfo@@@std@@@2@IABVOpExtrudeInner@OpInfo@@@Z 00420fc4 f    CIL library: CIL module
 0001:0001ffce       ??__EshaderDeferredComposition@@YAXXZ 00420fce f    CIL library: CIL module
 0001:000200ba       ??__EshaderDeferredSSAO@@YAXXZ 004210ba f    CIL library: CIL module
 0001:00020206       ??__EshaderDeferredSSDO@@YAXXZ 00421206 f    CIL library: CIL module
 0001:00020312       ??__EshaderDeferredLighting@@YAXXZ 00421312 f    CIL library: CIL module
 0001:00020429       ??__EshaderPostBlur@@YAXXZ 00421429 f    CIL library: CIL module
 0001:000204db       ??__EshaderDeferredGeometryV_PNT_Arch@@YAXXZ 004214db f    CIL library: CIL module
 0001:0002057d       ??__E?mShaderTable@ShaderManager@@2PAVShader@@A@@YAXXZ 0042157d f    CIL library: CIL module
 0001:000205a5       ??__E?mP@Noise3d@1@0V?$vector@HV?$allocator@H@std@@@std@@A@@YAXXZ 004215a5 f    CIL library: CIL module
 0001:000205bb       ??__FshaderDeferredComposition@@YAXXZ 004215bb f    CIL library: CIL module
 0001:000205c8       ??__FshaderDeferredSSAO@@YAXXZ 004215c8 f    CIL library: CIL module
 0001:000205d5       ??__FshaderDeferredSSDO@@YAXXZ 004215d5 f    CIL library: CIL module
 0001:000205e2       ??__FshaderDeferredLighting@@YAXXZ 004215e2 f    CIL library: CIL module
 0001:000205ef       ??__FshaderPostBlur@@YAXXZ 004215ef f    CIL library: CIL module
 0001:000205fc       ??__FshaderDeferredGeometryV_PNT_Arch@@YAXXZ 004215fc f    CIL library: CIL module
 0001:00020609       ??__F?mShaderTable@ShaderManager@@2PAVShader@@A@@YAXXZ 00421609 f    CIL library: CIL module
 0001:00020626       ??__F?mP@Noise3d@1@0V?$vector@HV?$allocator@H@std@@@std@@A@@YAXXZ 00421626 f    CIL library: CIL module
