 sub96k_d

 Timestamp is 5065c775 (Fri Sep 28 17:51:17 2012)

 Preferred load address is 00400000

 Start         Length     Name                   Class
 0001:00000000 000d7495H .textbss                DATA
 0002:00000000 0018ce80H .text                   CODE
 0002:0018ce80 0001ca8bH .text$x                 CODE
 0002:001a9910 00018f27H .text$yc                CODE
 0002:001c2840 00001294H .text$yd                CODE
 0003:00000000 00000104H .CRT$XCA                DATA
 0003:00000104 00000104H .CRT$XCAA               DATA
 0003:00000208 00001051H .CRT$XCU                DATA
 0003:0000125c 00000104H .CRT$XCZ                DATA
 0003:00001360 00000104H .CRT$XIA                DATA
 0003:00001464 00000104H .CRT$XIAA               DATA
 0003:00001568 00000104H .CRT$XIC                DATA
 0003:0000166c 00000104H .CRT$XIY                DATA
 0003:00001770 00000104H .CRT$XIZ                DATA
 0003:00001880 0005f1e8H .rdata                  DATA
 0003:00060a68 0000015cH .rdata$debug            DATA
 0003:00060bc4 0000075cH .rdata$r                DATA
 0003:00061320 00000104H .rtc$IAA                DATA
 0003:00061424 00000246H .rtc$IMZ                DATA
 0003:0006166c 00000104H .rtc$IZZ                DATA
 0003:00061770 00000104H .rtc$TAA                DATA
 0003:00061874 00000246H .rtc$TMZ                DATA
 0003:00061abc 00000104H .rtc$TZZ                DATA
 0003:00061bc0 0001aaa4H .xdata$x                DATA
 0003:0007c664 00000000H .edata                  DATA
 0004:00000000 00000994H .data                   DATA
 0004:00000998 00006b90H .bss                    DATA
 0005:00000000 000000b4H .idata$2                DATA
 0005:000000b4 00000014H .idata$3                DATA
 0005:000000c8 00000514H .idata$4                DATA
 0005:000005dc 00000514H .idata$5                DATA
 0005:00000af0 00001e38H .idata$6                DATA
 0006:00000000 00000169H .rsrc$01                DATA
 0006:00000170 0000041cH .rsrc$02                DATA

  Address         Publics by Value              Rva+Base       Lib:Object

 0000:00000000       ___safe_se_handler_table   00000000     <absolute>
 0000:00000000       ___safe_se_handler_count   00000000     <absolute>
 0000:00000000       ___ImageBase               00400000     <linker-defined>
 0001:00000000       __enc$textbss$begin        00401000     <linker-defined>
 0001:000d7495       __enc$textbss$end          004d8495     <linker-defined>
 0002:00011170       ??0GameApp@@QAE@AAPAUHINSTANCE__@@HH_NV?$basic_string@_WU?$char_traits@_W@std@@V?$allocator@_W@2@@std@@1@Z 004ea170 f   GameApp.obj
 0002:00011310       ??D?$auto_ptr@VRandGen@Rand@@@std@@QBEAAVRandGen@Rand@@XZ 004ea310 f i WorldTerrain.obj
 0002:00011380       ??_GGameApp@@UAEPAXI@Z     004ea380 f i GameApp.obj
 0002:00011380       ??_EGameApp@@UAEPAXI@Z     004ea380 f i GameApp.obj
 0002:000113f0       ??1GameApp@@UAE@XZ         004ea3f0 f   GameApp.obj
 0002:000114b0       ?onResize@GameApp@@UAEXXZ  004ea4b0 f   GameApp.obj
 0002:00011500       ?main@GameApp@@UAEHXZ      004ea500 f   GameApp.obj
 0002:00011780       ?numVertices@ConvexHull2d@@QBEHXZ 004ea780 f   ConvexHull2d.obj
 0002:000117e0       ??1?$_Vb_reference@IHV?$vector@_NV?$allocator@_N@std@@@std@@@std@@QAE@XZ 004ea7e0 f i GameApp.obj
 0002:00011830       ??1?$_Vb_iter_base@IHV?$vector@_NV?$allocator@_N@std@@@std@@@std@@QAE@XZ 004ea830 f i GameApp.obj
 0002:00011880       ??1?$_Ranit@_NHPA_N_N@std@@QAE@XZ 004ea880 f i GameApp.obj
 0002:000118d0       ??1?$_Iterator_with_base@Urandom_access_iterator_tag@std@@_NHPA_N_NV_Iterator_base@2@@std@@QAE@XZ 004ea8d0 f i GameApp.obj
 0002:00011920       ??1_Iterator_base@std@@QAE@XZ 004ea920 f i GameApp.obj
 0002:00011a20       ?_Orphan_me@_Iterator_base@std@@QAEXXZ 004eaa20 f i GameApp.obj
 0002:00011b00       ?drawScene@GameApp@@QAEXXZ 004eab00 f   GameApp.obj
 0002:00011b60       ?getLapsedTime@GameApp@@AAENXZ 004eab60 f   GameApp.obj
 0002:00011c20       ?displayFPSandDebugInfo@GameApp@@AAEXXZ 004eac20 f   GameApp.obj
 0002:00011e70       ??$?BVHeightFunction@@@?$auto_ptr@VHeightFunction@@@std@@QAE?AU?$auto_ptr_ref@VHeightFunction@@@1@XZ 004eae70 f i WorldTerrain.obj
 0002:00011f00       ??0D3DXCOLOR@@QAE@MMMM@Z   004eaf00 f i GameApp.obj
 0002:00011f70       ??A?$vector@_NV?$allocator@_N@std@@@std@@QAE?AV?$_Vb_reference@IHV?$vector@_NV?$allocator@_N@std@@@std@@@1@I@Z 004eaf70 f i GameApp.obj
 0002:00012070       ??0?$auto_ptr_ref@VHeightFunction@@@std@@QAE@PAVHeightFunction@@@Z 004eb070 f i WorldTerrain.obj
 0002:000120b0       ??0?$auto_ptr@VGame@@@std@@QAE@PAVGame@@@Z 004eb0b0 f i GameApp.obj
 0002:00012100       ??1?$auto_ptr@VGame@@@std@@QAE@XZ 004eb100 f i GameApp.obj
 0002:000121a0       ??C?$auto_ptr@VGame@@@std@@QBEPAVGame@@XZ 004eb1a0 f i GameApp.obj
 0002:00012230       ??B?$_Vb_reference@IHV?$vector@_NV?$allocator@_N@std@@@std@@@std@@QBE_NXZ 004eb230 f i GameApp.obj
 0002:000122a0       ??1?$_Vb_iterator@IHV?$vector@_NV?$allocator@_N@std@@@std@@@std@@QAE@XZ 004eb2a0 f i GameApp.obj
 0002:000122f0       ??_GGame@@QAEPAXI@Z        004eb2f0 f i GameApp.obj
 0002:00012360       ??1?$_Vb_const_iterator@IHV?$vector@_NV?$allocator@_N@std@@@std@@@std@@QAE@XZ 004eb360 f i GameApp.obj
 0002:000123b0       ?begin@?$vector@_NV?$allocator@_N@std@@@std@@QAE?AV?$_Vb_iterator@IHV?$vector@_NV?$allocator@_N@std@@@std@@@2@XZ 004eb3b0 f i GameApp.obj
 0002:00012480       ??0?$auto_ptr_ref@VTerrain@@@std@@QAE@PAVTerrain@@@Z 004eb480 f i WorldTerrain.obj
 0002:000124c0       ?get@?$auto_ptr@VGame@@@std@@QBEPAVGame@@XZ 004eb4c0 f i GameApp.obj
 0002:00012500       ?_Getptr@?$_Vb_reference@IHV?$vector@_NV?$allocator@_N@std@@@std@@@std@@QBEPAIXZ 004eb500 f i GameApp.obj
 0002:00012600       ?_Mask@?$_Vb_reference@IHV?$vector@_NV?$allocator@_N@std@@@std@@@std@@IBEIXZ 004eb600 f i GameApp.obj
 0002:00012650       ??D?$_Vb_iterator@IHV?$vector@_NV?$allocator@_N@std@@@std@@@std@@QBE?AV?$_Vb_reference@IHV?$vector@_NV?$allocator@_N@std@@@std@@@1@XZ 004eb650 f i GameApp.obj
 0002:000126d0       ??H?$_Vb_iterator@IHV?$vector@_NV?$allocator@_N@std@@@std@@@std@@QBE?AV01@H@Z 004eb6d0 f i GameApp.obj
 0002:000127b0       ??0?$auto_ptr_ref@VConvexHull2d@@@std@@QAE@PAVConvexHull2d@@@Z 004eb7b0 f i WorldTerrain.obj
 0002:000127f0       ??1?$_Vector_iterator@IV?$allocator@I@std@@@std@@QAE@XZ 004eb7f0 f i GameApp.obj
 0002:00012840       ??0?$_Vb_iterator@IHV?$vector@_NV?$allocator@_N@std@@@std@@@std@@QAE@ABV01@@Z 004eb840 f i GameApp.obj
 0002:000128a0       ??1?$_Vector_const_iterator@IV?$allocator@I@std@@@std@@QAE@XZ 004eb8a0 f i GameApp.obj
 0002:000128f0       ??0?$_Vb_const_iterator@IHV?$vector@_NV?$allocator@_N@std@@@std@@@std@@QAE@ABV01@@Z 004eb8f0 f i GameApp.obj
 0002:00012950       ??1?$_Ranit@IHPBIABI@std@@QAE@XZ 004eb950 f i GameApp.obj
 0002:000129a0       ??0?$_Vb_iter_base@IHV?$vector@_NV?$allocator@_N@std@@@std@@@std@@QAE@ABV01@@Z 004eb9a0 f i GameApp.obj
 0002:00012a20       ??1?$_Iterator_with_base@Urandom_access_iterator_tag@std@@IHPBIABIV_Iterator_base@2@@std@@QAE@XZ 004eba20 f i GameApp.obj
 0002:00012a70       ??0?$_Ranit@_NHPA_N_N@std@@QAE@ABU01@@Z 004eba70 f i GameApp.obj
 0002:00012ad0       ??0?$_Iterator_with_base@Urandom_access_iterator_tag@std@@_NHPA_N_NV_Iterator_base@2@@std@@QAE@ABU01@@Z 004ebad0 f i GameApp.obj
 0002:00012b30       ??0_Iterator_base@std@@QAE@ABV01@@Z 004ebb30 f i GameApp.obj
 0002:00012bb0       ??4_Iterator_base@std@@QAEAAV01@ABV01@@Z 004ebbb0 f i GameApp.obj
 0002:00012ca0       ??0?$auto_ptr_ref@VShip@@@std@@QAE@PAVShip@@@Z 004ebca0 f i Game.obj
 0002:00012ce0       ?_Adopt@_Iterator_base@std@@QAEXPBV_Container_base_secure@2@@Z 004ebce0 f i GameApp.obj
 0002:00012e20       ?begin@?$vector@IV?$allocator@I@std@@@std@@QAE?AV?$_Vector_iterator@IV?$allocator@I@std@@@2@XZ 004ebe20 f i GameApp.obj
 0002:00012eb0       ??0?$_Vb_reference@IHV?$vector@_NV?$allocator@_N@std@@@std@@@std@@QAE@ABV?$_Vb_iter_base@IHV?$vector@_NV?$allocator@_N@std@@@std@@@1@@Z 004ebeb0 f i GameApp.obj
 0002:00012f30       ?_Getmycont@_Iterator_base@std@@QBEPBV_Container_base_secure@2@XZ 004ebf30 f i GameApp.obj
 0002:00012f70       ??0?$_Vb_iterator@IHV?$vector@_NV?$allocator@_N@std@@@std@@@std@@QAE@PAIPAV_Container_base_secure@1@@Z 004ebf70 f i GameApp.obj
 0002:00012fd0       ??Y?$_Vb_iterator@IHV?$vector@_NV?$allocator@_N@std@@@std@@@std@@QAEAAV01@H@Z 004ebfd0 f i GameApp.obj
 0002:00013030       ??0?$_Vb_iter_base@IHV?$vector@_NV?$allocator@_N@std@@@std@@@std@@QAE@PAIIPBV_Container_base_secure@1@@Z 004ec030 f i GameApp.obj
 0002:00013170       ??0?$_Vb_const_iterator@IHV?$vector@_NV?$allocator@_N@std@@@std@@@std@@QAE@PBIPBV_Container_base_secure@1@@Z 004ec170 f i GameApp.obj
 0002:000131e0       ??Y?$_Vb_const_iterator@IHV?$vector@_NV?$allocator@_N@std@@@std@@@std@@QAEAAV01@H@Z 004ec1e0 f i GameApp.obj
 0002:00013420       ??$?BVTerrain@@@?$auto_ptr@VTerrain@@@std@@QAE?AU?$auto_ptr_ref@VTerrain@@@1@XZ 004ec420 f i WorldTerrain.obj
 0002:000134b0       ?_Has_container@_Iterator_base@std@@QBE_NXZ 004ec4b0 f i GameApp.obj
 0002:00013500       ??0?$_Vector_iterator@IV?$allocator@I@std@@@std@@QAE@PAIPBV_Container_base_secure@1@@Z 004ec500 f i GameApp.obj
 0002:00013560       ??0?$_Ranit@_NHPA_N_N@std@@QAE@XZ 004ec560 f i GameApp.obj
 0002:000135c0       ??0?$_Iterator_with_base@Urandom_access_iterator_tag@std@@_NHPA_N_NV_Iterator_base@2@@std@@QAE@XZ 004ec5c0 f i GameApp.obj
 0002:00013620       ??0_Iterator_base@std@@QAE@XZ 004ec620 f i GameApp.obj
 0002:00013670       ?_My_actual_offset@?$_Vb_iter_base@IHV?$vector@_NV?$allocator@_N@std@@@std@@@std@@QBEIXZ 004ec670 f i GameApp.obj
 0002:000136f0       ??0?$_Vector_const_iterator@IV?$allocator@I@std@@@std@@QAE@PAIPBV_Container_base_secure@1@@Z 004ec6f0 f i GameApp.obj
 0002:00013840       ??0?$_Ranit@IHPBIABI@std@@QAE@XZ 004ec840 f i GameApp.obj
 0002:000138a0       ??0?$_Iterator_with_base@Urandom_access_iterator_tag@std@@IHPBIABIV_Iterator_base@2@@std@@QAE@XZ 004ec8a0 f i GameApp.obj
 0002:00013900       ?_My_cont_begin@?$_Vb_iter_base@IHV?$vector@_NV?$allocator@_N@std@@@std@@@std@@QBEPAIXZ 004ec900 f i GameApp.obj
 0002:000139a0       ??$?6U?$char_traits@D@std@@@std@@YAAAV?$basic_ostream@DU?$char_traits@D@std@@@0@AAV10@PBD@Z 004ec9a0 f i GameApp.obj
 0002:00013e00       ??0WorldTerrain@@QAE@XZ    004ece00 f   WorldTerrain.obj
 0002:00013f20       ??0sentry@?$basic_ostream@DU?$char_traits@D@std@@@std@@QAE@AAV12@@Z 004ecf20 f i GameApp.obj
 0002:00014080       ??1sentry@?$basic_ostream@DU?$char_traits@D@std@@@std@@QAE@XZ 004ed080 f i GameApp.obj
 0002:00014150       ??Bsentry@?$basic_ostream@DU?$char_traits@D@std@@@std@@QBE_NXZ 004ed150 f i GameApp.obj
 0002:00014190       ??0_Sentry_base@?$basic_ostream@DU?$char_traits@D@std@@@std@@QAE@AAV12@@Z 004ed190 f i GameApp.obj
 0002:00014250       ??1_Sentry_base@?$basic_ostream@DU?$char_traits@D@std@@@std@@QAE@XZ 004ed250 f i GameApp.obj
 0002:00014300       ??1ShaderClassData@@QAE@XZ 004ed300 f i StoredShaders.obj
 0002:00014410       ?WndProc@@YGJPAUHWND__@@IIJ@Z 004ed410 f   BaseDX.obj
 0002:000144f0       ??0BaseDX@@QAE@AAPAUHINSTANCE__@@HH_NV?$basic_string@_WU?$char_traits@_W@std@@V?$allocator@_W@2@@std@@1@Z 004ed4f0 f   BaseDX.obj
 0002:000148a0       ?height@HeightZone@@QAEMABUD3DXVECTOR3@@@Z 004ed8a0 f   HeightZone.obj
 0002:00014950       ??0D3DXVECTOR3@@QAE@MMM@Z  004ed950 f i BaseDX.obj
 0002:000149b0       ??0Mouse@@QAE@XZ           004ed9b0 f i BaseDX.obj
 0002:00014a30       ??0Log@@QAE@XZ             004eda30 f i BaseDX.obj
 0002:00014ab0       ?initLog@Log@@AAEXXZ       004edab0 f i BaseDX.obj
 0002:00014c40       ??_G?$basic_ofstream@DU?$char_traits@D@std@@@std@@UAEPAXI@Z 004edc40 f i BaseDX.obj
 0002:00014c40       ??_E?$basic_ofstream@DU?$char_traits@D@std@@@std@@UAEPAXI@Z 004edc40 f i BaseDX.obj
 0002:00014cd0       ??_EBaseDX@@UAEPAXI@Z      004edcd0 f i BaseDX.obj
 0002:00014cd0       ??_GBaseDX@@UAEPAXI@Z      004edcd0 f i BaseDX.obj
 0002:00014d40       ??1BaseDX@@UAE@XZ          004edd40 f   BaseDX.obj
 0002:00014ea0       ?initDX@BaseDX@@QAE_NXZ    004edea0 f   BaseDX.obj
 0002:000150e0       ??$?BVConvexHull2d@@@?$auto_ptr@VConvexHull2d@@@std@@QAE?AU?$auto_ptr_ref@VConvexHull2d@@@1@XZ 004ee0e0 f i WorldTerrain.obj
 0002:00015170       ?initWindowsApp@BaseDX@@QAE_NXZ 004ee170 f   BaseDX.obj
 0002:000153c0       ??_GHeightFunction@@QAEPAXI@Z 004ee3c0 f i WorldTerrain.obj
 0002:00015450       ?getMessage@BaseDX@@UAEJIIJ@Z 004ee450 f   BaseDX.obj
 0002:00015820       ?height@HeightFunction@@QAEMABUD3DXVECTOR3@@@Z 004ee820 f   HeightFunction.obj
 0002:000158a0       ??_GTerrain@@QAEPAXI@Z     004ee8a0 f i Game.obj
 0002:00015910       ??GD3DXVECTOR3@@QBE?AU0@ABU0@@Z 004ee910 f i BaseDX.obj
 0002:000159d0       ?enableFps@BaseDX@@QAEXXZ  004ee9d0 f   BaseDX.obj
 0002:00015a20       ?disableFps@BaseDX@@QAEXXZ 004eea20 f   BaseDX.obj
 0002:00015a70       ?startTimer@BaseDX@@QAEXXZ 004eea70 f   BaseDX.obj
 0002:00015b50       ?calculateTime@BaseDX@@QAEXXZ 004eeb50 f   BaseDX.obj
 0002:00015c50       ?getSeconds@BaseDX@@QAENXZ 004eec50 f   BaseDX.obj
 0002:00015d30       ?getmDeltaTime@BaseDX@@QBEMXZ 004eed30 f   BaseDX.obj
 0002:00015e40       ?getCentiseconds@BaseDX@@QAEMXZ 004eee40 f   BaseDX.obj
 0002:00015f40       ?keybCleanAll@BaseDX@@QAEXXZ 004eef40 f   BaseDX.obj
 0002:00016040       ?incrementFrameCounter@BaseDX@@QAEXXZ 004ef040 f   BaseDX.obj
 0002:00016110       ?deferredEngineInstance@BaseDX@@QBEPAVDeferredEngine@@XZ 004ef110 f   BaseDX.obj
 0002:00016150       ?onResize@BaseDX@@UAEXXZ   004ef150 f   BaseDX.obj
 0002:000161e0       ?releaseMouse@BaseDX@@AAEXXZ 004ef1e0 f   BaseDX.obj
 0002:00016250       ?captureMouse@BaseDX@@AAEXXZ 004ef250 f   BaseDX.obj
 0002:000163f0       ??0?$vector@_NV?$allocator@_N@std@@@std@@QAE@I_N@Z 004ef3f0 f i BaseDX.obj
 0002:00016500       ??1?$vector@_NV?$allocator@_N@std@@@std@@QAE@XZ 004ef500 f i BaseDX.obj
 0002:000165b0       ??0?$auto_ptr@VLog@@@std@@QAE@PAVLog@@@Z 004ef5b0 f i BaseDX.obj
 0002:00016600       ??4?$auto_ptr@VLog@@@std@@QAEAAV01@U?$auto_ptr_ref@VLog@@@1@@Z 004ef600 f i BaseDX.obj
 0002:00016670       ??1?$auto_ptr@VLog@@@std@@QAE@XZ 004ef670 f i BaseDX.obj
 0002:00016710       ??4?$_Vb_reference@IHV?$vector@_NV?$allocator@_N@std@@@std@@@std@@QAEAAV01@_N@Z 004ef710 f i BaseDX.obj
 0002:000167d0       ??_GLog@@QAEPAXI@Z         004ef7d0 f i BaseDX.obj
 0002:00016840       ??1Log@@QAE@XZ             004ef840 f i BaseDX.obj
 0002:000168d0       ?_Nw@?$vector@_NV?$allocator@_N@std@@@std@@KAII@Z 004ef8d0 f i BaseDX.obj
 0002:00016910       ?_Trim@?$vector@_NV?$allocator@_N@std@@@std@@IAEXI@Z 004ef910 f i BaseDX.obj
 0002:00016b20       ??$?BVShip@@@?$auto_ptr@VShip@@@std@@QAE?AU?$auto_ptr_ref@VShip@@@1@XZ 004efb20 f i Game.obj
 0002:00016bb0       ??0?$_Container_base_aux_alloc_empty@V?$allocator@_N@std@@@std@@IAE@V?$allocator@_N@1@@Z 004efbb0 f i BaseDX.obj
 0002:00016c20       ??1?$_Container_base_aux_alloc_empty@V?$allocator@_N@std@@@std@@IAE@XZ 004efc20 f i BaseDX.obj
 0002:00016c80       ??0?$allocator@_N@std@@QAE@XZ 004efc80 f i BaseDX.obj
 0002:00016cc0       ??0?$vector@IV?$allocator@I@std@@@std@@QAE@IABI@Z 004efcc0 f i BaseDX.obj
 0002:00016d80       ??1?$vector@IV?$allocator@I@std@@@std@@QAE@XZ 004efd80 f i BaseDX.obj
 0002:00016e20       ?reset@?$auto_ptr@VLog@@@std@@QAEXPAVLog@@@Z 004efe20 f i BaseDX.obj
 0002:00016ee0       ??0?$_Vector_const_iterator@IV?$allocator@I@std@@@std@@QAE@ABV01@@Z 004efee0 f i BaseDX.obj
 0002:00016f50       ??1?$_Vector_val@IV?$allocator@I@std@@@std@@QAE@XZ 004eff50 f i BaseDX.obj
 0002:00016fa0       ??0?$_Ranit@IHPBIABI@std@@QAE@ABU01@@Z 004effa0 f i BaseDX.obj
 0002:00017000       ??0?$_Iterator_with_base@Urandom_access_iterator_tag@std@@IHPBIABIV_Iterator_base@2@@std@@QAE@ABU01@@Z 004f0000 f i BaseDX.obj
 0002:00017060       ?max_size@?$vector@_NV?$allocator@_N@std@@@std@@QBEIXZ 004f0060 f i BaseDX.obj
 0002:000170f0       ?_Xlen@?$vector@_NV?$allocator@_N@std@@@std@@IBEXXZ 004f00f0 f i BaseDX.obj
 0002:000171f0       ??0length_error@std@@QAE@ABV?$basic_string@DU?$char_traits@D@std@@V?$allocator@D@2@@1@@Z 004f01f0 f i BaseDX.obj
 0002:00017260       ??0logic_error@std@@QAE@ABV?$basic_string@DU?$char_traits@D@std@@V?$allocator@D@2@@1@@Z 004f0260 f i BaseDX.obj
 0002:00017340       ?what@logic_error@std@@UBEPBDXZ 004f0340 f i BaseDX.obj
 0002:000173a0       ??_Glogic_error@std@@UAEPAXI@Z 004f03a0 f i BaseDX.obj
 0002:000173a0       ??_Elogic_error@std@@UAEPAXI@Z 004f03a0 f i BaseDX.obj
 0002:00017410       ??1logic_error@std@@UAE@XZ 004f0410 f i BaseDX.obj
 0002:00017490       ??1length_error@std@@UAE@XZ 004f0490 f i BaseDX.obj
 0002:000174f0       ??_Glength_error@std@@UAEPAXI@Z 004f04f0 f i BaseDX.obj
 0002:000174f0       ??_Elength_error@std@@UAEPAXI@Z 004f04f0 f i BaseDX.obj
 0002:00017560       ??0logic_error@std@@QAE@ABV01@@Z 004f0560 f i BaseDX.obj
 0002:00017640       ?_Construct_n@?$vector@IV?$allocator@I@std@@@std@@QAEXIABI@Z 004f0640 f i BaseDX.obj
 0002:00017750       ?end@?$vector@IV?$allocator@I@std@@@std@@QAE?AV?$_Vector_iterator@IV?$allocator@I@std@@@2@XZ 004f0750 f i BaseDX.obj
 0002:000177e0       ?size@?$vector@IV?$allocator@I@std@@@std@@QBEIXZ 004f07e0 f i BaseDX.obj
 0002:00017830       ??A?$vector@IV?$allocator@I@std@@@std@@QAEAAII@Z 004f0830 f i BaseDX.obj
 0002:000179b0       ?erase@?$vector@IV?$allocator@I@std@@@std@@QAE?AV?$_Vector_iterator@IV?$allocator@I@std@@@2@V?$_Vector_const_iterator@IV?$allocator@I@std@@@2@0@Z 004f09b0 f i BaseDX.obj
 0002:00017bd0       ?perpendicular@ConvexHull2dHelpers@@YA?AUD3DXVECTOR3@@ABU2@@Z 004f0bd0 f   ConvexHull2dHelpers.obj
 0002:00017c50       ?_Tidy@?$vector@IV?$allocator@I@std@@@std@@IAEXXZ 004f0c50 f i BaseDX.obj
 0002:00017d30       ??0?$_Vector_val@IV?$allocator@I@std@@@std@@IAE@V?$allocator@I@1@@Z 004f0d30 f i BaseDX.obj
 0002:00017db0       ??1?$_Container_base_aux_alloc_empty@V?$allocator@I@std@@@std@@IAE@XZ 004f0db0 f i BaseDX.obj
 0002:00017e10       ??0?$allocator@I@std@@QAE@XZ 004f0e10 f i BaseDX.obj
 0002:00017e50       ??H?$_Vector_iterator@IV?$allocator@I@std@@@std@@QBE?AV01@H@Z 004f0e50 f i BaseDX.obj
 0002:00017f70       ??0length_error@std@@QAE@ABV01@@Z 004f0f70 f i BaseDX.obj
 0002:00017fe0       ??0?$_Vector_iterator@IV?$allocator@I@std@@@std@@QAE@ABV01@@Z 004f0fe0 f i BaseDX.obj
 0002:00018040       ?_Make_iter@?$vector@IV?$allocator@I@std@@@std@@QBE?AV?$_Vector_iterator@IV?$allocator@I@std@@@2@V?$_Vector_const_iterator@IV?$allocator@I@std@@@2@@Z 004f1040 f i BaseDX.obj
 0002:00018110       ?max_size@?$vector@IV?$allocator@I@std@@@std@@QBEIXZ 004f1110 f i BaseDX.obj
 0002:00018170       ?_Buy@?$vector@IV?$allocator@I@std@@@std@@IAE_NI@Z 004f1170 f i BaseDX.obj
 0002:00018250       ?_Destroy@?$vector@IV?$allocator@I@std@@@std@@IAEXPAI0@Z 004f1250 f i BaseDX.obj
 0002:000182c0       ?_Ufill@?$vector@IV?$allocator@I@std@@@std@@IAEPAIPAIIABI@Z 004f12c0 f i BaseDX.obj
 0002:00018340       ?_Orphan_range@?$vector@IV?$allocator@I@std@@@std@@IBEXPAI0@Z 004f1340 f i BaseDX.obj
 0002:00018450       ??0?$_Container_base_aux_alloc_empty@V?$allocator@I@std@@@std@@IAE@V?$allocator@I@1@@Z 004f1450 f i BaseDX.obj
 0002:000184c0       ??0?$allocator@I@std@@QAE@ABV01@@Z 004f14c0 f i BaseDX.obj
 0002:00018500       ?deallocate@?$allocator@I@std@@QAEXPAII@Z 004f1500 f i BaseDX.obj
 0002:00018560       ??Y?$_Vector_iterator@IV?$allocator@I@std@@@std@@QAEAAV01@H@Z 004f1560 f i BaseDX.obj
 0002:000185c0       ??9?$_Vector_const_iterator@IV?$allocator@I@std@@@std@@QBE_NABV01@@Z 004f15c0 f i BaseDX.obj
 0002:00018630       ??M?$_Vector_const_iterator@IV?$allocator@I@std@@@std@@QBE_NABV01@@Z 004f1630 f i BaseDX.obj
 0002:000186a0       ?_Xlen@?$vector@IV?$allocator@I@std@@@std@@KAXXZ 004f16a0 f i BaseDX.obj
 0002:00018790       ?allocate@?$allocator@I@std@@QAEPAII@Z 004f1790 f i BaseDX.obj
 0002:000187f0       ?max_size@?$allocator@I@std@@QBEIXZ 004f17f0 f i BaseDX.obj
 0002:00018860       ??Y?$_Vector_const_iterator@IV?$allocator@I@std@@@std@@QAEAAV01@H@Z 004f1860 f i BaseDX.obj
 0002:00018a00       ??8?$_Vector_const_iterator@IV?$allocator@I@std@@@std@@QBE_NABV01@@Z 004f1a00 f i BaseDX.obj
 0002:00018a70       ?_Compat@?$_Vector_const_iterator@IV?$allocator@I@std@@@std@@QBEXABV12@@Z 004f1a70 f i BaseDX.obj
 0002:00018b70       ??$?BVLog@@@?$auto_ptr@VLog@@@std@@QAE?AU?$auto_ptr_ref@VLog@@@1@XZ 004f1b70 f i BaseDX.obj
 0002:00018c20       ??$unchecked_copy@PAIPAI@stdext@@YAPAIPAI00@Z 004f1c20 f i BaseDX.obj
 0002:00018cf0       ??$_Destroy_range@V?$allocator@I@std@@@std@@YAXPAI0AAV?$allocator@I@0@@Z 004f1cf0 f i BaseDX.obj
 0002:00018d70       ??$unchecked_uninitialized_fill_n@PAIIIV?$allocator@I@std@@@stdext@@YAXPAIIABIAAV?$allocator@I@std@@@Z 004f1d70 f i BaseDX.obj
 0002:00018e10       ??$_Allocate@I@std@@YAPAIIPAI@Z 004f1e10 f i BaseDX.obj
 0002:00018eb0       ??0bad_alloc@std@@QAE@PBD@Z 004f1eb0 f i BaseDX.obj
 0002:00018f30       ??1bad_alloc@std@@UAE@XZ   004f1f30 f i BaseDX.obj
 0002:00018fa0       ??_Ebad_alloc@std@@UAEPAXI@Z 004f1fa0 f i BaseDX.obj
 0002:00018fa0       ??_Gbad_alloc@std@@UAEPAXI@Z 004f1fa0 f i BaseDX.obj
 0002:00019010       ??0bad_alloc@std@@QAE@ABV01@@Z 004f2010 f i BaseDX.obj
 0002:00019090       ??0?$auto_ptr_ref@VLog@@@std@@QAE@PAVLog@@@Z 004f2090 f i BaseDX.obj
 0002:000190e0       ??$_Checked_base@PAI@std@@YAPAIAAPAI@Z 004f20e0 f i BaseDX.obj
 0002:00019170       ??$_Iter_random@PAIPAI@std@@YA?AUrandom_access_iterator_tag@0@ABQAI0@Z 004f2170 f i BaseDX.obj
 0002:000191e0       ??$_Ptr_cat@PAIPAI@std@@YA?AU_Scalar_ptr_iterator_tag@0@AAPAI0@Z 004f21e0 f i BaseDX.obj
 0002:00019250       ??$_Copy_opt@PAIPAIUrandom_access_iterator_tag@std@@@std@@YAPAIPAI00Urandom_access_iterator_tag@0@U_Scalar_ptr_iterator_tag@0@U_Range_checked_iterator_tag@0@@Z 004f2250 f i BaseDX.obj
 0002:00019330       ??$_Destroy_range@V?$allocator@I@std@@@std@@YAXPAI0AAV?$allocator@I@0@U_Scalar_ptr_iterator_tag@0@@Z 004f2330 f i BaseDX.obj
 0002:00019360       ??$_Uninit_fill_n@PAIIIV?$allocator@I@std@@@std@@YAXPAIIABIAAV?$allocator@I@0@U_Scalar_ptr_iterator_tag@0@U_Range_checked_iterator_tag@0@@Z 004f2360 f i BaseDX.obj
 0002:000193c0       ??$_Checked_base@PAI@std@@YAPAIAAPAIU_Unchanged_checked_iterator_base_type_tag@0@@Z 004f23c0 f i BaseDX.obj
 0002:00019400       ??$_Debug_range@PAI@std@@YAXPAI0PB_WI@Z 004f2400 f i BaseDX.obj
 0002:00019480       ??$_Debug_pointer@I@std@@YAXPAIPB_WI@Z 004f2480 f i BaseDX.obj
 0002:000194f0       ??$unchecked_fill_n@PAIII@stdext@@YAXPAIIABI@Z 004f24f0 f i BaseDX.obj
 0002:00019580       ??$_Iter_cat@PAI@std@@YA?AUrandom_access_iterator_tag@0@ABQAI@Z 004f2580 f i BaseDX.obj
 0002:000195f0       ??$_Debug_range2@PAI@std@@YAXPAI0PB_WIUrandom_access_iterator_tag@0@@Z 004f25f0 f i BaseDX.obj
 0002:000196a0       ??$_Fill_n@PAIII@std@@YAXPAIIABIUrandom_access_iterator_tag@0@U_Range_checked_iterator_tag@0@@Z 004f26a0 f i BaseDX.obj
 0002:00019730       ??$_Fill_n@PAIII@std@@YAXPAIIABIU_Range_checked_iterator_tag@0@@Z 004f2730 f i BaseDX.obj
 0002:00019790       _WinMain@16                004f2790 f   main.obj
 0002:00019910       ??0_Has_debug_it@?$basic_string@_WU?$char_traits@_W@std@@V?$allocator@_W@2@@std@@QAE@_N@Z 004f2910 f i main.obj
 0002:00019960       ??0DeferredEngine@@QAE@PAUID3D10Device@@PAUIDXGISwapChain@@HH@Z 004f2960 f   DeferredEngine.obj
 0002:00019b90       ?vectorOnXZ@DxMath@@YA?BUD3DXVECTOR3@@MM@Z 004f2b90 f   DxMathHelpers.obj
 0002:00019c20       ??0D3DXMATRIX@@QAE@XZ      004f2c20 f i DeferredEngine.obj
 0002:00019c60       ??0DxRenderTarget@@QAE@XZ  004f2c60 f i DeferredEngine.obj
 0002:00019cc0       ??_GDeferredEngine@@UAEPAXI@Z 004f2cc0 f i DeferredEngine.obj
 0002:00019cc0       ??_EDeferredEngine@@UAEPAXI@Z 004f2cc0 f i DeferredEngine.obj
 0002:00019d30       ??1DeferredEngine@@UAE@XZ  004f2d30 f   DeferredEngine.obj
 0002:00019fe0       ?reset@?$auto_ptr@VHeightFunction@@@std@@QAEXPAVHeightFunction@@@Z 004f2fe0 f i WorldTerrain.obj
 0002:0001a080       ?release@DxRenderTarget@@QAEXXZ 004f3080 f i DeferredEngine.obj
 0002:0001a180       ?init@DeferredEngine@@QAE_NXZ 004f3180 f   DeferredEngine.obj
 0002:0001a1f0       ?initDirectxFonts@DeferredEngine@@AAE_NXZ 004f31f0 f   DeferredEngine.obj
 0002:0001a340       ?startScene@DeferredEngine@@QAEXXZ 004f3340 f   DeferredEngine.obj
 0002:0001a540       ??BD3DXCOLOR@@QAEPAMXZ     004f3540 f i DeferredEngine.obj
 0002:0001a580       ?onResize@DeferredEngine@@QAEXXZ 004f3580 f   DeferredEngine.obj
 0002:0001ab00       ?distance@ConvexHull2dHelpers@@YAMPBVConvexHull2d@@ABUD3DXVECTOR3@@@Z 004f3b00 f   ConvexHull2dHelpers.obj
 0002:0001ac60       ?vectorOverSemiSphere@DeferredEngine@@AAE?AUD3DXVECTOR3@@XZ 004f3c60 f   DeferredEngine.obj
 0002:0001aee0       ?setUpDeferred@DeferredEngine@@AAEXXZ 004f3ee0 f   DeferredEngine.obj
 0002:0001b330       ??0D3DXVECTOR2@@QAE@MM@Z   004f4330 f i DeferredEngine.obj
 0002:0001b380       ??0D3DXVECTOR4@@QAE@MMMM@Z 004f4380 f i DeferredEngine.obj
 0002:0001b3f0       ??0PointLight@@QAE@XZ      004f43f0 f i DeferredEngine.obj
 0002:0001b450       ??0D3DXVECTOR3@@QAE@XZ     004f4450 f i DeferredEngine.obj
 0002:0001b490       ??0D3DXVECTOR4@@QAE@XZ     004f4490 f i DeferredEngine.obj
 0002:0001b4d0       ??_H@YGXPAXIHP6EPAX0@Z@Z   004f44d0 f i DeferredEngine.obj
 0002:0001b540       ??0ScreenVertex@@QAE@XZ    004f4540 f i DeferredEngine.obj
 0002:0001b5a0       ??0D3DXVECTOR2@@QAE@XZ     004f45a0 f i DeferredEngine.obj
 0002:0001b5e0       ?setUpSSAO@DeferredEngine@@AAEXXZ 004f45e0 f   DeferredEngine.obj
 0002:0001b620       ?setUpSSDO@DeferredEngine@@AAEXXZ 004f4620 f   DeferredEngine.obj
 0002:0001b8e0       ?set@DeferredEngine@@QAEXXZ 004f48e0 f   DeferredEngine.obj
 0002:0001bb70       ??BD3DXCOLOR@@QBEPBMXZ     004f4b70 f i DeferredEngine.obj
 0002:0001bbb0       ?composite@DeferredEngine@@QAEXXZ 004f4bb0 f   DeferredEngine.obj
 0002:0001bc00       ?compositeSSDO@DeferredEngine@@AAEXXZ 004f4c00 f   DeferredEngine.obj
 0002:0001bc90       ?compositeSSAO@DeferredEngine@@AAEXXZ 004f4c90 f   DeferredEngine.obj
 0002:0001bcd0       ?compositeBlur@DeferredEngine@@AAEXXZ 004f4cd0 f   DeferredEngine.obj
 0002:0001bd10       ?compositeFinal@DeferredEngine@@AAEXXZ 004f4d10 f   DeferredEngine.obj
 0002:0001c650       ??A?$vector@UD3DXVECTOR3@@V?$allocator@UD3DXVECTOR3@@@std@@@std@@QBEABUD3DXVECTOR3@@I@Z 004f5650 f i ConvexHull2d.obj
 0002:0001c780       ?atLeft@ConvexHull2dHelpers@@YA_NABUD3DXVECTOR3@@00@Z 004f5780 f   ConvexHull2dHelpers.obj
 0002:0001c8a0       ?applyLightsDeferred@DeferredEngine@@AAEXXZ 004f58a0 f   DeferredEngine.obj
 0002:0001c8e0       ?drawLights@DeferredEngine@@AAEXPAUPointLight@@PAH@Z 004f58e0 f   DeferredEngine.obj
 0002:0001c920       ?createRenderTarget@DeferredEngine@@AAE_NAAVDxRenderTarget@@HHH@Z 004f5920 f   DeferredEngine.obj
 0002:0001cb90       ?generatePermutationTexture@DeferredEngine@@AAEXXZ 004f5b90 f   DeferredEngine.obj
 0002:0001ce90       ?resize@DeferredEngine@@QAEXHH@Z 004f5e90 f   DeferredEngine.obj
 0002:0001cef0       ?drawText@DeferredEngine@@QBEXAAV?$basic_string@DU?$char_traits@D@std@@V?$allocator@D@2@@std@@_NUD3DXCOLOR@@@Z 004f5ef0 f   DeferredEngine.obj
 0002:0001d0d0       ??1?$vector@HV?$allocator@H@std@@@std@@QAE@XZ 004f60d0 f i DeferredEngine.obj
 0002:0001d170       ??A?$vector@HV?$allocator@H@std@@@std@@QAEAAHI@Z 004f6170 f i DeferredEngine.obj
 0002:0001d2f0       ??1?$_Vector_val@HV?$allocator@H@std@@@std@@QAE@XZ 004f62f0 f i DeferredEngine.obj
 0002:0001d340       ?size@?$vector@HV?$allocator@H@std@@@std@@QBEIXZ 004f6340 f i DeferredEngine.obj
 0002:0001d390       ?_Tidy@?$vector@HV?$allocator@H@std@@@std@@IAEXXZ 004f6390 f i DeferredEngine.obj
 0002:0001d470       ??1?$_Container_base_aux_alloc_empty@V?$allocator@H@std@@@std@@IAE@XZ 004f6470 f i DeferredEngine.obj
 0002:0001d4d0       ?_Destroy@?$vector@HV?$allocator@H@std@@@std@@IAEXPAH0@Z 004f64d0 f i DeferredEngine.obj
 0002:0001d540       ?deallocate@?$allocator@H@std@@QAEXPAHI@Z 004f6540 f i DeferredEngine.obj
 0002:0001d5a0       ??$wcscpy_s@$0CA@@@YAHAAY0CA@_WPB_W@Z 004f65a0 f i DeferredEngine.obj
 0002:0001d610       ??$_Destroy_range@V?$allocator@H@std@@@std@@YAXPAH0AAV?$allocator@H@0@@Z 004f6610 f i DeferredEngine.obj
 0002:0001d690       ??$_Ptr_cat@PAHPAH@std@@YA?AU_Scalar_ptr_iterator_tag@0@AAPAH0@Z 004f6690 f i DeferredEngine.obj
 0002:0001d700       ??$_Destroy_range@V?$allocator@H@std@@@std@@YAXPAH0AAV?$allocator@H@0@U_Scalar_ptr_iterator_tag@0@@Z 004f6700 f i DeferredEngine.obj
 0002:0001d730       ??0Camera@@QAE@XZ          004f6730 f   Camera.obj
 0002:0001d810       ?updateCamera@Camera@@QAEXPAUD3DXMATRIX@@@Z 004f6810 f   Camera.obj
 0002:0001d880       ?setPositionAndAt@Camera@@QAEXPAUD3DXVECTOR3@@0@Z 004f6880 f   Camera.obj
 0002:0001d900       ?setUp@Camera@@QAEXPAUD3DXVECTOR3@@@Z 004f6900 f   Camera.obj
 0002:0001d960       ?getEyeAt@Camera@@QAEXPAUD3DXVECTOR3@@@Z 004f6960 f   Camera.obj
 0002:0001d9c0       ?getEyePos@Camera@@QAEXPAUD3DXVECTOR3@@@Z 004f69c0 f   Camera.obj
 0002:0001da20       ?incrementEyePos@Camera@@QAEXPAUD3DXVECTOR3@@@Z 004f6a20 f   Camera.obj
 0002:0001db90       ??0D3DXVECTOR3@@QAE@PBM@Z  004f6b90 f i Camera.obj
 0002:0001dc00       ??YD3DXVECTOR3@@QAEAAU0@ABU0@@Z 004f6c00 f i Camera.obj
 0002:0001dc80       ??BD3DXVECTOR4@@QAEPAMXZ   004f6c80 f i Camera.obj
 0002:0001dcc0       ?rotateAroundTarget@Camera@@QAEXPAUD3DXVECTOR3@@@Z 004f6cc0 f   Camera.obj
 0002:0001de00       ?incrementTargetPos@Camera@@QAEXPAUD3DXVECTOR3@@@Z 004f6e00 f   Camera.obj
 0002:0001de60       ?recomputeTbnView@Camera@@AAEXXZ 004f6e60 f   Camera.obj
 0002:0001e090       ??0D3DXMATRIX@@QAE@MMMMMMMMMMMMMMMM@Z 004f7090 f i Camera.obj
 0002:0001e180       ?D3DXVec3Cross@@YAPAUD3DXVECTOR3@@PAU1@PBU1@1@Z 004f7180 f i Camera.obj
 0002:0001e290       ?getTransformedUp@Camera@@QAE?AUD3DXVECTOR3@@XZ 004f7290 f   Camera.obj
 0002:0001e3b0       ?dx_3dPerpendicular@@YAXPAUD3DXVECTOR3@@0@Z 004f73b0 f   Camera.obj
 0002:0001e410       ?updateCameraForFustrum@Camera@@QBEXPAUD3DXMATRIX@@M@Z 004f7410 f   Camera.obj
 0002:0001e570       ??D@YA?AUD3DXVECTOR3@@MABU0@@Z 004f7570 f i Camera.obj
 0002:0001e620       ??0Camera3rdPersonView@@QAE@PAVCamera@@@Z 004f7620 f   CameraThidPerson.obj
 0002:0001e820       ?updateTargetParameters@Camera3rdPersonView@@QAEXABUD3DXVECTOR3@@00M@Z 004f7820 f   CameraThidPerson.obj
 0002:0001ead0       ??DD3DXVECTOR3@@QBE?AU0@M@Z 004f7ad0 f i CameraThidPerson.obj
 0002:0001eb90       ?updateCamera@Camera3rdPersonView@@QBEXXZ 004f7b90 f   CameraThidPerson.obj
 0002:0001ed30       ??HD3DXVECTOR3@@QBE?AU0@ABU0@@Z 004f7d30 f i CameraThidPerson.obj
 0002:0001edf0       ??C?$auto_ptr@VLog@@@std@@QBEPAVLog@@XZ 004f7df0 f i CameraThidPerson.obj
 0002:0001ee80       ?get@?$auto_ptr@VLog@@@std@@QBEPAVLog@@XZ 004f7e80 f i CameraThidPerson.obj
 0002:0001eec0       ??1Mesh@@QAE@XZ            004f7ec0 f   Mesh.obj
 0002:0001f0e0       ??1BevelEInfo@ObjEd@@QAE@XZ 004f80e0 f i Mesh.obj
 0002:0001f1b0       ??1OpKnifeLine@OpInfo@@QAE@XZ 004f81b0 f i Mesh.obj
 0002:0001f210       ??0Mesh@@QAE@ABVMeshSerial@@@Z 004f8210 f   Mesh.obj
 0002:0001f5d0       ??0OpKnifeLine@OpInfo@@QAE@XZ 004f85d0 f i Mesh.obj
 0002:0001f630       ??0KniveLineInfo@ObjEd@@QAE@XZ 004f8630 f i Mesh.obj
 0002:0001f690       ??0ScaleInfo@ObjEd@@QAE@XZ 004f8690 f i Mesh.obj
 0002:0001f6f0       ??0BevelEInfo@ObjEd@@QAE@XZ 004f86f0 f i Mesh.obj
 0002:0001f7c0       ?convert@Mesh@@QAE?AV?$vector@PAVEditableMeshModel@@V?$allocator@PAVEditableMeshModel@@@std@@@std@@PAUID3D10Device@@UD3DXVECTOR3@@PAUColourMapping@ObjEd@@@Z 004f87c0 f   Mesh.obj
 0002:0001f950       ??0Mesh@@QAE@XZ            004f8950 f   Mesh.obj
 0002:0001fbe0       ?setMode@Mesh@@QAEXH@Z     004f8be0 f   Mesh.obj
 0002:0001fc80       ?checkEntity@Mesh@@QAE?AUSelection@ObjEd@@UD3DXVECTOR3@@0MAAUD3DXMATRIX@@0AAU4@_NH2@Z 004f8c80 f   Mesh.obj
 0002:0001ffa0       ?checkVertex@Mesh@@AAE?AUSelection@ObjEd@@UD3DXVECTOR3@@0MAAU4@0@Z 004f8fa0 f   Mesh.obj
 0002:00020410       ?checkFace@Mesh@@AAE?AUSelection@ObjEd@@UD3DXVECTOR3@@0AAUD3DXMATRIX@@0@Z 004f9410 f   Mesh.obj
 0002:00020b40       ??1Face@@QAE@XZ            004f9b40 f i Mesh.obj
 0002:00020bf0       ?selectEntity@Mesh@@QAEXUSelection@ObjEd@@@Z 004f9bf0 f   Mesh.obj
 0002:00020d20       ?selectVertex@Mesh@@AAEXUSelection@ObjEd@@@Z 004f9d20 f   Mesh.obj
 0002:00020d90       ?selectEdge@Mesh@@AAEXUSelection@ObjEd@@@Z 004f9d90 f   Mesh.obj
 0002:00020e00       ?selectFace@Mesh@@AAEXUSelection@ObjEd@@@Z 004f9e00 f   Mesh.obj
 0002:00020e70       ?opTranslate@Mesh@@QAEXUD3DXVECTOR3@@ABV?$vector@USelection@ObjEd@@V?$allocator@USelection@ObjEd@@@std@@@std@@@Z 004f9e70 f   Mesh.obj
 0002:00020ff0       ?opTranslate@Mesh@@QAEXABVOpTranslate@OpInfo@@@Z 004f9ff0 f   Mesh.obj
 0002:00021150       ?endOpTranslate@Mesh@@QAEXXZ 004fa150 f   Mesh.obj
 0002:000212a0       ??0OpTranslate@OpInfo@@QAE@UD3DXVECTOR3@@ABV?$vector@USelection@ObjEd@@V?$allocator@USelection@ObjEd@@@std@@@std@@H@Z 004fa2a0 f i Mesh.obj
 0002:00021420       ??1?$_Vector_const_iterator@USelection@ObjEd@@V?$allocator@USelection@ObjEd@@@std@@@std@@QAE@XZ 004fa420 f i Mesh.obj
 0002:00021470       ??1?$_Ranit@USelection@ObjEd@@HPBU12@ABU12@@std@@QAE@XZ 004fa470 f i Mesh.obj
 0002:000214c0       ??1?$_Iterator_with_base@Urandom_access_iterator_tag@std@@USelection@ObjEd@@HPBU34@ABU34@V_Iterator_base@2@@std@@QAE@XZ 004fa4c0 f i Mesh.obj
 0002:00021510       ??1OpTranslate@OpInfo@@QAE@XZ 004fa510 f i Mesh.obj
 0002:00021560       ?opStartScale@Mesh@@QAEXXZ 004fa560 f   Mesh.obj
 0002:000216f0       ?opScale@Mesh@@QAEXUD3DXVECTOR3@@ABV?$vector@USelection@ObjEd@@V?$allocator@USelection@ObjEd@@@std@@@std@@@Z 004fa6f0 f   Mesh.obj
 0002:00021990       ?opScale@Mesh@@QAEXABVOpScale@OpInfo@@@Z 004fa990 f   Mesh.obj
 0002:00021b80       ?endOpScale@Mesh@@QAEXXZ   004fab80 f   Mesh.obj
 0002:00021cc0       ??0OpScale@OpInfo@@QAE@UD3DXVECTOR3@@0ABV?$vector@USelection@ObjEd@@V?$allocator@USelection@ObjEd@@@std@@@std@@H@Z 004facc0 f i Mesh.obj
 0002:00021e70       ??1OpScale@OpInfo@@QAE@XZ  004fae70 f i Mesh.obj
 0002:00021ec0       ?opTranslateVertex@Mesh@@AAEXUD3DXVECTOR3@@ABV?$vector@USelection@ObjEd@@V?$allocator@USelection@ObjEd@@@std@@@std@@@Z 004faec0 f   Mesh.obj
 0002:00021fa0       ?opScaleVertices@Mesh@@AAEXUD3DXVECTOR3@@0ABV?$vector@USelection@ObjEd@@V?$allocator@USelection@ObjEd@@@std@@@std@@@Z 004fafa0 f   Mesh.obj
 0002:00022090       ?unselectEntities@Mesh@@QAEXXZ 004fb090 f   Mesh.obj
 0002:000221d0       ?selectAddEntity@Mesh@@QAEXUSelection@ObjEd@@@Z 004fb1d0 f   Mesh.obj
 0002:00022300       ?selectRemoveEntity@Mesh@@QAE_NUSelection@ObjEd@@@Z 004fb300 f   Mesh.obj
 0002:00022470       ?centerMassSelectedVertices@Mesh@@QAE?AUD3DXVECTOR3@@XZ 004fb470 f   Mesh.obj
 0002:000224e0       ?checkEdge@Mesh@@AAE?AUSelection@ObjEd@@UD3DXVECTOR3@@0MAAU4@_NHAAUD3DXMATRIX@@0@Z 004fb4e0 f   Mesh.obj
 0002:00022b40       ?getCurrentComponentSelection@Mesh@@ABE?AV?$vector@USelection@ObjEd@@V?$allocator@USelection@ObjEd@@@std@@@std@@XZ 004fbb40 f   Mesh.obj
 0002:00022cd0       ?getCurrentSelection@Mesh@@QBE?AV?$vector@USelection@ObjEd@@V?$allocator@USelection@ObjEd@@@std@@@std@@XZ 004fbcd0 f   Mesh.obj
 0002:00022da0       ?opStartExtrude@Mesh@@QAEXABV?$vector@USelection@ObjEd@@V?$allocator@USelection@ObjEd@@@std@@@std@@AAUExtrudeOptions@Options@@@Z 004fbda0 f   Mesh.obj
 0002:00022fa0       ??1ExtrudeInfo@ObjEd@@QAE@XZ 004fbfa0 f i Mesh.obj
 0002:00023050       ??4ExtrudeInfo@ObjEd@@QAEAAU01@ABU01@@Z 004fc050 f i Mesh.obj
 0002:00023110       ?opExtrude@Mesh@@QAEXM@Z   004fc110 f   Mesh.obj
 0002:00023230       ?endOpExtrude@Mesh@@QAEXXZ 004fc230 f   Mesh.obj
 0002:00023370       ??0OpExtrude@OpInfo@@QAE@MABV?$vector@USelection@ObjEd@@V?$allocator@USelection@ObjEd@@@std@@@std@@AAUExtrudeOptions@Options@@H@Z 004fc370 f i Mesh.obj
 0002:000234e0       ??1OpExtrude@OpInfo@@QAE@XZ 004fc4e0 f i Mesh.obj
 0002:00023530       ?opExtrude@Mesh@@QAEXABVOpExtrude@OpInfo@@@Z 004fc530 f   Mesh.obj
 0002:000236e0       ?opStartExtrudeInner@Mesh@@QAEXABV?$vector@USelection@ObjEd@@V?$allocator@USelection@ObjEd@@@std@@@std@@AAUExtInnerOptions@Options@@@Z 004fc6e0 f   Mesh.obj
 0002:000238f0       ??1ExtrudeInnerInfo@ObjEd@@QAE@XZ 004fc8f0 f i Mesh.obj
 0002:000239c0       ??4ExtrudeInnerInfo@ObjEd@@QAEAAU01@ABU01@@Z 004fc9c0 f i Mesh.obj
 0002:00023a80       ?opExtrudeInner@Mesh@@QAEXM@Z 004fca80 f   Mesh.obj
 0002:00023ba0       ?endOpExtrudeInner@Mesh@@QAEXXZ 004fcba0 f   Mesh.obj
 0002:00023ce0       ??0OpExtrudeInner@OpInfo@@QAE@MABV?$vector@USelection@ObjEd@@V?$allocator@USelection@ObjEd@@@std@@@std@@AAUExtInnerOptions@Options@@H@Z 004fcce0 f i Mesh.obj
 0002:00023e50       ??1OpExtrudeInner@OpInfo@@QAE@XZ 004fce50 f i Mesh.obj
 0002:00023ea0       ?opExtrudeInner@Mesh@@QAEXABVOpExtrudeInner@OpInfo@@@Z 004fcea0 f   Mesh.obj
 0002:00024050       ?opStartExtrudeMatrix@Mesh@@QAEXABV?$vector@USelection@ObjEd@@V?$allocator@USelection@ObjEd@@@std@@@std@@AAUExtMatrixOptions@Options@@@Z 004fd050 f   Mesh.obj
 0002:00024250       ??1ExtrudeMatrixInfo@ObjEd@@QAE@XZ 004fd250 f i Mesh.obj
 0002:00024300       ??4ExtrudeMatrixInfo@ObjEd@@QAEAAU01@ABU01@@Z 004fd300 f i Mesh.obj
 0002:000243c0       ?opExtrudeMatrix@Mesh@@QAEXM@Z 004fd3c0 f   Mesh.obj
 0002:000244e0       ?endOpExtrudeMatrix@Mesh@@QAEXXZ 004fd4e0 f   Mesh.obj
 0002:00024620       ??0OpExtrudeMatrix@OpInfo@@QAE@MABV?$vector@USelection@ObjEd@@V?$allocator@USelection@ObjEd@@@std@@@std@@AAUExtMatrixOptions@Options@@H@Z 004fd620 f i Mesh.obj
 0002:00024790       ??1OpExtrudeMatrix@OpInfo@@QAE@XZ 004fd790 f i Mesh.obj
 0002:000247e0       ?opExtrudeMatrix@Mesh@@QAEXABVOpExtrudeMatrix@OpInfo@@@Z 004fd7e0 f   Mesh.obj
 0002:00024990       ?opStartBevelV@Mesh@@QAEXABV?$vector@USelection@ObjEd@@V?$allocator@USelection@ObjEd@@@std@@@std@@@Z 004fd990 f   Mesh.obj
 0002:00024b60       ??1BevelVInfo@ObjEd@@QAE@XZ 004fdb60 f i Mesh.obj
 0002:00024c10       ??4BevelVInfo@ObjEd@@QAEAAU01@ABU01@@Z 004fdc10 f i Mesh.obj
 0002:00024cd0       ?opBevelV@Mesh@@QAEXM@Z    004fdcd0 f   Mesh.obj
 0002:00024df0       ?opBevelV@Mesh@@QAEXABVOpBevelV@OpInfo@@@Z 004fddf0 f   Mesh.obj
 0002:00025040       ?opStartBevelE@Mesh@@QAEXABV?$vector@USelection@ObjEd@@V?$allocator@USelection@ObjEd@@@std@@@std@@@Z 004fe040 f   Mesh.obj
 0002:00025170       ??4BevelEInfo@ObjEd@@QAEAAU01@ABU01@@Z 004fe170 f i Mesh.obj
 0002:00025240       ?opBevelE@Mesh@@QAEXM@Z    004fe240 f   Mesh.obj
 0002:000252d0       ?opBevelE@Mesh@@QAEXABVOpBevelE@OpInfo@@@Z 004fe2d0 f   Mesh.obj
 0002:00025440       ?opStartNorScale@Mesh@@QAEXABV?$vector@USelection@ObjEd@@V?$allocator@USelection@ObjEd@@@std@@@std@@@Z 004fe440 f   Mesh.obj
 0002:000255f0       ??1NorScaleInfo@ObjEd@@QAE@XZ 004fe5f0 f i Mesh.obj
 0002:000256a0       ??4NorScaleInfo@ObjEd@@QAEAAU01@ABU01@@Z 004fe6a0 f i Mesh.obj
 0002:00025750       ?opNorScale@Mesh@@QAEXM@Z  004fe750 f   Mesh.obj
 0002:00025850       ?opNorScale@Mesh@@QAEXABVOpNormScale@OpInfo@@@Z 004fe850 f   Mesh.obj
 0002:00025a10       ?centerMassSelectedEdges@Mesh@@QAE?AUD3DXVECTOR3@@XZ 004fea10 f   Mesh.obj
 0002:00025cc0       ??XD3DXVECTOR3@@QAEAAU0@M@Z 004fecc0 f i Mesh.obj
 0002:00025d30       ??1?$_Iterator@$00@?$list@HV?$allocator@H@std@@@std@@QAE@XZ 004fed30 f i Mesh.obj
 0002:00025d80       ??1?$_Const_iterator@$00@?$list@HV?$allocator@H@std@@@std@@QAE@XZ 004fed80 f i Mesh.obj
 0002:00025dd0       ??1?$_Bidit@HHPBHABH@std@@QAE@XZ 004fedd0 f i Mesh.obj
 0002:00025e20       ??1?$_Iterator_with_base@Ubidirectional_iterator_tag@std@@HHPBHABHV_Iterator_base@2@@std@@QAE@XZ 004fee20 f i Mesh.obj
 0002:00025e70       ?centerMassSelectedFaces@Mesh@@QAE?AUD3DXVECTOR3@@XZ 004fee70 f   Mesh.obj
 0002:00026120       ?centerMassSelectedObjects@Mesh@@QAE?AUD3DXVECTOR3@@XZ 004ff120 f   Mesh.obj
 0002:00026330       ?opTranslateEdges@Mesh@@AAEXUD3DXVECTOR3@@ABV?$vector@USelection@ObjEd@@V?$allocator@USelection@ObjEd@@@std@@@std@@@Z 004ff330 f   Mesh.obj
 0002:00026550       ?opTranslateFaces@Mesh@@AAEXUD3DXVECTOR3@@ABV?$vector@USelection@ObjEd@@V?$allocator@USelection@ObjEd@@@std@@@std@@@Z 004ff550 f   Mesh.obj
 0002:00026770       ?opScaleEdges@Mesh@@AAEXUD3DXVECTOR3@@0ABV?$vector@USelection@ObjEd@@V?$allocator@USelection@ObjEd@@@std@@@std@@@Z 004ff770 f   Mesh.obj
 0002:00026980       ?opScaleFaces@Mesh@@AAEXUD3DXVECTOR3@@0ABV?$vector@USelection@ObjEd@@V?$allocator@USelection@ObjEd@@@std@@@std@@@Z 004ff980 f   Mesh.obj
 0002:00026b90       ?verticesOfEdgeSelection@Mesh@@AAE?AV?$list@HV?$allocator@H@std@@@std@@ABV?$vector@USelection@ObjEd@@V?$allocator@USelection@ObjEd@@@std@@@3@@Z 004ffb90 f   Mesh.obj
 0002:00026d60       ?verticesOfFaceSelection@Mesh@@AAE?AV?$list@HV?$allocator@H@std@@@std@@ABV?$vector@USelection@ObjEd@@V?$allocator@USelection@ObjEd@@@std@@@3@@Z 004ffd60 f   Mesh.obj
 0002:00026f90       ?verticesOfFaces@Mesh@@AAE?AV?$vector@HV?$allocator@H@std@@@std@@ABV?$vector@VFace@@V?$allocator@VFace@@@std@@@3@@Z 004fff90 f   Mesh.obj
 0002:000271f0       ?opKniveLine@Mesh@@QAEXAAUKniveLineInfo@ObjEd@@AAUD3DXMATRIX@@UD3DXVECTOR3@@@Z 005001f0 f   Mesh.obj
 0002:00027330       ??4OpKnifeLine@OpInfo@@QAEAAV01@ABV01@@Z 00500330 f i Mesh.obj
 0002:000273b0       ?opKnifeLine@Mesh@@QAEXABVOpKnifeLine@OpInfo@@@Z 005003b0 f   Mesh.obj
 0002:00027430       ?endOpBevelV@Mesh@@QAEXXZ  00500430 f   Mesh.obj
 0002:00027560       ??0OpBevelV@OpInfo@@QAE@MABV?$vector@USelection@ObjEd@@V?$allocator@USelection@ObjEd@@@std@@@std@@H@Z 00500560 f i Mesh.obj
 0002:000276c0       ??1OpBevelV@OpInfo@@QAE@XZ 005006c0 f i Mesh.obj
 0002:00027710       ?endOpBevelE@Mesh@@QAEXXZ  00500710 f   Mesh.obj
 0002:00027820       ??0OpBevelE@OpInfo@@QAE@MABV?$vector@USelection@ObjEd@@V?$allocator@USelection@ObjEd@@@std@@@std@@H@Z 00500820 f i Mesh.obj
 0002:00027980       ??1OpBevelE@OpInfo@@QAE@XZ 00500980 f i Mesh.obj
 0002:000279d0       ?endOpNorScale@Mesh@@QAEXXZ 005009d0 f   Mesh.obj
 0002:00027b00       ??0OpNormScale@OpInfo@@QAE@MABV?$vector@USelection@ObjEd@@V?$allocator@USelection@ObjEd@@@std@@@std@@H@Z 00500b00 f i Mesh.obj
 0002:00027c60       ??1OpNormScale@OpInfo@@QAE@XZ 00500c60 f i Mesh.obj
 0002:00027cb0       ?endOpKniveLine@Mesh@@QAEXXZ 00500cb0 f   Mesh.obj
 0002:00027d10       ?opPrimCube@Mesh@@QAEXH@Z  00500d10 f   Mesh.obj
 0002:00027d80       ?endOpPrimCube@Mesh@@QAEXH@Z 00500d80 f   Mesh.obj
 0002:00027df0       ??0OpPrimCube@OpInfo@@QAE@HH@Z 00500df0 f i Mesh.obj
 0002:00027e40       ?opPrimCube@Mesh@@QAEXABVOpPrimCube@OpInfo@@@Z 00500e40 f   Mesh.obj
 0002:00027f60       ?reconstructFromStack@Mesh@@AAEXXZ 00500f60 f   Mesh.obj
 0002:00028490       ?infoMeshText@Mesh@@QAE?AUMeshInfo@ObjEd@@XZ 00501490 f   Mesh.obj
 0002:00028590       ?centerMassSelectedEntities@Mesh@@QAE?AUD3DXVECTOR3@@H@Z 00501590 f   Mesh.obj
 0002:00028670       ?selectObject@Mesh@@AAEXH@Z 00501670 f   Mesh.obj
 0002:00028750       ?unselectObject@Mesh@@AAEXH@Z 00501750 f   Mesh.obj
 0002:00028830       ?opTranslateObject@Mesh@@AAEXUD3DXVECTOR3@@ABV?$vector@USelection@ObjEd@@V?$allocator@USelection@ObjEd@@@std@@@std@@@Z 00501830 f   Mesh.obj
 0002:00028950       ?opScaleObjects@Mesh@@AAEXUD3DXVECTOR3@@0ABV?$vector@USelection@ObjEd@@V?$allocator@USelection@ObjEd@@@std@@@std@@@Z 00501950 f   Mesh.obj
 0002:00028b30       ?unselectObjects@Mesh@@QAEXXZ 00501b30 f   Mesh.obj
 0002:00028c40       ?checkObject@Mesh@@AAE?AUSelection@ObjEd@@UD3DXVECTOR3@@0AAUD3DXMATRIX@@0@Z 00501c40 f   Mesh.obj
 0002:00028f30       ?DEBUGlistEntity@Mesh@@QAE?AV?$vector@HV?$allocator@H@std@@@std@@USelection@ObjEd@@@Z 00501f30 f   Mesh.obj
 0002:00029150       ?addComponent@Mesh@@AAEHPAVMeshComponent@@@Z 00502150 f   Mesh.obj
 0002:000292b0       ?newPrimitive@Mesh@@QAEXH@Z 005022b0 f   Mesh.obj
 0002:000293e0       ?nComponents@Mesh@@QBEHXZ  005023e0 f   Mesh.obj
 0002:00029440       ?isEntitySelected@Mesh@@QAE_NABUSelection@ObjEd@@@Z 00502440 f   Mesh.obj
 0002:00029560       ?release@Mesh@@QAEXXZ      00502560 f   Mesh.obj
 0002:00029780       ??_GOpStack@@QAEPAXI@Z     00502780 f i Mesh.obj
 0002:000297f0       ??_GMeshComponent@@QAEPAXI@Z 005027f0 f i Mesh.obj
 0002:00029860       ?init@Mesh@@QAEXXZ         00502860 f   Mesh.obj
 0002:00029970       ?storeComponentFlag@Mesh@@QAEHXZ 00502970 f   Mesh.obj
 0002:000299b0       ?hasBasisOfSelection@Mesh@@QAE_NV?$vector@USelection@ObjEd@@V?$allocator@USelection@ObjEd@@@std@@@std@@@Z 005029b0 f   Mesh.obj
 0002:00029ae0       ?basisOfSelection@Mesh@@QAE?AV?$vector@UD3DXVECTOR3@@V?$allocator@UD3DXVECTOR3@@@std@@@std@@V?$vector@USelection@ObjEd@@V?$allocator@USelection@ObjEd@@@std@@@3@@Z 00502ae0 f   Mesh.obj
 0002:00029d30       ?hasProcTex@Mesh@@QAE_NXZ  00502d30 f   Mesh.obj
 0002:00029d90       ?initProcTex@Mesh@@QAEXXZ  00502d90 f   Mesh.obj
 0002:00029ee0       ?setProcTex@Mesh@@QAEXABV?$vector@VProcTex@ObjEd@@V?$allocator@VProcTex@ObjEd@@@std@@@std@@@Z 00502ee0 f   Mesh.obj
 0002:00029f40       ?procTex@Mesh@@QBE?AV?$vector@VProcTex@ObjEd@@V?$allocator@VProcTex@ObjEd@@@std@@@std@@XZ 00502f40 f   Mesh.obj
 0002:00029fc0       ?opTexAddToSelection@Mesh@@QAEXHHH@Z 00502fc0 f   Mesh.obj
 0002:0002a030       ?newProcTex@Mesh@@QAEXXZ   00503030 f   Mesh.obj
 0002:0002a150       ?convertToDeferred@Mesh@@QAE?AV?$vector@PAVDeferredMeshModel@@V?$allocator@PAVDeferredMeshModel@@@std@@@std@@PAUID3D10Device@@UD3DXVECTOR3@@PAUColourMapping@ObjEd@@@Z 00503150 f   Mesh.obj
 0002:0002a2e0       ?boundingSphere@Mesh@@QBE?AVBoundingSphere@Intersections@@XZ 005032e0 f   Mesh.obj
 0002:0002a350       ??0?$vector@HV?$allocator@H@std@@@std@@QAE@XZ 00503350 f i Mesh.obj
 0002:0002a410       ??0?$vector@HV?$allocator@H@std@@@std@@QAE@ABV01@@Z 00503410 f i Mesh.obj
 0002:0002a5b0       ??4?$vector@HV?$allocator@H@std@@@std@@QAEAAV01@ABV01@@Z 005035b0 f i Mesh.obj
 0002:0002a7e0       ??0?$vector@UD3DXVECTOR3@@V?$allocator@UD3DXVECTOR3@@@std@@@std@@QAE@XZ 005037e0 f i Mesh.obj
 0002:0002a8a0       ??0?$vector@UD3DXVECTOR3@@V?$allocator@UD3DXVECTOR3@@@std@@@std@@QAE@ABV01@@Z 005038a0 f i Mesh.obj
 0002:0002aa40       ??1?$vector@UD3DXVECTOR3@@V?$allocator@UD3DXVECTOR3@@@std@@@std@@QAE@XZ 00503a40 f i Mesh.obj
 0002:0002aae0       ??4?$vector@UD3DXVECTOR3@@V?$allocator@UD3DXVECTOR3@@@std@@@std@@QAEAAV01@ABV01@@Z 00503ae0 f i Mesh.obj
 0002:0002ad20       ??1?$vector@V?$vector@PAVHE_vert@@V?$allocator@PAVHE_vert@@@std@@@std@@V?$allocator@V?$vector@PAVHE_vert@@V?$allocator@PAVHE_vert@@@std@@@std@@@2@@std@@QAE@XZ 00503d20 f i Mesh.obj
 0002:0002adc0       ??4?$vector@V?$vector@PAVHE_vert@@V?$allocator@PAVHE_vert@@@std@@@std@@V?$allocator@V?$vector@PAVHE_vert@@V?$allocator@PAVHE_vert@@@std@@@std@@@2@@std@@QAEAAV01@ABV01@@Z 00503dc0 f i Mesh.obj
 0002:0002b000       ??0?$vector@PAVHE_vert@@V?$allocator@PAVHE_vert@@@std@@@std@@QAE@XZ 00504000 f i Mesh.obj
 0002:0002b0c0       ??1?$vector@PAVHE_vert@@V?$allocator@PAVHE_vert@@@std@@@std@@QAE@XZ 005040c0 f i Mesh.obj
 0002:0002b160       ??4?$vector@PAVHE_vert@@V?$allocator@PAVHE_vert@@@std@@@std@@QAEAAV01@ABV01@@Z 00504160 f i Mesh.obj
 0002:0002b390       ??0?$vector@USelection@ObjEd@@V?$allocator@USelection@ObjEd@@@std@@@std@@QAE@XZ 00504390 f i Mesh.obj
 0002:0002b450       ??0?$vector@USelection@ObjEd@@V?$allocator@USelection@ObjEd@@@std@@@std@@QAE@ABV01@@Z 00504450 f i Mesh.obj
 0002:0002b5f0       ??1?$vector@USelection@ObjEd@@V?$allocator@USelection@ObjEd@@@std@@@std@@QAE@XZ 005045f0 f i Mesh.obj
 0002:0002b690       ??4?$vector@USelection@ObjEd@@V?$allocator@USelection@ObjEd@@@std@@@std@@QAEAAV01@ABV01@@Z 00504690 f i Mesh.obj
 0002:0002b8d0       ?begin@?$vector@USelection@ObjEd@@V?$allocator@USelection@ObjEd@@@std@@@std@@QBE?AV?$_Vector_const_iterator@USelection@ObjEd@@V?$allocator@USelection@ObjEd@@@std@@@2@XZ 005048d0 f i Mesh.obj
 0002:0002b960       ?end@?$vector@USelection@ObjEd@@V?$allocator@USelection@ObjEd@@@std@@@std@@QBE?AV?$_Vector_const_iterator@USelection@ObjEd@@V?$allocator@USelection@ObjEd@@@std@@@2@XZ 00504960 f i Mesh.obj
 0002:0002b9f0       ?size@?$vector@USelection@ObjEd@@V?$allocator@USelection@ObjEd@@@std@@@std@@QBEIXZ 005049f0 f i Mesh.obj
 0002:0002ba40       ?empty@?$vector@USelection@ObjEd@@V?$allocator@USelection@ObjEd@@@std@@@std@@QBE_NXZ 00504a40 f i Mesh.obj
 0002:0002baa0       ??A?$vector@USelection@ObjEd@@V?$allocator@USelection@ObjEd@@@std@@@std@@QBEABUSelection@ObjEd@@I@Z 00504aa0 f i Mesh.obj
 0002:0002bc20       ??A?$vector@USelection@ObjEd@@V?$allocator@USelection@ObjEd@@@std@@@std@@QAEAAUSelection@ObjEd@@I@Z 00504c20 f i Mesh.obj
 0002:0002bda0       ?push_back@?$vector@USelection@ObjEd@@V?$allocator@USelection@ObjEd@@@std@@@std@@QAEXABUSelection@ObjEd@@@Z 00504da0 f i Mesh.obj
 0002:0002bf10       ?clear@?$vector@USelection@ObjEd@@V?$allocator@USelection@ObjEd@@@std@@@std@@QAEXXZ 00504f10 f i Mesh.obj
 0002:0002c0a0       ??0?$vector@UEdgeIntersection@ObjEd@@V?$allocator@UEdgeIntersection@ObjEd@@@std@@@std@@QAE@XZ 005050a0 f i Mesh.obj
 0002:0002c160       ??1?$vector@UEdgeIntersection@ObjEd@@V?$allocator@UEdgeIntersection@ObjEd@@@std@@@std@@QAE@XZ 00505160 f i Mesh.obj
 0002:0002c200       ??4?$vector@UEdgeIntersection@ObjEd@@V?$allocator@UEdgeIntersection@ObjEd@@@std@@@std@@QAEAAV01@ABV01@@Z 00505200 f i Mesh.obj
 0002:0002c430       ??0?$vector@_NV?$allocator@_N@std@@@std@@QAE@XZ 00505430 f i Mesh.obj
 0002:0002c500       ?resize@?$vector@_NV?$allocator@_N@std@@@std@@QAEXI_N@Z 00505500 f i Mesh.obj
 0002:0002c7a0       ?size@?$vector@_NV?$allocator@_N@std@@@std@@QBEIXZ 005057a0 f i Mesh.obj
 0002:0002c7e0       ??A?$vector@_NV?$allocator@_N@std@@@std@@QBE_NI@Z 005057e0 f i Mesh.obj
 0002:0002c910       ?clear@?$vector@_NV?$allocator@_N@std@@@std@@QAEXXZ 00505910 f i Mesh.obj
 0002:0002caa0       ?size@?$vector@PAVMeshComponentSerial@@V?$allocator@PAVMeshComponentSerial@@@std@@@std@@QBEIXZ 00505aa0 f i Mesh.obj
 0002:0002caf0       ??A?$vector@PAVMeshComponentSerial@@V?$allocator@PAVMeshComponentSerial@@@std@@@std@@QBEABQAVMeshComponentSerial@@I@Z 00505af0 f i Mesh.obj
 0002:0002cc70       ??0?$vector@VProcTex@ObjEd@@V?$allocator@VProcTex@ObjEd@@@std@@@std@@QAE@XZ 00505c70 f i Mesh.obj
 0002:0002cd30       ??0?$vector@VProcTex@ObjEd@@V?$allocator@VProcTex@ObjEd@@@std@@@std@@QAE@ABV01@@Z 00505d30 f i Mesh.obj
 0002:0002ced0       ??1?$vector@VProcTex@ObjEd@@V?$allocator@VProcTex@ObjEd@@@std@@@std@@QAE@XZ 00505ed0 f i Mesh.obj
 0002:0002cf70       ??4?$vector@VProcTex@ObjEd@@V?$allocator@VProcTex@ObjEd@@@std@@@std@@QAEAAV01@ABV01@@Z 00505f70 f i Mesh.obj
 0002:0002d1b0       ?resize@?$vector@VProcTex@ObjEd@@V?$allocator@VProcTex@ObjEd@@@std@@@std@@QAEXI@Z 005061b0 f i Mesh.obj
 0002:0002d230       ??0ProcTex@ObjEd@@QAE@XZ   00506230 f i Mesh.obj
 0002:0002d310       ??0D3DXCOLOR@@QAE@XZ       00506310 f i Mesh.obj
 0002:0002d350       ??0_Has_debug_it@?$basic_string@DU?$char_traits@D@std@@V?$allocator@D@2@@std@@QAE@_N@Z 00506350 f i Mesh.obj
 0002:0002d3a0       ?size@?$vector@VProcTex@ObjEd@@V?$allocator@VProcTex@ObjEd@@@std@@@std@@QBEIXZ 005063a0 f i Mesh.obj
 0002:0002d3f0       ?empty@?$vector@VProcTex@ObjEd@@V?$allocator@VProcTex@ObjEd@@@std@@@std@@QBE_NXZ 005063f0 f i Mesh.obj
 0002:0002d450       ??A?$vector@VProcTex@ObjEd@@V?$allocator@VProcTex@ObjEd@@@std@@@std@@QAEAAVProcTex@ObjEd@@I@Z 00506450 f i Mesh.obj
 0002:0002d5d0       ?clear@?$vector@VProcTex@ObjEd@@V?$allocator@VProcTex@ObjEd@@@std@@@std@@QAEXXZ 005065d0 f i Mesh.obj
 0002:0002d760       ??0?$vector@PAVMeshComponent@@V?$allocator@PAVMeshComponent@@@std@@@std@@QAE@XZ 00506760 f i Mesh.obj
 0002:0002d820       ??1?$vector@PAVMeshComponent@@V?$allocator@PAVMeshComponent@@@std@@@std@@QAE@XZ 00506820 f i Mesh.obj
 0002:0002d8c0       ?resize@?$vector@PAVMeshComponent@@V?$allocator@PAVMeshComponent@@@std@@@std@@QAEXI@Z 005068c0 f i Mesh.obj
 0002:0002d920       ?size@?$vector@PAVMeshComponent@@V?$allocator@PAVMeshComponent@@@std@@@std@@QBEIXZ 00506920 f i Mesh.obj
 0002:0002d970       ??A?$vector@PAVMeshComponent@@V?$allocator@PAVMeshComponent@@@std@@@std@@QBEABQAVMeshComponent@@I@Z 00506970 f i Mesh.obj
 0002:0002daf0       ??A?$vector@PAVMeshComponent@@V?$allocator@PAVMeshComponent@@@std@@@std@@QAEAAPAVMeshComponent@@I@Z 00506af0 f i Mesh.obj
 0002:0002dc70       ?clear@?$vector@PAVMeshComponent@@V?$allocator@PAVMeshComponent@@@std@@@std@@QAEXXZ 00506c70 f i Mesh.obj
 0002:0002de00       ??0?$vector@UBevelVInfo@ObjEd@@V?$allocator@UBevelVInfo@ObjEd@@@std@@@std@@QAE@XZ 00506e00 f i Mesh.obj
 0002:0002dec0       ??1?$vector@UBevelVInfo@ObjEd@@V?$allocator@UBevelVInfo@ObjEd@@@std@@@std@@QAE@XZ 00506ec0 f i Mesh.obj
 0002:0002df60       ?resize@?$vector@UBevelVInfo@ObjEd@@V?$allocator@UBevelVInfo@ObjEd@@@std@@@std@@QAEXI@Z 00506f60 f i Mesh.obj
 0002:0002dfe0       ??A?$vector@UBevelVInfo@ObjEd@@V?$allocator@UBevelVInfo@ObjEd@@@std@@@std@@QAEAAUBevelVInfo@ObjEd@@I@Z 00506fe0 f i Mesh.obj
 0002:0002e160       ?clear@?$vector@UBevelVInfo@ObjEd@@V?$allocator@UBevelVInfo@ObjEd@@@std@@@std@@QAEXXZ 00507160 f i Mesh.obj
 0002:0002e2f0       ??0?$vector@UExtrudeInfo@ObjEd@@V?$allocator@UExtrudeInfo@ObjEd@@@std@@@std@@QAE@XZ 005072f0 f i Mesh.obj
 0002:0002e3b0       ??1?$vector@UExtrudeInfo@ObjEd@@V?$allocator@UExtrudeInfo@ObjEd@@@std@@@std@@QAE@XZ 005073b0 f i Mesh.obj
 0002:0002e450       ?resize@?$vector@UExtrudeInfo@ObjEd@@V?$allocator@UExtrudeInfo@ObjEd@@@std@@@std@@QAEXI@Z 00507450 f i Mesh.obj
 0002:0002e4d0       ??A?$vector@UExtrudeInfo@ObjEd@@V?$allocator@UExtrudeInfo@ObjEd@@@std@@@std@@QAEAAUExtrudeInfo@ObjEd@@I@Z 005074d0 f i Mesh.obj
 0002:0002e650       ?clear@?$vector@UExtrudeInfo@ObjEd@@V?$allocator@UExtrudeInfo@ObjEd@@@std@@@std@@QAEXXZ 00507650 f i Mesh.obj
 0002:0002e7e0       ??0?$vector@UExtrudeMatrixInfo@ObjEd@@V?$allocator@UExtrudeMatrixInfo@ObjEd@@@std@@@std@@QAE@XZ 005077e0 f i Mesh.obj
 0002:0002e8a0       ??1?$vector@UExtrudeMatrixInfo@ObjEd@@V?$allocator@UExtrudeMatrixInfo@ObjEd@@@std@@@std@@QAE@XZ 005078a0 f i Mesh.obj
 0002:0002e940       ?resize@?$vector@UExtrudeMatrixInfo@ObjEd@@V?$allocator@UExtrudeMatrixInfo@ObjEd@@@std@@@std@@QAEXI@Z 00507940 f i Mesh.obj
 0002:0002e9c0       ??A?$vector@UExtrudeMatrixInfo@ObjEd@@V?$allocator@UExtrudeMatrixInfo@ObjEd@@@std@@@std@@QAEAAUExtrudeMatrixInfo@ObjEd@@I@Z 005079c0 f i Mesh.obj
 0002:0002eb40       ?clear@?$vector@UExtrudeMatrixInfo@ObjEd@@V?$allocator@UExtrudeMatrixInfo@ObjEd@@@std@@@std@@QAEXXZ 00507b40 f i Mesh.obj
 0002:0002ecd0       ??0?$vector@UExtrudeInnerInfo@ObjEd@@V?$allocator@UExtrudeInnerInfo@ObjEd@@@std@@@std@@QAE@XZ 00507cd0 f i Mesh.obj
 0002:0002ed90       ??1?$vector@UExtrudeInnerInfo@ObjEd@@V?$allocator@UExtrudeInnerInfo@ObjEd@@@std@@@std@@QAE@XZ 00507d90 f i Mesh.obj
 0002:0002ee30       ?resize@?$vector@UExtrudeInnerInfo@ObjEd@@V?$allocator@UExtrudeInnerInfo@ObjEd@@@std@@@std@@QAEXI@Z 00507e30 f i Mesh.obj
 0002:0002eeb0       ??A?$vector@UExtrudeInnerInfo@ObjEd@@V?$allocator@UExtrudeInnerInfo@ObjEd@@@std@@@std@@QAEAAUExtrudeInnerInfo@ObjEd@@I@Z 00507eb0 f i Mesh.obj
 0002:0002f030       ?clear@?$vector@UExtrudeInnerInfo@ObjEd@@V?$allocator@UExtrudeInnerInfo@ObjEd@@@std@@@std@@QAEXXZ 00508030 f i Mesh.obj
 0002:0002f1c0       ??0?$vector@UNorScaleInfo@ObjEd@@V?$allocator@UNorScaleInfo@ObjEd@@@std@@@std@@QAE@XZ 005081c0 f i Mesh.obj
 0002:0002f280       ??1?$vector@UNorScaleInfo@ObjEd@@V?$allocator@UNorScaleInfo@ObjEd@@@std@@@std@@QAE@XZ 00508280 f i Mesh.obj
 0002:0002f320       ?resize@?$vector@UNorScaleInfo@ObjEd@@V?$allocator@UNorScaleInfo@ObjEd@@@std@@@std@@QAEXI@Z 00508320 f i Mesh.obj
 0002:0002f3a0       ??A?$vector@UNorScaleInfo@ObjEd@@V?$allocator@UNorScaleInfo@ObjEd@@@std@@@std@@QAEAAUNorScaleInfo@ObjEd@@I@Z 005083a0 f i Mesh.obj
 0002:0002f520       ?clear@?$vector@UNorScaleInfo@ObjEd@@V?$allocator@UNorScaleInfo@ObjEd@@@std@@@std@@QAEXXZ 00508520 f i Mesh.obj
 0002:0002f6b0       ??0?$vector@PAVEditableMeshModel@@V?$allocator@PAVEditableMeshModel@@@std@@@std@@QAE@XZ 005086b0 f i Mesh.obj
 0002:0002f770       ??0?$vector@PAVEditableMeshModel@@V?$allocator@PAVEditableMeshModel@@@std@@@std@@QAE@ABV01@@Z 00508770 f i Mesh.obj
 0002:0002f910       ??1?$vector@PAVEditableMeshModel@@V?$allocator@PAVEditableMeshModel@@@std@@@std@@QAE@XZ 00508910 f i Mesh.obj
 0002:0002f9b0       ?push_back@?$vector@PAVEditableMeshModel@@V?$allocator@PAVEditableMeshModel@@@std@@@std@@QAEXABQAVEditableMeshModel@@@Z 005089b0 f i Mesh.obj
 0002:0002fb20       ??1?$vector@VFace@@V?$allocator@VFace@@@std@@@std@@QAE@XZ 00508b20 f i Mesh.obj
 0002:0002fbc0       ?size@?$vector@VFace@@V?$allocator@VFace@@@std@@@std@@QBEIXZ 00508bc0 f i Mesh.obj
 0002:0002fc10       ??A?$vector@VFace@@V?$allocator@VFace@@@std@@@std@@QBEABVFace@@I@Z 00508c10 f i Mesh.obj
 0002:0002fd90       ??0?$list@HV?$allocator@H@std@@@std@@QAE@XZ 00508d90 f i Mesh.obj
 0002:0002fe60       ??0?$list@HV?$allocator@H@std@@@std@@QAE@ABV01@@Z 00508e60 f i Mesh.obj
 0002:00030050       ??1?$list@HV?$allocator@H@std@@@std@@QAE@XZ 00509050 f i Mesh.obj
 0002:000300f0       ?begin@?$list@HV?$allocator@H@std@@@std@@QAE?AV?$_Iterator@$00@12@XZ 005090f0 f i Mesh.obj
 0002:00030180       ?end@?$list@HV?$allocator@H@std@@@std@@QAE?AV?$_Iterator@$00@12@XZ 00509180 f i Mesh.obj
 0002:00030210       ?push_back@?$list@HV?$allocator@H@std@@@std@@QAEXABH@Z 00509210 f i Mesh.obj
 0002:00030310       ?unique@?$list@HV?$allocator@H@std@@@std@@QAEXXZ 00509310 f i Mesh.obj
 0002:000305b0       ?sort@?$list@HV?$allocator@H@std@@@std@@QAEXXZ 005095b0 f i Mesh.obj
 0002:00030ab0       ??D?$_Iterator@$00@?$list@HV?$allocator@H@std@@@std@@QBEAAHXZ 00509ab0 f i Mesh.obj
 0002:00030b00       ??E?$_Iterator@$00@?$list@HV?$allocator@H@std@@@std@@QAEAAV012@XZ 00509b00 f i Mesh.obj
 0002:00030b60       ??9?$_Const_iterator@$00@?$list@HV?$allocator@H@std@@@std@@QBE_NABV012@@Z 00509b60 f i Mesh.obj
 0002:00030bd0       ??0?$vector@PAVDeferredMeshModel@@V?$allocator@PAVDeferredMeshModel@@@std@@@std@@QAE@XZ 00509bd0 f i Mesh.obj
 0002:00030c90       ??0?$vector@PAVDeferredMeshModel@@V?$allocator@PAVDeferredMeshModel@@@std@@@std@@QAE@ABV01@@Z 00509c90 f i Mesh.obj
 0002:00030e30       ??1?$vector@PAVDeferredMeshModel@@V?$allocator@PAVDeferredMeshModel@@@std@@@std@@QAE@XZ 00509e30 f i Mesh.obj
 0002:00030ed0       ?push_back@?$vector@PAVDeferredMeshModel@@V?$allocator@PAVDeferredMeshModel@@@std@@@std@@QAEXABQAVDeferredMeshModel@@@Z 00509ed0 f i Mesh.obj
 0002:00031040       ??1?$_Vector_const_iterator@HV?$allocator@H@std@@@std@@QAE@XZ 0050a040 f i Mesh.obj
 0002:00031090       ??1?$_Vector_val@UD3DXVECTOR3@@V?$allocator@UD3DXVECTOR3@@@std@@@std@@QAE@XZ 0050a090 f i Mesh.obj
 0002:000310e0       ??1?$_Vector_const_iterator@UD3DXVECTOR3@@V?$allocator@UD3DXVECTOR3@@@std@@@std@@QAE@XZ 0050a0e0 f i Mesh.obj
 0002:00031130       ??1?$_Vector_val@V?$vector@PAVHE_vert@@V?$allocator@PAVHE_vert@@@std@@@std@@V?$allocator@V?$vector@PAVHE_vert@@V?$allocator@PAVHE_vert@@@std@@@std@@@2@@std@@QAE@XZ 0050a130 f i Mesh.obj
 0002:00031180       ??1?$_Vector_val@PAVHE_vert@@V?$allocator@PAVHE_vert@@@std@@@std@@QAE@XZ 0050a180 f i Mesh.obj
 0002:000311d0       ??1?$_Vector_val@USelection@ObjEd@@V?$allocator@USelection@ObjEd@@@std@@@std@@QAE@XZ 0050a1d0 f i Mesh.obj
 0002:00031220       ??1?$_Vector_iterator@USelection@ObjEd@@V?$allocator@USelection@ObjEd@@@std@@@std@@QAE@XZ 0050a220 f i Mesh.obj
 0002:00031270       ??0?$_Vector_const_iterator@USelection@ObjEd@@V?$allocator@USelection@ObjEd@@@std@@@std@@QAE@ABV01@@Z 0050a270 f i Mesh.obj
 0002:000312e0       ??1?$_Vector_val@UEdgeIntersection@ObjEd@@V?$allocator@UEdgeIntersection@ObjEd@@@std@@@std@@QAE@XZ 0050a2e0 f i Mesh.obj
 0002:00031330       ??1?$_Vector_val@VProcTex@ObjEd@@V?$allocator@VProcTex@ObjEd@@@std@@@std@@QAE@XZ 0050a330 f i Mesh.obj
 0002:00031380       ??1?$_Vector_const_iterator@VProcTex@ObjEd@@V?$allocator@VProcTex@ObjEd@@@std@@@std@@QAE@XZ 0050a380 f i Mesh.obj
 0002:000313d0       ??1?$_Vector_iterator@VProcTex@ObjEd@@V?$allocator@VProcTex@ObjEd@@@std@@@std@@QAE@XZ 0050a3d0 f i Mesh.obj
 0002:00031420       ??0?$_Vector_const_iterator@VProcTex@ObjEd@@V?$allocator@VProcTex@ObjEd@@@std@@@std@@QAE@ABV01@@Z 0050a420 f i Mesh.obj
 0002:00031490       ??1?$_Vector_val@PAVMeshComponent@@V?$allocator@PAVMeshComponent@@@std@@@std@@QAE@XZ 0050a490 f i Mesh.obj
 0002:000314e0       ??1?$_Vector_iterator@PAVMeshComponent@@V?$allocator@PAVMeshComponent@@@std@@@std@@QAE@XZ 0050a4e0 f i Mesh.obj
 0002:00031530       ??0?$_Vector_const_iterator@PAVMeshComponent@@V?$allocator@PAVMeshComponent@@@std@@@std@@QAE@ABV01@@Z 0050a530 f i Mesh.obj
 0002:000315a0       ??1?$_Vector_const_iterator@PAVMeshComponent@@V?$allocator@PAVMeshComponent@@@std@@@std@@QAE@XZ 0050a5a0 f i Mesh.obj
 0002:000315f0       ??1?$_Vector_val@UBevelVInfo@ObjEd@@V?$allocator@UBevelVInfo@ObjEd@@@std@@@std@@QAE@XZ 0050a5f0 f i Mesh.obj
 0002:00031640       ??0BevelVInfo@ObjEd@@QAE@XZ 0050a640 f i Mesh.obj
 0002:00031700       ??1?$_Vector_iterator@UBevelVInfo@ObjEd@@V?$allocator@UBevelVInfo@ObjEd@@@std@@@std@@QAE@XZ 0050a700 f i Mesh.obj
 0002:00031750       ??0?$_Vector_const_iterator@UBevelVInfo@ObjEd@@V?$allocator@UBevelVInfo@ObjEd@@@std@@@std@@QAE@ABV01@@Z 0050a750 f i Mesh.obj
 0002:000317c0       ??1?$_Vector_const_iterator@UBevelVInfo@ObjEd@@V?$allocator@UBevelVInfo@ObjEd@@@std@@@std@@QAE@XZ 0050a7c0 f i Mesh.obj
 0002:00031810       ??1?$_Vector_val@UExtrudeInfo@ObjEd@@V?$allocator@UExtrudeInfo@ObjEd@@@std@@@std@@QAE@XZ 0050a810 f i Mesh.obj
 0002:00031860       ??0ExtrudeInfo@ObjEd@@QAE@XZ 0050a860 f i Mesh.obj
 0002:00031920       ??1?$_Vector_iterator@UExtrudeInfo@ObjEd@@V?$allocator@UExtrudeInfo@ObjEd@@@std@@@std@@QAE@XZ 0050a920 f i Mesh.obj
 0002:00031970       ??0?$_Vector_const_iterator@UExtrudeInfo@ObjEd@@V?$allocator@UExtrudeInfo@ObjEd@@@std@@@std@@QAE@ABV01@@Z 0050a970 f i Mesh.obj
 0002:000319e0       ??1?$_Vector_const_iterator@UExtrudeInfo@ObjEd@@V?$allocator@UExtrudeInfo@ObjEd@@@std@@@std@@QAE@XZ 0050a9e0 f i Mesh.obj
 0002:00031a30       ??1?$_Vector_val@UExtrudeMatrixInfo@ObjEd@@V?$allocator@UExtrudeMatrixInfo@ObjEd@@@std@@@std@@QAE@XZ 0050aa30 f i Mesh.obj
 0002:00031a80       ??0ExtrudeMatrixInfo@ObjEd@@QAE@XZ 0050aa80 f i Mesh.obj
 0002:00031b40       ??1?$_Vector_iterator@UExtrudeMatrixInfo@ObjEd@@V?$allocator@UExtrudeMatrixInfo@ObjEd@@@std@@@std@@QAE@XZ 0050ab40 f i Mesh.obj
 0002:00031b90       ??0?$_Vector_const_iterator@UExtrudeMatrixInfo@ObjEd@@V?$allocator@UExtrudeMatrixInfo@ObjEd@@@std@@@std@@QAE@ABV01@@Z 0050ab90 f i Mesh.obj
 0002:00031c00       ??1?$_Vector_const_iterator@UExtrudeMatrixInfo@ObjEd@@V?$allocator@UExtrudeMatrixInfo@ObjEd@@@std@@@std@@QAE@XZ 0050ac00 f i Mesh.obj
 0002:00031c50       ??1?$_Vector_val@UExtrudeInnerInfo@ObjEd@@V?$allocator@UExtrudeInnerInfo@ObjEd@@@std@@@std@@QAE@XZ 0050ac50 f i Mesh.obj
 0002:00031ca0       ??0ExtrudeInnerInfo@ObjEd@@QAE@XZ 0050aca0 f i Mesh.obj
 0002:00031d70       ??1?$_Vector_iterator@UExtrudeInnerInfo@ObjEd@@V?$allocator@UExtrudeInnerInfo@ObjEd@@@std@@@std@@QAE@XZ 0050ad70 f i Mesh.obj
 0002:00031dc0       ??0?$_Vector_const_iterator@UExtrudeInnerInfo@ObjEd@@V?$allocator@UExtrudeInnerInfo@ObjEd@@@std@@@std@@QAE@ABV01@@Z 0050adc0 f i Mesh.obj
 0002:00031e30       ??1?$_Vector_const_iterator@UExtrudeInnerInfo@ObjEd@@V?$allocator@UExtrudeInnerInfo@ObjEd@@@std@@@std@@QAE@XZ 0050ae30 f i Mesh.obj
 0002:00031e80       ??1?$_Vector_val@UNorScaleInfo@ObjEd@@V?$allocator@UNorScaleInfo@ObjEd@@@std@@@std@@QAE@XZ 0050ae80 f i Mesh.obj
 0002:00031ed0       ??0NorScaleInfo@ObjEd@@QAE@XZ 0050aed0 f i Mesh.obj
 0002:00031f90       ??1?$_Vector_iterator@UNorScaleInfo@ObjEd@@V?$allocator@UNorScaleInfo@ObjEd@@@std@@@std@@QAE@XZ 0050af90 f i Mesh.obj
 0002:00031fe0       ??0?$_Vector_const_iterator@UNorScaleInfo@ObjEd@@V?$allocator@UNorScaleInfo@ObjEd@@@std@@@std@@QAE@ABV01@@Z 0050afe0 f i Mesh.obj
 0002:00032050       ??1?$_Vector_const_iterator@UNorScaleInfo@ObjEd@@V?$allocator@UNorScaleInfo@ObjEd@@@std@@@std@@QAE@XZ 0050b050 f i Mesh.obj
 0002:000320a0       ??1?$_Vector_val@PAVEditableMeshModel@@V?$allocator@PAVEditableMeshModel@@@std@@@std@@QAE@XZ 0050b0a0 f i Mesh.obj
 0002:000320f0       ??1?$_Vector_const_iterator@PAVEditableMeshModel@@V?$allocator@PAVEditableMeshModel@@@std@@@std@@QAE@XZ 0050b0f0 f i Mesh.obj
 0002:00032140       ??1?$_Vector_iterator@PAVEditableMeshModel@@V?$allocator@PAVEditableMeshModel@@@std@@@std@@QAE@XZ 0050b140 f i Mesh.obj
 0002:00032190       ??0?$_Vector_const_iterator@PAVEditableMeshModel@@V?$allocator@PAVEditableMeshModel@@@std@@@std@@QAE@ABV01@@Z 0050b190 f i Mesh.obj
 0002:00032200       ??1?$_Vector_val@VFace@@V?$allocator@VFace@@@std@@@std@@QAE@XZ 0050b200 f i Mesh.obj
 0002:00032250       ??1?$_List_val@HV?$allocator@H@std@@@std@@QAE@XZ 0050b250 f i Mesh.obj
 0002:000322a0       ??0?$_Const_iterator@$00@?$list@HV?$allocator@H@std@@@std@@QAE@ABV012@@Z 0050b2a0 f i Mesh.obj
 0002:00032310       ??0?$_Iterator@$00@?$list@HV?$allocator@H@std@@@std@@QAE@ABV012@@Z 0050b310 f i Mesh.obj
 0002:00032370       ??4?$_Iterator@$00@?$list@HV?$allocator@H@std@@@std@@QAEAAV012@ABV012@@Z 0050b370 f i Mesh.obj
 0002:000323d0       ??1?$_Vector_val@PAVDeferredMeshModel@@V?$allocator@PAVDeferredMeshModel@@@std@@@std@@QAE@XZ 0050b3d0 f i Mesh.obj
 0002:00032420       ??1?$_Vector_const_iterator@PAVDeferredMeshModel@@V?$allocator@PAVDeferredMeshModel@@@std@@@std@@QAE@XZ 0050b420 f i Mesh.obj
 0002:00032470       ??1?$_Vector_iterator@PAVDeferredMeshModel@@V?$allocator@PAVDeferredMeshModel@@@std@@@std@@QAE@XZ 0050b470 f i Mesh.obj
 0002:000324c0       ??0?$_Vector_const_iterator@PAVDeferredMeshModel@@V?$allocator@PAVDeferredMeshModel@@@std@@@std@@QAE@ABV01@@Z 0050b4c0 f i Mesh.obj
 0002:00032530       ??1?$_Ranit@HHPBHABH@std@@QAE@XZ 0050b530 f i Mesh.obj
 0002:00032580       ??1?$_Ranit@UD3DXVECTOR3@@HPBU1@ABU1@@std@@QAE@XZ 0050b580 f i Mesh.obj
 0002:000325d0       ??0?$_Ranit@USelection@ObjEd@@HPBU12@ABU12@@std@@QAE@ABU01@@Z 0050b5d0 f i Mesh.obj
 0002:00032630       ??1?$_Ranit@VProcTex@ObjEd@@HPBV12@ABV12@@std@@QAE@XZ 0050b630 f i Mesh.obj
 0002:00032680       ??0?$_Ranit@VProcTex@ObjEd@@HPBV12@ABV12@@std@@QAE@ABU01@@Z 0050b680 f i Mesh.obj
 0002:000326e0       ??0?$_Ranit@PAVMeshComponent@@HPBQAV1@ABQAV1@@std@@QAE@ABU01@@Z 0050b6e0 f i Mesh.obj
 0002:00032740       ??1?$_Ranit@PAVMeshComponent@@HPBQAV1@ABQAV1@@std@@QAE@XZ 0050b740 f i Mesh.obj
 0002:00032790       ??0?$_Ranit@UBevelVInfo@ObjEd@@HPBU12@ABU12@@std@@QAE@ABU01@@Z 0050b790 f i Mesh.obj
 0002:000327f0       ??1?$_Ranit@UBevelVInfo@ObjEd@@HPBU12@ABU12@@std@@QAE@XZ 0050b7f0 f i Mesh.obj
 0002:00032840       ??0?$_Ranit@UExtrudeInfo@ObjEd@@HPBU12@ABU12@@std@@QAE@ABU01@@Z 0050b840 f i Mesh.obj
 0002:000328a0       ??1?$_Ranit@UExtrudeInfo@ObjEd@@HPBU12@ABU12@@std@@QAE@XZ 0050b8a0 f i Mesh.obj
 0002:000328f0       ??0?$_Ranit@UExtrudeMatrixInfo@ObjEd@@HPBU12@ABU12@@std@@QAE@ABU01@@Z 0050b8f0 f i Mesh.obj
 0002:00032950       ??1?$_Ranit@UExtrudeMatrixInfo@ObjEd@@HPBU12@ABU12@@std@@QAE@XZ 0050b950 f i Mesh.obj
 0002:000329a0       ??0?$_Ranit@UExtrudeInnerInfo@ObjEd@@HPBU12@ABU12@@std@@QAE@ABU01@@Z 0050b9a0 f i Mesh.obj
 0002:00032a00       ??1?$_Ranit@UExtrudeInnerInfo@ObjEd@@HPBU12@ABU12@@std@@QAE@XZ 0050ba00 f i Mesh.obj
 0002:00032a50       ??0?$_Ranit@UNorScaleInfo@ObjEd@@HPBU12@ABU12@@std@@QAE@ABU01@@Z 0050ba50 f i Mesh.obj
 0002:00032ab0       ??1?$_Ranit@UNorScaleInfo@ObjEd@@HPBU12@ABU12@@std@@QAE@XZ 0050bab0 f i Mesh.obj
 0002:00032b00       ??1?$_Ranit@PAVEditableMeshModel@@HPBQAV1@ABQAV1@@std@@QAE@XZ 0050bb00 f i Mesh.obj
 0002:00032b50       ??0?$_Ranit@PAVEditableMeshModel@@HPBQAV1@ABQAV1@@std@@QAE@ABU01@@Z 0050bb50 f i Mesh.obj
 0002:00032bb0       ??1?$_List_ptr@HV?$allocator@H@std@@@std@@QAE@XZ 0050bbb0 f i Mesh.obj
 0002:00032c00       ??0?$_Bidit@HHPBHABH@std@@QAE@ABU01@@Z 0050bc00 f i Mesh.obj
 0002:00032c60       ??4?$_Const_iterator@$00@?$list@HV?$allocator@H@std@@@std@@QAEAAV012@ABV012@@Z 0050bc60 f i Mesh.obj
 0002:00032cd0       ??1?$_Ranit@PAVDeferredMeshModel@@HPBQAV1@ABQAV1@@std@@QAE@XZ 0050bcd0 f i Mesh.obj
 0002:00032d20       ??0?$_Ranit@PAVDeferredMeshModel@@HPBQAV1@ABQAV1@@std@@QAE@ABU01@@Z 0050bd20 f i Mesh.obj
 0002:00032d80       ??1?$_Iterator_with_base@Urandom_access_iterator_tag@std@@HHPBHABHV_Iterator_base@2@@std@@QAE@XZ 0050bd80 f i Mesh.obj
 0002:00032dd0       ??1?$_Iterator_with_base@Urandom_access_iterator_tag@std@@UD3DXVECTOR3@@HPBU3@ABU3@V_Iterator_base@2@@std@@QAE@XZ 0050bdd0 f i Mesh.obj
 0002:00032e20       ??0?$_Iterator_with_base@Urandom_access_iterator_tag@std@@USelection@ObjEd@@HPBU34@ABU34@V_Iterator_base@2@@std@@QAE@ABU01@@Z 0050be20 f i Mesh.obj
 0002:00032e80       ??1?$_Iterator_with_base@Urandom_access_iterator_tag@std@@VProcTex@ObjEd@@HPBV34@ABV34@V_Iterator_base@2@@std@@QAE@XZ 0050be80 f i Mesh.obj
 0002:00032ed0       ??0?$_Iterator_with_base@Urandom_access_iterator_tag@std@@VProcTex@ObjEd@@HPBV34@ABV34@V_Iterator_base@2@@std@@QAE@ABU01@@Z 0050bed0 f i Mesh.obj
 0002:00032f30       ??0?$_Iterator_with_base@Urandom_access_iterator_tag@std@@PAVMeshComponent@@HPBQAV3@ABQAV3@V_Iterator_base@2@@std@@QAE@ABU01@@Z 0050bf30 f i Mesh.obj
 0002:00032f90       ??1?$_Iterator_with_base@Urandom_access_iterator_tag@std@@PAVMeshComponent@@HPBQAV3@ABQAV3@V_Iterator_base@2@@std@@QAE@XZ 0050bf90 f i Mesh.obj
 0002:00032fe0       ??0?$_Iterator_with_base@Urandom_access_iterator_tag@std@@UBevelVInfo@ObjEd@@HPBU34@ABU34@V_Iterator_base@2@@std@@QAE@ABU01@@Z 0050bfe0 f i Mesh.obj
 0002:00033040       ??1?$_Iterator_with_base@Urandom_access_iterator_tag@std@@UBevelVInfo@ObjEd@@HPBU34@ABU34@V_Iterator_base@2@@std@@QAE@XZ 0050c040 f i Mesh.obj
 0002:00033090       ??0?$_Iterator_with_base@Urandom_access_iterator_tag@std@@UExtrudeInfo@ObjEd@@HPBU34@ABU34@V_Iterator_base@2@@std@@QAE@ABU01@@Z 0050c090 f i Mesh.obj
 0002:000330f0       ??1?$_Iterator_with_base@Urandom_access_iterator_tag@std@@UExtrudeInfo@ObjEd@@HPBU34@ABU34@V_Iterator_base@2@@std@@QAE@XZ 0050c0f0 f i Mesh.obj
 0002:00033140       ??0?$_Iterator_with_base@Urandom_access_iterator_tag@std@@UExtrudeMatrixInfo@ObjEd@@HPBU34@ABU34@V_Iterator_base@2@@std@@QAE@ABU01@@Z 0050c140 f i Mesh.obj
 0002:000331a0       ??1?$_Iterator_with_base@Urandom_access_iterator_tag@std@@UExtrudeMatrixInfo@ObjEd@@HPBU34@ABU34@V_Iterator_base@2@@std@@QAE@XZ 0050c1a0 f i Mesh.obj
 0002:000331f0       ??0?$_Iterator_with_base@Urandom_access_iterator_tag@std@@UExtrudeInnerInfo@ObjEd@@HPBU34@ABU34@V_Iterator_base@2@@std@@QAE@ABU01@@Z 0050c1f0 f i Mesh.obj
 0002:00033250       ??1?$_Iterator_with_base@Urandom_access_iterator_tag@std@@UExtrudeInnerInfo@ObjEd@@HPBU34@ABU34@V_Iterator_base@2@@std@@QAE@XZ 0050c250 f i Mesh.obj
 0002:000332a0       ??0?$_Iterator_with_base@Urandom_access_iterator_tag@std@@UNorScaleInfo@ObjEd@@HPBU34@ABU34@V_Iterator_base@2@@std@@QAE@ABU01@@Z 0050c2a0 f i Mesh.obj
 0002:00033300       ??1?$_Iterator_with_base@Urandom_access_iterator_tag@std@@UNorScaleInfo@ObjEd@@HPBU34@ABU34@V_Iterator_base@2@@std@@QAE@XZ 0050c300 f i Mesh.obj
 0002:00033350       ??1?$_Iterator_with_base@Urandom_access_iterator_tag@std@@PAVEditableMeshModel@@HPBQAV3@ABQAV3@V_Iterator_base@2@@std@@QAE@XZ 0050c350 f i Mesh.obj
 0002:000333a0       ??0?$_Iterator_with_base@Urandom_access_iterator_tag@std@@PAVEditableMeshModel@@HPBQAV3@ABQAV3@V_Iterator_base@2@@std@@QAE@ABU01@@Z 0050c3a0 f i Mesh.obj
 0002:00033400       ??1?$_List_nod@HV?$allocator@H@std@@@std@@QAE@XZ 0050c400 f i Mesh.obj
 0002:00033450       ??0?$_Iterator_with_base@Ubidirectional_iterator_tag@std@@HHPBHABHV_Iterator_base@2@@std@@QAE@ABU01@@Z 0050c450 f i Mesh.obj
 0002:000334b0       ??4?$_Bidit@HHPBHABH@std@@QAEAAU01@ABU01@@Z 0050c4b0 f i Mesh.obj
 0002:00033510       ??1?$_Iterator_with_base@Urandom_access_iterator_tag@std@@PAVDeferredMeshModel@@HPBQAV3@ABQAV3@V_Iterator_base@2@@std@@QAE@XZ 0050c510 f i Mesh.obj
 0002:00033560       ??0?$_Iterator_with_base@Urandom_access_iterator_tag@std@@PAVDeferredMeshModel@@HPBQAV3@ABQAV3@V_Iterator_base@2@@std@@QAE@ABU01@@Z 0050c560 f i Mesh.obj
 0002:000335c0       ??4?$_Iterator_with_base@Ubidirectional_iterator_tag@std@@HHPBHABHV_Iterator_base@2@@std@@QAEAAU01@ABU01@@Z 0050c5c0 f i Mesh.obj
 0002:00033620       ?capacity@?$vector@HV?$allocator@H@std@@@std@@QBEIXZ 0050c620 f i Mesh.obj
 0002:00033690       ?begin@?$vector@HV?$allocator@H@std@@@std@@QBE?AV?$_Vector_const_iterator@HV?$allocator@H@std@@@2@XZ 0050c690 f i Mesh.obj
 0002:00033720       ?end@?$vector@HV?$allocator@H@std@@@std@@QBE?AV?$_Vector_const_iterator@HV?$allocator@H@std@@@2@XZ 0050c720 f i Mesh.obj
 0002:000337b0       ?clear@?$vector@HV?$allocator@H@std@@@std@@QAEXXZ 0050c7b0 f i Mesh.obj
 0002:00033940       ?_Buy@?$vector@HV?$allocator@H@std@@@std@@IAE_NI@Z 0050c940 f i Mesh.obj
 0002:00033a20       ??0?$_Vector_val@HV?$allocator@H@std@@@std@@IAE@V?$allocator@H@1@@Z 0050ca20 f i Mesh.obj
 0002:00033aa0       ??0?$allocator@H@std@@QAE@XZ 0050caa0 f i Mesh.obj
 0002:00033ae0       ??0?$allocator@H@std@@QAE@ABV01@@Z 0050cae0 f i Mesh.obj
 0002:00033b20       ?capacity@?$vector@UD3DXVECTOR3@@V?$allocator@UD3DXVECTOR3@@@std@@@std@@QBEIXZ 0050cb20 f i Mesh.obj
 0002:00033ba0       ?begin@?$vector@UD3DXVECTOR3@@V?$allocator@UD3DXVECTOR3@@@std@@@std@@QBE?AV?$_Vector_const_iterator@UD3DXVECTOR3@@V?$allocator@UD3DXVECTOR3@@@std@@@2@XZ 0050cba0 f i Mesh.obj
 0002:00033c30       ?end@?$vector@UD3DXVECTOR3@@V?$allocator@UD3DXVECTOR3@@@std@@@std@@QBE?AV?$_Vector_const_iterator@UD3DXVECTOR3@@V?$allocator@UD3DXVECTOR3@@@std@@@2@XZ 0050cc30 f i Mesh.obj
 0002:00033cc0       ?size@?$vector@UD3DXVECTOR3@@V?$allocator@UD3DXVECTOR3@@@std@@@std@@QBEIXZ 0050ccc0 f i Mesh.obj
 0002:00033d10       ?clear@?$vector@UD3DXVECTOR3@@V?$allocator@UD3DXVECTOR3@@@std@@@std@@QAEXXZ 0050cd10 f i Mesh.obj
 0002:00033ea0       ?_Buy@?$vector@UD3DXVECTOR3@@V?$allocator@UD3DXVECTOR3@@@std@@@std@@IAE_NI@Z 0050cea0 f i Mesh.obj
 0002:00033f80       ?_Destroy@?$vector@UD3DXVECTOR3@@V?$allocator@UD3DXVECTOR3@@@std@@@std@@IAEXPAUD3DXVECTOR3@@0@Z 0050cf80 f i Mesh.obj
 0002:00033ff0       ?_Tidy@?$vector@UD3DXVECTOR3@@V?$allocator@UD3DXVECTOR3@@@std@@@std@@IAEXXZ 0050cff0 f i Mesh.obj
 0002:000340d0       ??0?$_Vector_val@UD3DXVECTOR3@@V?$allocator@UD3DXVECTOR3@@@std@@@std@@IAE@V?$allocator@UD3DXVECTOR3@@@1@@Z 0050d0d0 f i Mesh.obj
 0002:00034150       ??1?$_Container_base_aux_alloc_empty@V?$allocator@UD3DXVECTOR3@@@std@@@std@@IAE@XZ 0050d150 f i Mesh.obj
 0002:000341b0       ??0?$allocator@UD3DXVECTOR3@@@std@@QAE@XZ 0050d1b0 f i Mesh.obj
 0002:000341f0       ??0?$allocator@UD3DXVECTOR3@@@std@@QAE@ABV01@@Z 0050d1f0 f i Mesh.obj
 0002:00034230       ?deallocate@?$allocator@UD3DXVECTOR3@@@std@@QAEXPAUD3DXVECTOR3@@I@Z 0050d230 f i Mesh.obj
 0002:00034290       ??0?$vector@V?$vector@PAVHE_vert@@V?$allocator@PAVHE_vert@@@std@@@std@@V?$allocator@V?$vector@PAVHE_vert@@V?$allocator@PAVHE_vert@@@std@@@std@@@2@@std@@QAE@XZ 0050d290 f i Mesh.obj
 0002:00034350       ?capacity@?$vector@V?$vector@PAVHE_vert@@V?$allocator@PAVHE_vert@@@std@@@std@@V?$allocator@V?$vector@PAVHE_vert@@V?$allocator@PAVHE_vert@@@std@@@std@@@2@@std@@QBEIXZ 0050d350 f i Mesh.obj
 0002:000343d0       ?size@?$vector@V?$vector@PAVHE_vert@@V?$allocator@PAVHE_vert@@@std@@@std@@V?$allocator@V?$vector@PAVHE_vert@@V?$allocator@PAVHE_vert@@@std@@@std@@@2@@std@@QBEIXZ 0050d3d0 f i Mesh.obj
 0002:00034420       ?clear@?$vector@V?$vector@PAVHE_vert@@V?$allocator@PAVHE_vert@@@std@@@std@@V?$allocator@V?$vector@PAVHE_vert@@V?$allocator@PAVHE_vert@@@std@@@std@@@2@@std@@QAEXXZ 0050d420 f i Mesh.obj
 0002:000345b0       ?_Buy@?$vector@V?$vector@PAVHE_vert@@V?$allocator@PAVHE_vert@@@std@@@std@@V?$allocator@V?$vector@PAVHE_vert@@V?$allocator@PAVHE_vert@@@std@@@std@@@2@@std@@IAE_NI@Z 0050d5b0 f i Mesh.obj
 0002:00034690       ?_Destroy@?$vector@V?$vector@PAVHE_vert@@V?$allocator@PAVHE_vert@@@std@@@std@@V?$allocator@V?$vector@PAVHE_vert@@V?$allocator@PAVHE_vert@@@std@@@std@@@2@@std@@IAEXPAV?$vector@PAVHE_vert@@V?$allocator@PAVHE_vert@@@std@@@2@0@Z 0050d690 f i Mesh.obj
 0002:00034700       ?_Tidy@?$vector@V?$vector@PAVHE_vert@@V?$allocator@PAVHE_vert@@@std@@@std@@V?$allocator@V?$vector@PAVHE_vert@@V?$allocator@PAVHE_vert@@@std@@@std@@@2@@std@@IAEXXZ 0050d700 f i Mesh.obj
 0002:000347e0       ??1?$_Container_base_aux_alloc_empty@V?$allocator@V?$vector@PAVHE_vert@@V?$allocator@PAVHE_vert@@@std@@@std@@@std@@@std@@IAE@XZ 0050d7e0 f i Mesh.obj
 0002:00034840       ?deallocate@?$allocator@V?$vector@PAVHE_vert@@V?$allocator@PAVHE_vert@@@std@@@std@@@std@@QAEXPAV?$vector@PAVHE_vert@@V?$allocator@PAVHE_vert@@@std@@@2@I@Z 0050d840 f i Mesh.obj
 0002:000348a0       ?capacity@?$vector@PAVHE_vert@@V?$allocator@PAVHE_vert@@@std@@@std@@QBEIXZ 0050d8a0 f i Mesh.obj
 0002:00034910       ?size@?$vector@PAVHE_vert@@V?$allocator@PAVHE_vert@@@std@@@std@@QBEIXZ 0050d910 f i Mesh.obj
 0002:00034960       ?clear@?$vector@PAVHE_vert@@V?$allocator@PAVHE_vert@@@std@@@std@@QAEXXZ 0050d960 f i Mesh.obj
 0002:00034af0       ?_Buy@?$vector@PAVHE_vert@@V?$allocator@PAVHE_vert@@@std@@@std@@IAE_NI@Z 0050daf0 f i Mesh.obj
 0002:00034bd0       ?_Destroy@?$vector@PAVHE_vert@@V?$allocator@PAVHE_vert@@@std@@@std@@IAEXPAPAVHE_vert@@0@Z 0050dbd0 f i Mesh.obj
 0002:00034c40       ?_Tidy@?$vector@PAVHE_vert@@V?$allocator@PAVHE_vert@@@std@@@std@@IAEXXZ 0050dc40 f i Mesh.obj
 0002:00034d20       ??0?$_Vector_val@PAVHE_vert@@V?$allocator@PAVHE_vert@@@std@@@std@@IAE@V?$allocator@PAVHE_vert@@@1@@Z 0050dd20 f i Mesh.obj
 0002:00034da0       ??1?$_Container_base_aux_alloc_empty@V?$allocator@PAVHE_vert@@@std@@@std@@IAE@XZ 0050dda0 f i Mesh.obj
 0002:00034e00       ??0?$allocator@PAVHE_vert@@@std@@QAE@XZ 0050de00 f i Mesh.obj
 0002:00034e40       ?deallocate@?$allocator@PAVHE_vert@@@std@@QAEXPAPAVHE_vert@@I@Z 0050de40 f i Mesh.obj
 0002:00034ea0       ?capacity@?$vector@USelection@ObjEd@@V?$allocator@USelection@ObjEd@@@std@@@std@@QBEIXZ 0050dea0 f i Mesh.obj
 0002:00034f20       ?begin@?$vector@USelection@ObjEd@@V?$allocator@USelection@ObjEd@@@std@@@std@@QAE?AV?$_Vector_iterator@USelection@ObjEd@@V?$allocator@USelection@ObjEd@@@std@@@2@XZ 0050df20 f i Mesh.obj
 0002:00034fb0       ?end@?$vector@USelection@ObjEd@@V?$allocator@USelection@ObjEd@@@std@@@std@@QAE?AV?$_Vector_iterator@USelection@ObjEd@@V?$allocator@USelection@ObjEd@@@std@@@2@XZ 0050dfb0 f i Mesh.obj
 0002:00035040       ?insert@?$vector@USelection@ObjEd@@V?$allocator@USelection@ObjEd@@@std@@@std@@QAE?AV?$_Vector_iterator@USelection@ObjEd@@V?$allocator@USelection@ObjEd@@@std@@@2@V?$_Vector_const_iterator@USelection@ObjEd@@V?$allocator@USelection@ObjEd@@@std@@@2@ABUSelection@ObjEd@@@Z 0050e040 f i Mesh.obj
 0002:00035240       ?erase@?$vector@USelection@ObjEd@@V?$allocator@USelection@ObjEd@@@std@@@std@@QAE?AV?$_Vector_iterator@USelection@ObjEd@@V?$allocator@USelection@ObjEd@@@std@@@2@V?$_Vector_const_iterator@USelection@ObjEd@@V?$allocator@USelection@ObjEd@@@std@@@2@0@Z 0050e240 f i Mesh.obj
 0002:000354e0       ?_Buy@?$vector@USelection@ObjEd@@V?$allocator@USelection@ObjEd@@@std@@@std@@IAE_NI@Z 0050e4e0 f i Mesh.obj
 0002:000355c0       ?_Destroy@?$vector@USelection@ObjEd@@V?$allocator@USelection@ObjEd@@@std@@@std@@IAEXPAUSelection@ObjEd@@0@Z 0050e5c0 f i Mesh.obj
 0002:00035630       ?_Tidy@?$vector@USelection@ObjEd@@V?$allocator@USelection@ObjEd@@@std@@@std@@IAEXXZ 0050e630 f i Mesh.obj
 0002:00035710       ?_Ufill@?$vector@USelection@ObjEd@@V?$allocator@USelection@ObjEd@@@std@@@std@@IAEPAUSelection@ObjEd@@PAU34@IABU34@@Z 0050e710 f i Mesh.obj
 0002:00035790       ?_Orphan_range@?$vector@USelection@ObjEd@@V?$allocator@USelection@ObjEd@@@std@@@std@@IBEXPAUSelection@ObjEd@@0@Z 0050e790 f i Mesh.obj
 0002:000358a0       ??0?$_Vector_val@USelection@ObjEd@@V?$allocator@USelection@ObjEd@@@std@@@std@@IAE@V?$allocator@USelection@ObjEd@@@1@@Z 0050e8a0 f i Mesh.obj
 0002:00035920       ??1?$_Container_base_aux_alloc_empty@V?$allocator@USelection@ObjEd@@@std@@@std@@IAE@XZ 0050e920 f i Mesh.obj
 0002:00035980       ??0?$allocator@USelection@ObjEd@@@std@@QAE@XZ 0050e980 f i Mesh.obj
 0002:000359c0       ??0?$allocator@USelection@ObjEd@@@std@@QAE@ABV01@@Z 0050e9c0 f i Mesh.obj
 0002:00035a00       ?deallocate@?$allocator@USelection@ObjEd@@@std@@QAEXPAUSelection@ObjEd@@I@Z 0050ea00 f i Mesh.obj
 0002:00035a60       ??0?$_Vector_const_iterator@USelection@ObjEd@@V?$allocator@USelection@ObjEd@@@std@@@std@@QAE@PAUSelection@ObjEd@@PBV_Container_base_secure@1@@Z 0050ea60 f i Mesh.obj
 0002:00035ba0       ?capacity@?$vector@UEdgeIntersection@ObjEd@@V?$allocator@UEdgeIntersection@ObjEd@@@std@@@std@@QBEIXZ 0050eba0 f i Mesh.obj
 0002:00035c10       ?size@?$vector@UEdgeIntersection@ObjEd@@V?$allocator@UEdgeIntersection@ObjEd@@@std@@@std@@QBEIXZ 0050ec10 f i Mesh.obj
 0002:00035c60       ?clear@?$vector@UEdgeIntersection@ObjEd@@V?$allocator@UEdgeIntersection@ObjEd@@@std@@@std@@QAEXXZ 0050ec60 f i Mesh.obj
 0002:00035df0       ?_Buy@?$vector@UEdgeIntersection@ObjEd@@V?$allocator@UEdgeIntersection@ObjEd@@@std@@@std@@IAE_NI@Z 0050edf0 f i Mesh.obj
 0002:00035ed0       ?_Destroy@?$vector@UEdgeIntersection@ObjEd@@V?$allocator@UEdgeIntersection@ObjEd@@@std@@@std@@IAEXPAUEdgeIntersection@ObjEd@@0@Z 0050eed0 f i Mesh.obj
 0002:00035f40       ?_Tidy@?$vector@UEdgeIntersection@ObjEd@@V?$allocator@UEdgeIntersection@ObjEd@@@std@@@std@@IAEXXZ 0050ef40 f i Mesh.obj
 0002:00036020       ??0?$_Vector_val@UEdgeIntersection@ObjEd@@V?$allocator@UEdgeIntersection@ObjEd@@@std@@@std@@IAE@V?$allocator@UEdgeIntersection@ObjEd@@@1@@Z 0050f020 f i Mesh.obj
 0002:000360a0       ??1?$_Container_base_aux_alloc_empty@V?$allocator@UEdgeIntersection@ObjEd@@@std@@@std@@IAE@XZ 0050f0a0 f i Mesh.obj
 0002:00036100       ??0?$allocator@UEdgeIntersection@ObjEd@@@std@@QAE@XZ 0050f100 f i Mesh.obj
 0002:00036140       ?deallocate@?$allocator@UEdgeIntersection@ObjEd@@@std@@QAEXPAUEdgeIntersection@ObjEd@@I@Z 0050f140 f i Mesh.obj
 0002:000361a0       ?begin@?$vector@_NV?$allocator@_N@std@@@std@@QBE?AV?$_Vb_const_iterator@IHV?$vector@_NV?$allocator@_N@std@@@std@@@2@XZ 0050f1a0 f i Mesh.obj
 0002:000362b0       ?end@?$vector@_NV?$allocator@_N@std@@@std@@QAE?AV?$_Vb_iterator@IHV?$vector@_NV?$allocator@_N@std@@@std@@@2@XZ 0050f2b0 f i Mesh.obj
 0002:000363e0       ?erase@?$vector@_NV?$allocator@_N@std@@@std@@QAE?AV?$_Vb_iterator@IHV?$vector@_NV?$allocator@_N@std@@@std@@@2@V?$_Vb_const_iterator@IHV?$vector@_NV?$allocator@_N@std@@@std@@@2@0@Z 0050f3e0 f i Mesh.obj
 0002:00036890       ?_Insert_n@?$vector@_NV?$allocator@_N@std@@@std@@IAEXV?$_Vb_const_iterator@IHV?$vector@_NV?$allocator@_N@std@@@std@@@2@I_N@Z 0050f890 f i Mesh.obj
 0002:00036a70       ??0?$vector@IV?$allocator@I@std@@@std@@QAE@XZ 0050fa70 f i Mesh.obj
 0002:00036b30       ?capacity@?$vector@VProcTex@ObjEd@@V?$allocator@VProcTex@ObjEd@@@std@@@std@@QBEIXZ 0050fb30 f i Mesh.obj
 0002:00036bb0       ?begin@?$vector@VProcTex@ObjEd@@V?$allocator@VProcTex@ObjEd@@@std@@@std@@QAE?AV?$_Vector_iterator@VProcTex@ObjEd@@V?$allocator@VProcTex@ObjEd@@@std@@@2@XZ 0050fbb0 f i Mesh.obj
 0002:00036c40       ?begin@?$vector@VProcTex@ObjEd@@V?$allocator@VProcTex@ObjEd@@@std@@@std@@QBE?AV?$_Vector_const_iterator@VProcTex@ObjEd@@V?$allocator@VProcTex@ObjEd@@@std@@@2@XZ 0050fc40 f i Mesh.obj
 0002:00036cd0       ?end@?$vector@VProcTex@ObjEd@@V?$allocator@VProcTex@ObjEd@@@std@@@std@@QAE?AV?$_Vector_iterator@VProcTex@ObjEd@@V?$allocator@VProcTex@ObjEd@@@std@@@2@XZ 0050fcd0 f i Mesh.obj
 0002:00036d60       ?end@?$vector@VProcTex@ObjEd@@V?$allocator@VProcTex@ObjEd@@@std@@@std@@QBE?AV?$_Vector_const_iterator@VProcTex@ObjEd@@V?$allocator@VProcTex@ObjEd@@@std@@@2@XZ 0050fd60 f i Mesh.obj
 0002:00036df0       ?resize@?$vector@VProcTex@ObjEd@@V?$allocator@VProcTex@ObjEd@@@std@@@std@@QAEXIVProcTex@ObjEd@@@Z 0050fdf0 f i Mesh.obj
 0002:000370d0       ??1ProcTex@ObjEd@@QAE@XZ   005100d0 f i Mesh.obj
 0002:00037140       ?erase@?$vector@VProcTex@ObjEd@@V?$allocator@VProcTex@ObjEd@@@std@@@std@@QAE?AV?$_Vector_iterator@VProcTex@ObjEd@@V?$allocator@VProcTex@ObjEd@@@std@@@2@V?$_Vector_const_iterator@VProcTex@ObjEd@@V?$allocator@VProcTex@ObjEd@@@std@@@2@0@Z 00510140 f i Mesh.obj
 0002:000373e0       ?_Buy@?$vector@VProcTex@ObjEd@@V?$allocator@VProcTex@ObjEd@@@std@@@std@@IAE_NI@Z 005103e0 f i Mesh.obj
 0002:000374c0       ?_Destroy@?$vector@VProcTex@ObjEd@@V?$allocator@VProcTex@ObjEd@@@std@@@std@@IAEXPAVProcTex@ObjEd@@0@Z 005104c0 f i Mesh.obj
 0002:00037530       ?_Tidy@?$vector@VProcTex@ObjEd@@V?$allocator@VProcTex@ObjEd@@@std@@@std@@IAEXXZ 00510530 f i Mesh.obj
 0002:00037610       ??0?$_Vector_val@VProcTex@ObjEd@@V?$allocator@VProcTex@ObjEd@@@std@@@std@@IAE@V?$allocator@VProcTex@ObjEd@@@1@@Z 00510610 f i Mesh.obj
 0002:00037690       ??1?$_Container_base_aux_alloc_empty@V?$allocator@VProcTex@ObjEd@@@std@@@std@@IAE@XZ 00510690 f i Mesh.obj
 0002:000376f0       ??0?$allocator@VProcTex@ObjEd@@@std@@QAE@XZ 005106f0 f i Mesh.obj
 0002:00037730       ??0?$allocator@VProcTex@ObjEd@@@std@@QAE@ABV01@@Z 00510730 f i Mesh.obj
 0002:00037770       ?deallocate@?$allocator@VProcTex@ObjEd@@@std@@QAEXPAVProcTex@ObjEd@@I@Z 00510770 f i Mesh.obj
 0002:000377d0       ?begin@?$vector@PAVMeshComponent@@V?$allocator@PAVMeshComponent@@@std@@@std@@QAE?AV?$_Vector_iterator@PAVMeshComponent@@V?$allocator@PAVMeshComponent@@@std@@@2@XZ 005107d0 f i Mesh.obj
 0002:00037860       ?end@?$vector@PAVMeshComponent@@V?$allocator@PAVMeshComponent@@@std@@@std@@QAE?AV?$_Vector_iterator@PAVMeshComponent@@V?$allocator@PAVMeshComponent@@@std@@@2@XZ 00510860 f i Mesh.obj
 0002:000378f0       ?resize@?$vector@PAVMeshComponent@@V?$allocator@PAVMeshComponent@@@std@@@std@@QAEXIPAVMeshComponent@@@Z 005108f0 f i Mesh.obj
 0002:00037b90       ?erase@?$vector@PAVMeshComponent@@V?$allocator@PAVMeshComponent@@@std@@@std@@QAE?AV?$_Vector_iterator@PAVMeshComponent@@V?$allocator@PAVMeshComponent@@@std@@@2@V?$_Vector_const_iterator@PAVMeshComponent@@V?$allocator@PAVMeshComponent@@@std@@@2@0@Z 00510b90 f i Mesh.obj
 0002:00037e30       ?_Buy@?$vector@PAVMeshComponent@@V?$allocator@PAVMeshComponent@@@std@@@std@@IAE_NI@Z 00510e30 f i Mesh.obj
 0002:00037f10       ?_Tidy@?$vector@PAVMeshComponent@@V?$allocator@PAVMeshComponent@@@std@@@std@@IAEXXZ 00510f10 f i Mesh.obj
 0002:00037ff0       ??0?$_Vector_val@PAVMeshComponent@@V?$allocator@PAVMeshComponent@@@std@@@std@@IAE@V?$allocator@PAVMeshComponent@@@1@@Z 00510ff0 f i Mesh.obj
 0002:00038070       ??1?$_Container_base_aux_alloc_empty@V?$allocator@PAVMeshComponent@@@std@@@std@@IAE@XZ 00511070 f i Mesh.obj
 0002:000380d0       ??0?$allocator@PAVMeshComponent@@@std@@QAE@XZ 005110d0 f i Mesh.obj
 0002:00038110       ?begin@?$vector@UBevelVInfo@ObjEd@@V?$allocator@UBevelVInfo@ObjEd@@@std@@@std@@QAE?AV?$_Vector_iterator@UBevelVInfo@ObjEd@@V?$allocator@UBevelVInfo@ObjEd@@@std@@@2@XZ 00511110 f i Mesh.obj
 0002:000381a0       ?end@?$vector@UBevelVInfo@ObjEd@@V?$allocator@UBevelVInfo@ObjEd@@@std@@@std@@QAE?AV?$_Vector_iterator@UBevelVInfo@ObjEd@@V?$allocator@UBevelVInfo@ObjEd@@@std@@@2@XZ 005111a0 f i Mesh.obj
 0002:00038230       ?resize@?$vector@UBevelVInfo@ObjEd@@V?$allocator@UBevelVInfo@ObjEd@@@std@@@std@@QAEXIUBevelVInfo@ObjEd@@@Z 00511230 f i Mesh.obj
 0002:000384d0       ?size@?$vector@UBevelVInfo@ObjEd@@V?$allocator@UBevelVInfo@ObjEd@@@std@@@std@@QBEIXZ 005114d0 f i Mesh.obj
 0002:00038520       ?erase@?$vector@UBevelVInfo@ObjEd@@V?$allocator@UBevelVInfo@ObjEd@@@std@@@std@@QAE?AV?$_Vector_iterator@UBevelVInfo@ObjEd@@V?$allocator@UBevelVInfo@ObjEd@@@std@@@2@V?$_Vector_const_iterator@UBevelVInfo@ObjEd@@V?$allocator@UBevelVInfo@ObjEd@@@std@@@2@0@Z 00511520 f i Mesh.obj
 0002:000387c0       ?_Buy@?$vector@UBevelVInfo@ObjEd@@V?$allocator@UBevelVInfo@ObjEd@@@std@@@std@@IAE_NI@Z 005117c0 f i Mesh.obj
 0002:000388a0       ?_Tidy@?$vector@UBevelVInfo@ObjEd@@V?$allocator@UBevelVInfo@ObjEd@@@std@@@std@@IAEXXZ 005118a0 f i Mesh.obj
 0002:00038980       ??0?$_Vector_val@UBevelVInfo@ObjEd@@V?$allocator@UBevelVInfo@ObjEd@@@std@@@std@@IAE@V?$allocator@UBevelVInfo@ObjEd@@@1@@Z 00511980 f i Mesh.obj
 0002:00038a00       ??1?$_Container_base_aux_alloc_empty@V?$allocator@UBevelVInfo@ObjEd@@@std@@@std@@IAE@XZ 00511a00 f i Mesh.obj
 0002:00038a60       ??0?$allocator@UBevelVInfo@ObjEd@@@std@@QAE@XZ 00511a60 f i Mesh.obj
 0002:00038aa0       ?begin@?$vector@UExtrudeInfo@ObjEd@@V?$allocator@UExtrudeInfo@ObjEd@@@std@@@std@@QAE?AV?$_Vector_iterator@UExtrudeInfo@ObjEd@@V?$allocator@UExtrudeInfo@ObjEd@@@std@@@2@XZ 00511aa0 f i Mesh.obj
 0002:00038b30       ?end@?$vector@UExtrudeInfo@ObjEd@@V?$allocator@UExtrudeInfo@ObjEd@@@std@@@std@@QAE?AV?$_Vector_iterator@UExtrudeInfo@ObjEd@@V?$allocator@UExtrudeInfo@ObjEd@@@std@@@2@XZ 00511b30 f i Mesh.obj
 0002:00038bc0       ?resize@?$vector@UExtrudeInfo@ObjEd@@V?$allocator@UExtrudeInfo@ObjEd@@@std@@@std@@QAEXIUExtrudeInfo@ObjEd@@@Z 00511bc0 f i Mesh.obj
 0002:00038e60       ?size@?$vector@UExtrudeInfo@ObjEd@@V?$allocator@UExtrudeInfo@ObjEd@@@std@@@std@@QBEIXZ 00511e60 f i Mesh.obj
 0002:00038eb0       ?erase@?$vector@UExtrudeInfo@ObjEd@@V?$allocator@UExtrudeInfo@ObjEd@@@std@@@std@@QAE?AV?$_Vector_iterator@UExtrudeInfo@ObjEd@@V?$allocator@UExtrudeInfo@ObjEd@@@std@@@2@V?$_Vector_const_iterator@UExtrudeInfo@ObjEd@@V?$allocator@UExtrudeInfo@ObjEd@@@std@@@2@0@Z 00511eb0 f i Mesh.obj
 0002:00039150       ?_Buy@?$vector@UExtrudeInfo@ObjEd@@V?$allocator@UExtrudeInfo@ObjEd@@@std@@@std@@IAE_NI@Z 00512150 f i Mesh.obj
 0002:00039230       ?_Tidy@?$vector@UExtrudeInfo@ObjEd@@V?$allocator@UExtrudeInfo@ObjEd@@@std@@@std@@IAEXXZ 00512230 f i Mesh.obj
 0002:00039310       ??0?$_Vector_val@UExtrudeInfo@ObjEd@@V?$allocator@UExtrudeInfo@ObjEd@@@std@@@std@@IAE@V?$allocator@UExtrudeInfo@ObjEd@@@1@@Z 00512310 f i Mesh.obj
 0002:00039390       ??1?$_Container_base_aux_alloc_empty@V?$allocator@UExtrudeInfo@ObjEd@@@std@@@std@@IAE@XZ 00512390 f i Mesh.obj
 0002:000393f0       ??0?$allocator@UExtrudeInfo@ObjEd@@@std@@QAE@XZ 005123f0 f i Mesh.obj
 0002:00039430       ?begin@?$vector@UExtrudeMatrixInfo@ObjEd@@V?$allocator@UExtrudeMatrixInfo@ObjEd@@@std@@@std@@QAE?AV?$_Vector_iterator@UExtrudeMatrixInfo@ObjEd@@V?$allocator@UExtrudeMatrixInfo@ObjEd@@@std@@@2@XZ 00512430 f i Mesh.obj
 0002:000394c0       ?end@?$vector@UExtrudeMatrixInfo@ObjEd@@V?$allocator@UExtrudeMatrixInfo@ObjEd@@@std@@@std@@QAE?AV?$_Vector_iterator@UExtrudeMatrixInfo@ObjEd@@V?$allocator@UExtrudeMatrixInfo@ObjEd@@@std@@@2@XZ 005124c0 f i Mesh.obj
 0002:00039550       ?resize@?$vector@UExtrudeMatrixInfo@ObjEd@@V?$allocator@UExtrudeMatrixInfo@ObjEd@@@std@@@std@@QAEXIUExtrudeMatrixInfo@ObjEd@@@Z 00512550 f i Mesh.obj
 0002:000397f0       ?size@?$vector@UExtrudeMatrixInfo@ObjEd@@V?$allocator@UExtrudeMatrixInfo@ObjEd@@@std@@@std@@QBEIXZ 005127f0 f i Mesh.obj
 0002:00039840       ?erase@?$vector@UExtrudeMatrixInfo@ObjEd@@V?$allocator@UExtrudeMatrixInfo@ObjEd@@@std@@@std@@QAE?AV?$_Vector_iterator@UExtrudeMatrixInfo@ObjEd@@V?$allocator@UExtrudeMatrixInfo@ObjEd@@@std@@@2@V?$_Vector_const_iterator@UExtrudeMatrixInfo@ObjEd@@V?$allocator@UExtrudeMatrixInfo@ObjEd@@@std@@@2@0@Z 00512840 f i Mesh.obj
 0002:00039ae0       ?_Buy@?$vector@UExtrudeMatrixInfo@ObjEd@@V?$allocator@UExtrudeMatrixInfo@ObjEd@@@std@@@std@@IAE_NI@Z 00512ae0 f i Mesh.obj
 0002:00039bc0       ?_Tidy@?$vector@UExtrudeMatrixInfo@ObjEd@@V?$allocator@UExtrudeMatrixInfo@ObjEd@@@std@@@std@@IAEXXZ 00512bc0 f i Mesh.obj
 0002:00039ca0       ??0?$_Vector_val@UExtrudeMatrixInfo@ObjEd@@V?$allocator@UExtrudeMatrixInfo@ObjEd@@@std@@@std@@IAE@V?$allocator@UExtrudeMatrixInfo@ObjEd@@@1@@Z 00512ca0 f i Mesh.obj
 0002:00039d20       ??1?$_Container_base_aux_alloc_empty@V?$allocator@UExtrudeMatrixInfo@ObjEd@@@std@@@std@@IAE@XZ 00512d20 f i Mesh.obj
 0002:00039d80       ??0?$allocator@UExtrudeMatrixInfo@ObjEd@@@std@@QAE@XZ 00512d80 f i Mesh.obj
 0002:00039dc0       ?begin@?$vector@UExtrudeInnerInfo@ObjEd@@V?$allocator@UExtrudeInnerInfo@ObjEd@@@std@@@std@@QAE?AV?$_Vector_iterator@UExtrudeInnerInfo@ObjEd@@V?$allocator@UExtrudeInnerInfo@ObjEd@@@std@@@2@XZ 00512dc0 f i Mesh.obj
 0002:00039e50       ?end@?$vector@UExtrudeInnerInfo@ObjEd@@V?$allocator@UExtrudeInnerInfo@ObjEd@@@std@@@std@@QAE?AV?$_Vector_iterator@UExtrudeInnerInfo@ObjEd@@V?$allocator@UExtrudeInnerInfo@ObjEd@@@std@@@2@XZ 00512e50 f i Mesh.obj
 0002:00039ee0       ?resize@?$vector@UExtrudeInnerInfo@ObjEd@@V?$allocator@UExtrudeInnerInfo@ObjEd@@@std@@@std@@QAEXIUExtrudeInnerInfo@ObjEd@@@Z 00512ee0 f i Mesh.obj
 0002:0003a180       ?size@?$vector@UExtrudeInnerInfo@ObjEd@@V?$allocator@UExtrudeInnerInfo@ObjEd@@@std@@@std@@QBEIXZ 00513180 f i Mesh.obj
 0002:0003a1d0       ?erase@?$vector@UExtrudeInnerInfo@ObjEd@@V?$allocator@UExtrudeInnerInfo@ObjEd@@@std@@@std@@QAE?AV?$_Vector_iterator@UExtrudeInnerInfo@ObjEd@@V?$allocator@UExtrudeInnerInfo@ObjEd@@@std@@@2@V?$_Vector_const_iterator@UExtrudeInnerInfo@ObjEd@@V?$allocator@UExtrudeInnerInfo@ObjEd@@@std@@@2@0@Z 005131d0 f i Mesh.obj
 0002:0003a470       ?_Buy@?$vector@UExtrudeInnerInfo@ObjEd@@V?$allocator@UExtrudeInnerInfo@ObjEd@@@std@@@std@@IAE_NI@Z 00513470 f i Mesh.obj
 0002:0003a550       ?_Tidy@?$vector@UExtrudeInnerInfo@ObjEd@@V?$allocator@UExtrudeInnerInfo@ObjEd@@@std@@@std@@IAEXXZ 00513550 f i Mesh.obj
 0002:0003a630       ??0?$_Vector_val@UExtrudeInnerInfo@ObjEd@@V?$allocator@UExtrudeInnerInfo@ObjEd@@@std@@@std@@IAE@V?$allocator@UExtrudeInnerInfo@ObjEd@@@1@@Z 00513630 f i Mesh.obj
 0002:0003a6b0       ??1?$_Container_base_aux_alloc_empty@V?$allocator@UExtrudeInnerInfo@ObjEd@@@std@@@std@@IAE@XZ 005136b0 f i Mesh.obj
 0002:0003a710       ??0?$allocator@UExtrudeInnerInfo@ObjEd@@@std@@QAE@XZ 00513710 f i Mesh.obj
 0002:0003a750       ?begin@?$vector@UNorScaleInfo@ObjEd@@V?$allocator@UNorScaleInfo@ObjEd@@@std@@@std@@QAE?AV?$_Vector_iterator@UNorScaleInfo@ObjEd@@V?$allocator@UNorScaleInfo@ObjEd@@@std@@@2@XZ 00513750 f i Mesh.obj
 0002:0003a7e0       ?end@?$vector@UNorScaleInfo@ObjEd@@V?$allocator@UNorScaleInfo@ObjEd@@@std@@@std@@QAE?AV?$_Vector_iterator@UNorScaleInfo@ObjEd@@V?$allocator@UNorScaleInfo@ObjEd@@@std@@@2@XZ 005137e0 f i Mesh.obj
 0002:0003a870       ?resize@?$vector@UNorScaleInfo@ObjEd@@V?$allocator@UNorScaleInfo@ObjEd@@@std@@@std@@QAEXIUNorScaleInfo@ObjEd@@@Z 00513870 f i Mesh.obj
 0002:0003ab10       ?size@?$vector@UNorScaleInfo@ObjEd@@V?$allocator@UNorScaleInfo@ObjEd@@@std@@@std@@QBEIXZ 00513b10 f i Mesh.obj
 0002:0003ab60       ?erase@?$vector@UNorScaleInfo@ObjEd@@V?$allocator@UNorScaleInfo@ObjEd@@@std@@@std@@QAE?AV?$_Vector_iterator@UNorScaleInfo@ObjEd@@V?$allocator@UNorScaleInfo@ObjEd@@@std@@@2@V?$_Vector_const_iterator@UNorScaleInfo@ObjEd@@V?$allocator@UNorScaleInfo@ObjEd@@@std@@@2@0@Z 00513b60 f i Mesh.obj
 0002:0003ae00       ?_Buy@?$vector@UNorScaleInfo@ObjEd@@V?$allocator@UNorScaleInfo@ObjEd@@@std@@@std@@IAE_NI@Z 00513e00 f i Mesh.obj
 0002:0003aee0       ?_Tidy@?$vector@UNorScaleInfo@ObjEd@@V?$allocator@UNorScaleInfo@ObjEd@@@std@@@std@@IAEXXZ 00513ee0 f i Mesh.obj
 0002:0003afc0       ??0?$_Vector_val@UNorScaleInfo@ObjEd@@V?$allocator@UNorScaleInfo@ObjEd@@@std@@@std@@IAE@V?$allocator@UNorScaleInfo@ObjEd@@@1@@Z 00513fc0 f i Mesh.obj
 0002:0003b040       ??1?$_Container_base_aux_alloc_empty@V?$allocator@UNorScaleInfo@ObjEd@@@std@@@std@@IAE@XZ 00514040 f i Mesh.obj
 0002:0003b0a0       ??0?$allocator@UNorScaleInfo@ObjEd@@@std@@QAE@XZ 005140a0 f i Mesh.obj
 0002:0003b0e0       ?capacity@?$vector@PAVEditableMeshModel@@V?$allocator@PAVEditableMeshModel@@@std@@@std@@QBEIXZ 005140e0 f i Mesh.obj
 0002:0003b150       ?begin@?$vector@PAVEditableMeshModel@@V?$allocator@PAVEditableMeshModel@@@std@@@std@@QBE?AV?$_Vector_const_iterator@PAVEditableMeshModel@@V?$allocator@PAVEditableMeshModel@@@std@@@2@XZ 00514150 f i Mesh.obj
 0002:0003b1e0       ?end@?$vector@PAVEditableMeshModel@@V?$allocator@PAVEditableMeshModel@@@std@@@std@@QAE?AV?$_Vector_iterator@PAVEditableMeshModel@@V?$allocator@PAVEditableMeshModel@@@std@@@2@XZ 005141e0 f i Mesh.obj
 0002:0003b270       ?end@?$vector@PAVEditableMeshModel@@V?$allocator@PAVEditableMeshModel@@@std@@@std@@QBE?AV?$_Vector_const_iterator@PAVEditableMeshModel@@V?$allocator@PAVEditableMeshModel@@@std@@@2@XZ 00514270 f i Mesh.obj
 0002:0003b300       ?size@?$vector@PAVEditableMeshModel@@V?$allocator@PAVEditableMeshModel@@@std@@@std@@QBEIXZ 00514300 f i Mesh.obj
 0002:0003b350       ?insert@?$vector@PAVEditableMeshModel@@V?$allocator@PAVEditableMeshModel@@@std@@@std@@QAE?AV?$_Vector_iterator@PAVEditableMeshModel@@V?$allocator@PAVEditableMeshModel@@@std@@@2@V?$_Vector_const_iterator@PAVEditableMeshModel@@V?$allocator@PAVEditableMeshModel@@@std@@@2@ABQAVEditableMeshModel@@@Z 00514350 f i Mesh.obj
 0002:0003b550       ?_Buy@?$vector@PAVEditableMeshModel@@V?$allocator@PAVEditableMeshModel@@@std@@@std@@IAE_NI@Z 00514550 f i Mesh.obj
 0002:0003b630       ?_Tidy@?$vector@PAVEditableMeshModel@@V?$allocator@PAVEditableMeshModel@@@std@@@std@@IAEXXZ 00514630 f i Mesh.obj
 0002:0003b710       ?_Ufill@?$vector@PAVEditableMeshModel@@V?$allocator@PAVEditableMeshModel@@@std@@@std@@IAEPAPAVEditableMeshModel@@PAPAV3@IABQAV3@@Z 00514710 f i Mesh.obj
 0002:0003b790       ?_Orphan_range@?$vector@PAVEditableMeshModel@@V?$allocator@PAVEditableMeshModel@@@std@@@std@@IBEXPAPAVEditableMeshModel@@0@Z 00514790 f i Mesh.obj
 0002:0003b8a0       ??0?$_Vector_val@PAVEditableMeshModel@@V?$allocator@PAVEditableMeshModel@@@std@@@std@@IAE@V?$allocator@PAVEditableMeshModel@@@1@@Z 005148a0 f i Mesh.obj
 0002:0003b920       ??1?$_Container_base_aux_alloc_empty@V?$allocator@PAVEditableMeshModel@@@std@@@std@@IAE@XZ 00514920 f i Mesh.obj
 0002:0003b980       ??0?$allocator@PAVEditableMeshModel@@@std@@QAE@XZ 00514980 f i Mesh.obj
 0002:0003b9c0       ??0?$allocator@PAVEditableMeshModel@@@std@@QAE@ABV01@@Z 005149c0 f i Mesh.obj
 0002:0003ba00       ?_Tidy@?$vector@VFace@@V?$allocator@VFace@@@std@@@std@@IAEXXZ 00514a00 f i Mesh.obj
 0002:0003bae0       ??1?$_Container_base_aux_alloc_empty@V?$allocator@VFace@@@std@@@std@@IAE@XZ 00514ae0 f i Mesh.obj
 0002:0003bb40       ?_Nextnode@?$list@HV?$allocator@H@std@@@std@@KAAAPAU_Node@?$_List_nod@HV?$allocator@H@std@@@2@PAU342@@Z 00514b40 f i Mesh.obj
 0002:0003bb80       ??0?$list@HV?$allocator@H@std@@@std@@QAE@ABV?$allocator@H@1@@Z 00514b80 f i Mesh.obj
 0002:0003bc50       ?begin@?$list@HV?$allocator@H@std@@@std@@QBE?AV?$_Const_iterator@$00@12@XZ 00514c50 f i Mesh.obj
 0002:0003bce0       ?end@?$list@HV?$allocator@H@std@@@std@@QBE?AV?$_Const_iterator@$00@12@XZ 00514ce0 f i Mesh.obj
 0002:0003bd70       ?empty@?$list@HV?$allocator@H@std@@@std@@QBE_NXZ 00514d70 f i Mesh.obj
 0002:0003bdc0       ?_Insert@?$list@HV?$allocator@H@std@@@std@@QAEXV?$_Const_iterator@$00@12@ABH@Z 00514dc0 f i Mesh.obj
 0002:0003bf10       ?erase@?$list@HV?$allocator@H@std@@@std@@QAE?AV?$_Iterator@$00@12@V?$_Const_iterator@$00@12@@Z 00514f10 f i Mesh.obj
 0002:0003c160       ?swap@?$list@HV?$allocator@H@std@@@std@@QAEXAAV12@@Z 00515160 f i Mesh.obj
 0002:0003c460       ?splice@?$list@HV?$allocator@H@std@@@std@@QAEXV?$_Const_iterator@$00@12@AAV12@@Z 00515460 f i Mesh.obj
 0002:0003c650       ?merge@?$list@HV?$allocator@H@std@@@std@@QAEXAAV12@@Z 00515650 f i Mesh.obj
 0002:0003cb10       ?_Splice@?$list@HV?$allocator@H@std@@@std@@QAEXV?$_Const_iterator@$00@12@AAV12@00I_N@Z 00515b10 f i Mesh.obj
 0002:0003cf90       ?_Buynode@?$list@HV?$allocator@H@std@@@std@@IAEPAU_Node@?$_List_nod@HV?$allocator@H@std@@@2@XZ 00515f90 f i Mesh.obj
 0002:0003d150       ?_Tidy@?$list@HV?$allocator@H@std@@@std@@IAEXXZ 00516150 f i Mesh.obj
 0002:0003d210       ??0?$_List_val@HV?$allocator@H@std@@@std@@QAE@V?$allocator@H@1@@Z 00516210 f i Mesh.obj
 0002:0003d290       ??0?$_Iterator@$00@?$list@HV?$allocator@H@std@@@std@@QAE@PAU_Node@?$_List_nod@HV?$allocator@H@std@@@2@PBV12@@Z 00516290 f i Mesh.obj
 0002:0003d2f0       ??E?$_Iterator@$00@?$list@HV?$allocator@H@std@@@std@@QAE?AV012@H@Z 005162f0 f i Mesh.obj
 0002:0003d410       ??D?$_Const_iterator@$00@?$list@HV?$allocator@H@std@@@std@@QBEABHXZ 00516410 f i Mesh.obj
 0002:0003d540       ??E?$_Const_iterator@$00@?$list@HV?$allocator@H@std@@@std@@QAEAAV012@XZ 00516540 f i Mesh.obj
 0002:0003d680       ??8?$_Const_iterator@$00@?$list@HV?$allocator@H@std@@@std@@QBE_NABV012@@Z 00516680 f i Mesh.obj
 0002:0003d6f0       ?capacity@?$vector@PAVDeferredMeshModel@@V?$allocator@PAVDeferredMeshModel@@@std@@@std@@QBEIXZ 005166f0 f i Mesh.obj
 0002:0003d760       ?begin@?$vector@PAVDeferredMeshModel@@V?$allocator@PAVDeferredMeshModel@@@std@@@std@@QBE?AV?$_Vector_const_iterator@PAVDeferredMeshModel@@V?$allocator@PAVDeferredMeshModel@@@std@@@2@XZ 00516760 f i Mesh.obj
 0002:0003d7f0       ?end@?$vector@PAVDeferredMeshModel@@V?$allocator@PAVDeferredMeshModel@@@std@@@std@@QAE?AV?$_Vector_iterator@PAVDeferredMeshModel@@V?$allocator@PAVDeferredMeshModel@@@std@@@2@XZ 005167f0 f i Mesh.obj
 0002:0003d880       ?end@?$vector@PAVDeferredMeshModel@@V?$allocator@PAVDeferredMeshModel@@@std@@@std@@QBE?AV?$_Vector_const_iterator@PAVDeferredMeshModel@@V?$allocator@PAVDeferredMeshModel@@@std@@@2@XZ 00516880 f i Mesh.obj
 0002:0003d910       ?size@?$vector@PAVDeferredMeshModel@@V?$allocator@PAVDeferredMeshModel@@@std@@@std@@QBEIXZ 00516910 f i Mesh.obj
 0002:0003d960       ?insert@?$vector@PAVDeferredMeshModel@@V?$allocator@PAVDeferredMeshModel@@@std@@@std@@QAE?AV?$_Vector_iterator@PAVDeferredMeshModel@@V?$allocator@PAVDeferredMeshModel@@@std@@@2@V?$_Vector_const_iterator@PAVDeferredMeshModel@@V?$allocator@PAVDeferredMeshModel@@@std@@@2@ABQAVDeferredMeshModel@@@Z 00516960 f i Mesh.obj
 0002:0003db60       ?_Buy@?$vector@PAVDeferredMeshModel@@V?$allocator@PAVDeferredMeshModel@@@std@@@std@@IAE_NI@Z 00516b60 f i Mesh.obj
 0002:0003dc40       ?_Tidy@?$vector@PAVDeferredMeshModel@@V?$allocator@PAVDeferredMeshModel@@@std@@@std@@IAEXXZ 00516c40 f i Mesh.obj
 0002:0003dd20       ?_Ufill@?$vector@PAVDeferredMeshModel@@V?$allocator@PAVDeferredMeshModel@@@std@@@std@@IAEPAPAVDeferredMeshModel@@PAPAV3@IABQAV3@@Z 00516d20 f i Mesh.obj
 0002:0003dda0       ?_Orphan_range@?$vector@PAVDeferredMeshModel@@V?$allocator@PAVDeferredMeshModel@@@std@@@std@@IBEXPAPAVDeferredMeshModel@@0@Z 00516da0 f i Mesh.obj
 0002:0003deb0       ??0?$_Vector_val@PAVDeferredMeshModel@@V?$allocator@PAVDeferredMeshModel@@@std@@@std@@IAE@V?$allocator@PAVDeferredMeshModel@@@1@@Z 00516eb0 f i Mesh.obj
 0002:0003df30       ??1?$_Container_base_aux_alloc_empty@V?$allocator@PAVDeferredMeshModel@@@std@@@std@@IAE@XZ 00516f30 f i Mesh.obj
 0002:0003df90       ??0?$allocator@PAVDeferredMeshModel@@@std@@QAE@XZ 00516f90 f i Mesh.obj
 0002:0003dfd0       ??0?$allocator@PAVDeferredMeshModel@@@std@@QAE@ABV01@@Z 00516fd0 f i Mesh.obj
 0002:0003e010       ??D?$_Vb_const_iterator@IHV?$vector@_NV?$allocator@_N@std@@@std@@@std@@QBE_NXZ 00517010 f i Mesh.obj
 0002:0003e0f0       ??H?$_Vb_const_iterator@IHV?$vector@_NV?$allocator@_N@std@@@std@@@std@@QBE?AV01@H@Z 005170f0 f i Mesh.obj
 0002:0003e210       ??1?$_Vector_iterator@HV?$allocator@H@std@@@std@@QAE@XZ 00517210 f i Mesh.obj
 0002:0003e260       ??0?$_Vector_const_iterator@HV?$allocator@H@std@@@std@@QAE@ABV01@@Z 00517260 f i Mesh.obj
 0002:0003e2d0       ??1?$_Vector_iterator@UD3DXVECTOR3@@V?$allocator@UD3DXVECTOR3@@@std@@@std@@QAE@XZ 005172d0 f i Mesh.obj
 0002:0003e320       ??0?$_Vector_const_iterator@UD3DXVECTOR3@@V?$allocator@UD3DXVECTOR3@@@std@@@std@@QAE@ABV01@@Z 00517320 f i Mesh.obj
 0002:0003e390       ??1?$_Vector_iterator@V?$vector@PAVHE_vert@@V?$allocator@PAVHE_vert@@@std@@@std@@V?$allocator@V?$vector@PAVHE_vert@@V?$allocator@PAVHE_vert@@@std@@@std@@@2@@std@@QAE@XZ 00517390 f i Mesh.obj
 0002:0003e3e0       ??0?$_Vector_const_iterator@V?$vector@PAVHE_vert@@V?$allocator@PAVHE_vert@@@std@@@std@@V?$allocator@V?$vector@PAVHE_vert@@V?$allocator@PAVHE_vert@@@std@@@std@@@2@@std@@QAE@ABV01@@Z 005173e0 f i Mesh.obj
 0002:0003e450       ??1?$_Vector_const_iterator@V?$vector@PAVHE_vert@@V?$allocator@PAVHE_vert@@@std@@@std@@V?$allocator@V?$vector@PAVHE_vert@@V?$allocator@PAVHE_vert@@@std@@@std@@@2@@std@@QAE@XZ 00517450 f i Mesh.obj
 0002:0003e4a0       ??1?$_Vector_iterator@PAVHE_vert@@V?$allocator@PAVHE_vert@@@std@@@std@@QAE@XZ 005174a0 f i Mesh.obj
 0002:0003e4f0       ??0?$_Vector_const_iterator@PAVHE_vert@@V?$allocator@PAVHE_vert@@@std@@@std@@QAE@ABV01@@Z 005174f0 f i Mesh.obj
 0002:0003e560       ??1?$_Vector_const_iterator@PAVHE_vert@@V?$allocator@PAVHE_vert@@@std@@@std@@QAE@XZ 00517560 f i Mesh.obj
 0002:0003e5b0       ??0?$_Ranit@USelection@ObjEd@@HPBU12@ABU12@@std@@QAE@XZ 005175b0 f i Mesh.obj
 0002:0003e610       ??1?$_Vector_iterator@UEdgeIntersection@ObjEd@@V?$allocator@UEdgeIntersection@ObjEd@@@std@@@std@@QAE@XZ 00517610 f i Mesh.obj
 0002:0003e660       ??0?$_Vector_const_iterator@UEdgeIntersection@ObjEd@@V?$allocator@UEdgeIntersection@ObjEd@@@std@@@std@@QAE@ABV01@@Z 00517660 f i Mesh.obj
 0002:0003e6d0       ??1?$_Vector_const_iterator@UEdgeIntersection@ObjEd@@V?$allocator@UEdgeIntersection@ObjEd@@@std@@@std@@QAE@XZ 005176d0 f i Mesh.obj
 0002:0003e720       ??0?$_Ranit@HHPBHABH@std@@QAE@ABU01@@Z 00517720 f i Mesh.obj
 0002:0003e780       ??0?$_Ranit@UD3DXVECTOR3@@HPBU1@ABU1@@std@@QAE@ABU01@@Z 00517780 f i Mesh.obj
 0002:0003e7e0       ??0?$_Ranit@V?$vector@PAVHE_vert@@V?$allocator@PAVHE_vert@@@std@@@std@@HPBV12@ABV12@@std@@QAE@ABU01@@Z 005177e0 f i Mesh.obj
 0002:0003e840       ??1?$_Ranit@V?$vector@PAVHE_vert@@V?$allocator@PAVHE_vert@@@std@@@std@@HPBV12@ABV12@@std@@QAE@XZ 00517840 f i Mesh.obj
 0002:0003e890       ??0?$_Ranit@PAVHE_vert@@HPBQAV1@ABQAV1@@std@@QAE@ABU01@@Z 00517890 f i Mesh.obj
 0002:0003e8f0       ??1?$_Ranit@PAVHE_vert@@HPBQAV1@ABQAV1@@std@@QAE@XZ 005178f0 f i Mesh.obj
 0002:0003e940       ??0?$_Iterator_with_base@Urandom_access_iterator_tag@std@@USelection@ObjEd@@HPBU34@ABU34@V_Iterator_base@2@@std@@QAE@XZ 00517940 f i Mesh.obj
 0002:0003e9a0       ??0?$_Ranit@UEdgeIntersection@ObjEd@@HPBU12@ABU12@@std@@QAE@ABU01@@Z 005179a0 f i Mesh.obj
 0002:0003ea00       ??1?$_Ranit@UEdgeIntersection@ObjEd@@HPBU12@ABU12@@std@@QAE@XZ 00517a00 f i Mesh.obj
 0002:0003ea50       ??0?$_Iterator_with_base@Urandom_access_iterator_tag@std@@HHPBHABHV_Iterator_base@2@@std@@QAE@ABU01@@Z 00517a50 f i Mesh.obj
 0002:0003eab0       ??0?$_Iterator_with_base@Urandom_access_iterator_tag@std@@UD3DXVECTOR3@@HPBU3@ABU3@V_Iterator_base@2@@std@@QAE@ABU01@@Z 00517ab0 f i Mesh.obj
 0002:0003eb10       ??0?$_Iterator_with_base@Urandom_access_iterator_tag@std@@V?$vector@PAVHE_vert@@V?$allocator@PAVHE_vert@@@std@@@2@HPBV32@ABV32@V_Iterator_base@2@@std@@QAE@ABU01@@Z 00517b10 f i Mesh.obj
 0002:0003eb70       ??1?$_Iterator_with_base@Urandom_access_iterator_tag@std@@V?$vector@PAVHE_vert@@V?$allocator@PAVHE_vert@@@std@@@2@HPBV32@ABV32@V_Iterator_base@2@@std@@QAE@XZ 00517b70 f i Mesh.obj
 0002:0003ebc0       ??0?$_Iterator_with_base@Urandom_access_iterator_tag@std@@PAVHE_vert@@HPBQAV3@ABQAV3@V_Iterator_base@2@@std@@QAE@ABU01@@Z 00517bc0 f i Mesh.obj
 0002:0003ec20       ??1?$_Iterator_with_base@Urandom_access_iterator_tag@std@@PAVHE_vert@@HPBQAV3@ABQAV3@V_Iterator_base@2@@std@@QAE@XZ 00517c20 f i Mesh.obj
 0002:0003ec70       ??0?$_Iterator_with_base@Urandom_access_iterator_tag@std@@UEdgeIntersection@ObjEd@@HPBU34@ABU34@V_Iterator_base@2@@std@@QAE@ABU01@@Z 00517c70 f i Mesh.obj
 0002:0003ecd0       ??1?$_Iterator_with_base@Urandom_access_iterator_tag@std@@UEdgeIntersection@ObjEd@@HPBU34@ABU34@V_Iterator_base@2@@std@@QAE@XZ 00517cd0 f i Mesh.obj
 0002:0003ed20       ?begin@?$vector@HV?$allocator@H@std@@@std@@QAE?AV?$_Vector_iterator@HV?$allocator@H@std@@@2@XZ 00517d20 f i Mesh.obj
 0002:0003edb0       ?end@?$vector@HV?$allocator@H@std@@@std@@QAE?AV?$_Vector_iterator@HV?$allocator@H@std@@@2@XZ 00517db0 f i Mesh.obj
 0002:0003ee40       ?max_size@?$vector@HV?$allocator@H@std@@@std@@QBEIXZ 00517e40 f i Mesh.obj
 0002:0003eea0       ?erase@?$vector@HV?$allocator@H@std@@@std@@QAE?AV?$_Vector_iterator@HV?$allocator@H@std@@@2@V?$_Vector_const_iterator@HV?$allocator@H@std@@@2@0@Z 00517ea0 f i Mesh.obj
 0002:0003f140       ?_Xlen@?$vector@HV?$allocator@H@std@@@std@@KAXXZ 00518140 f i Mesh.obj
 0002:0003f230       ??0?$_Container_base_aux_alloc_empty@V?$allocator@H@std@@@std@@IAE@V?$allocator@H@1@@Z 00518230 f i Mesh.obj
 0002:0003f2a0       ?allocate@?$allocator@H@std@@QAEPAHI@Z 005182a0 f i Mesh.obj
 0002:0003f300       ?begin@?$vector@UD3DXVECTOR3@@V?$allocator@UD3DXVECTOR3@@@std@@@std@@QAE?AV?$_Vector_iterator@UD3DXVECTOR3@@V?$allocator@UD3DXVECTOR3@@@std@@@2@XZ 00518300 f i Mesh.obj
 0002:0003f390       ?end@?$vector@UD3DXVECTOR3@@V?$allocator@UD3DXVECTOR3@@@std@@@std@@QAE?AV?$_Vector_iterator@UD3DXVECTOR3@@V?$allocator@UD3DXVECTOR3@@@std@@@2@XZ 00518390 f i Mesh.obj
 0002:0003f420       ?max_size@?$vector@UD3DXVECTOR3@@V?$allocator@UD3DXVECTOR3@@@std@@@std@@QBEIXZ 00518420 f i Mesh.obj
 0002:0003f480       ?erase@?$vector@UD3DXVECTOR3@@V?$allocator@UD3DXVECTOR3@@@std@@@std@@QAE?AV?$_Vector_iterator@UD3DXVECTOR3@@V?$allocator@UD3DXVECTOR3@@@std@@@2@V?$_Vector_const_iterator@UD3DXVECTOR3@@V?$allocator@UD3DXVECTOR3@@@std@@@2@0@Z 00518480 f i Mesh.obj
 0002:0003f720       ?_Xlen@?$vector@UD3DXVECTOR3@@V?$allocator@UD3DXVECTOR3@@@std@@@std@@KAXXZ 00518720 f i Mesh.obj
 0002:0003f810       ??0?$_Container_base_aux_alloc_empty@V?$allocator@UD3DXVECTOR3@@@std@@@std@@IAE@V?$allocator@UD3DXVECTOR3@@@1@@Z 00518810 f i Mesh.obj
 0002:0003f880       ?allocate@?$allocator@UD3DXVECTOR3@@@std@@QAEPAUD3DXVECTOR3@@I@Z 00518880 f i Mesh.obj
 0002:0003f8e0       ?begin@?$vector@V?$vector@PAVHE_vert@@V?$allocator@PAVHE_vert@@@std@@@std@@V?$allocator@V?$vector@PAVHE_vert@@V?$allocator@PAVHE_vert@@@std@@@std@@@2@@std@@QAE?AV?$_Vector_iterator@V?$vector@PAVHE_vert@@V?$allocator@PAVHE_vert@@@std@@@std@@V?$allocator@V?$vector@PAVHE_vert@@V?$allocator@PAVHE_vert@@@std@@@std@@@2@@2@XZ 005188e0 f i Mesh.obj
 0002:0003f970       ?end@?$vector@V?$vector@PAVHE_vert@@V?$allocator@PAVHE_vert@@@std@@@std@@V?$allocator@V?$vector@PAVHE_vert@@V?$allocator@PAVHE_vert@@@std@@@std@@@2@@std@@QAE?AV?$_Vector_iterator@V?$vector@PAVHE_vert@@V?$allocator@PAVHE_vert@@@std@@@std@@V?$allocator@V?$vector@PAVHE_vert@@V?$allocator@PAVHE_vert@@@std@@@std@@@2@@2@XZ 00518970 f i Mesh.obj
 0002:0003fa00       ?max_size@?$vector@V?$vector@PAVHE_vert@@V?$allocator@PAVHE_vert@@@std@@@std@@V?$allocator@V?$vector@PAVHE_vert@@V?$allocator@PAVHE_vert@@@std@@@std@@@2@@std@@QBEIXZ 00518a00 f i Mesh.obj
 0002:0003fa60       ?erase@?$vector@V?$vector@PAVHE_vert@@V?$allocator@PAVHE_vert@@@std@@@std@@V?$allocator@V?$vector@PAVHE_vert@@V?$allocator@PAVHE_vert@@@std@@@std@@@2@@std@@QAE?AV?$_Vector_iterator@V?$vector@PAVHE_vert@@V?$allocator@PAVHE_vert@@@std@@@std@@V?$allocator@V?$vector@PAVHE_vert@@V?$allocator@PAVHE_vert@@@std@@@std@@@2@@2@V?$_Vector_const_iterator@V?$vector@PAVHE_vert@@V?$allocator@PAVHE_vert@@@std@@@std@@V?$allocator@V?$vector@PAVHE_vert@@V?$allocator@PAVHE_vert@@@std@@@std@@@2@@2@0@Z 00518a60 f i Mesh.obj
 0002:0003fd00       ?_Xlen@?$vector@V?$vector@PAVHE_vert@@V?$allocator@PAVHE_vert@@@std@@@std@@V?$allocator@V?$vector@PAVHE_vert@@V?$allocator@PAVHE_vert@@@std@@@std@@@2@@std@@KAXXZ 00518d00 f i Mesh.obj
 0002:0003fdf0       ??0?$_Vector_val@V?$vector@PAVHE_vert@@V?$allocator@PAVHE_vert@@@std@@@std@@V?$allocator@V?$vector@PAVHE_vert@@V?$allocator@PAVHE_vert@@@std@@@std@@@2@@std@@IAE@V?$allocator@V?$vector@PAVHE_vert@@V?$allocator@PAVHE_vert@@@std@@@std@@@1@@Z 00518df0 f i Mesh.obj
 0002:0003fe70       ??0?$allocator@V?$vector@PAVHE_vert@@V?$allocator@PAVHE_vert@@@std@@@std@@@std@@QAE@XZ 00518e70 f i Mesh.obj
 0002:0003feb0       ?allocate@?$allocator@V?$vector@PAVHE_vert@@V?$allocator@PAVHE_vert@@@std@@@std@@@std@@QAEPAV?$vector@PAVHE_vert@@V?$allocator@PAVHE_vert@@@std@@@2@I@Z 00518eb0 f i Mesh.obj
 0002:0003ff10       ?begin@?$vector@PAVHE_vert@@V?$allocator@PAVHE_vert@@@std@@@std@@QAE?AV?$_Vector_iterator@PAVHE_vert@@V?$allocator@PAVHE_vert@@@std@@@2@XZ 00518f10 f i Mesh.obj
 0002:0003ffa0       ?end@?$vector@PAVHE_vert@@V?$allocator@PAVHE_vert@@@std@@@std@@QAE?AV?$_Vector_iterator@PAVHE_vert@@V?$allocator@PAVHE_vert@@@std@@@2@XZ 00518fa0 f i Mesh.obj
 0002:00040030       ?max_size@?$vector@PAVHE_vert@@V?$allocator@PAVHE_vert@@@std@@@std@@QBEIXZ 00519030 f i Mesh.obj
 0002:00040090       ?erase@?$vector@PAVHE_vert@@V?$allocator@PAVHE_vert@@@std@@@std@@QAE?AV?$_Vector_iterator@PAVHE_vert@@V?$allocator@PAVHE_vert@@@std@@@2@V?$_Vector_const_iterator@PAVHE_vert@@V?$allocator@PAVHE_vert@@@std@@@2@0@Z 00519090 f i Mesh.obj
 0002:00040330       ?_Xlen@?$vector@PAVHE_vert@@V?$allocator@PAVHE_vert@@@std@@@std@@KAXXZ 00519330 f i Mesh.obj
 0002:00040420       ??0?$_Container_base_aux_alloc_empty@V?$allocator@PAVHE_vert@@@std@@@std@@IAE@V?$allocator@PAVHE_vert@@@1@@Z 00519420 f i Mesh.obj
 0002:00040490       ??0?$allocator@PAVHE_vert@@@std@@QAE@ABV01@@Z 00519490 f i Mesh.obj
 0002:000404d0       ?allocate@?$allocator@PAVHE_vert@@@std@@QAEPAPAVHE_vert@@I@Z 005194d0 f i Mesh.obj
 0002:00040530       ?_Make_iter@?$vector@USelection@ObjEd@@V?$allocator@USelection@ObjEd@@@std@@@std@@QBE?AV?$_Vector_iterator@USelection@ObjEd@@V?$allocator@USelection@ObjEd@@@std@@@2@V?$_Vector_const_iterator@USelection@ObjEd@@V?$allocator@USelection@ObjEd@@@std@@@2@@Z 00519530 f i Mesh.obj
 0002:00040600       ?max_size@?$vector@USelection@ObjEd@@V?$allocator@USelection@ObjEd@@@std@@@std@@QBEIXZ 00519600 f i Mesh.obj
 0002:00040660       ?_Insert_n@?$vector@USelection@ObjEd@@V?$allocator@USelection@ObjEd@@@std@@@std@@IAEXV?$_Vector_const_iterator@USelection@ObjEd@@V?$allocator@USelection@ObjEd@@@std@@@2@IABUSelection@ObjEd@@@Z 00519660 f i Mesh.obj
 0002:00040c00       ?_Xlen@?$vector@USelection@ObjEd@@V?$allocator@USelection@ObjEd@@@std@@@std@@KAXXZ 00519c00 f i Mesh.obj
 0002:00040cf0       ??0?$_Container_base_aux_alloc_empty@V?$allocator@USelection@ObjEd@@@std@@@std@@IAE@V?$allocator@USelection@ObjEd@@@1@@Z 00519cf0 f i Mesh.obj
 0002:00040d60       ?allocate@?$allocator@USelection@ObjEd@@@std@@QAEPAUSelection@ObjEd@@I@Z 00519d60 f i Mesh.obj
 0002:00040dc0       ??G?$_Vector_const_iterator@USelection@ObjEd@@V?$allocator@USelection@ObjEd@@@std@@@std@@QBEHABV01@@Z 00519dc0 f i Mesh.obj
 0002:00040e30       ??9?$_Vector_const_iterator@USelection@ObjEd@@V?$allocator@USelection@ObjEd@@@std@@@std@@QBE_NABV01@@Z 00519e30 f i Mesh.obj
 0002:00040ea0       ??M?$_Vector_const_iterator@USelection@ObjEd@@V?$allocator@USelection@ObjEd@@@std@@@std@@QBE_NABV01@@Z 00519ea0 f i Mesh.obj
 0002:00040f10       ?begin@?$vector@UEdgeIntersection@ObjEd@@V?$allocator@UEdgeIntersection@ObjEd@@@std@@@std@@QAE?AV?$_Vector_iterator@UEdgeIntersection@ObjEd@@V?$allocator@UEdgeIntersection@ObjEd@@@std@@@2@XZ 00519f10 f i Mesh.obj
 0002:00040fa0       ?end@?$vector@UEdgeIntersection@ObjEd@@V?$allocator@UEdgeIntersection@ObjEd@@@std@@@std@@QAE?AV?$_Vector_iterator@UEdgeIntersection@ObjEd@@V?$allocator@UEdgeIntersection@ObjEd@@@std@@@2@XZ 00519fa0 f i Mesh.obj
 0002:00041030       ?max_size@?$vector@UEdgeIntersection@ObjEd@@V?$allocator@UEdgeIntersection@ObjEd@@@std@@@std@@QBEIXZ 0051a030 f i Mesh.obj
 0002:00041090       ?erase@?$vector@UEdgeIntersection@ObjEd@@V?$allocator@UEdgeIntersection@ObjEd@@@std@@@std@@QAE?AV?$_Vector_iterator@UEdgeIntersection@ObjEd@@V?$allocator@UEdgeIntersection@ObjEd@@@std@@@2@V?$_Vector_const_iterator@UEdgeIntersection@ObjEd@@V?$allocator@UEdgeIntersection@ObjEd@@@std@@@2@0@Z 0051a090 f i Mesh.obj
 0002:00041330       ?_Xlen@?$vector@UEdgeIntersection@ObjEd@@V?$allocator@UEdgeIntersection@ObjEd@@@std@@@std@@KAXXZ 0051a330 f i Mesh.obj
 0002:00041420       ??0?$_Container_base_aux_alloc_empty@V?$allocator@UEdgeIntersection@ObjEd@@@std@@@std@@IAE@V?$allocator@UEdgeIntersection@ObjEd@@@1@@Z 0051a420 f i Mesh.obj
 0002:00041490       ??0?$allocator@UEdgeIntersection@ObjEd@@@std@@QAE@ABV01@@Z 0051a490 f i Mesh.obj
 0002:000414d0       ?allocate@?$allocator@UEdgeIntersection@ObjEd@@@std@@QAEPAUEdgeIntersection@ObjEd@@I@Z 0051a4d0 f i Mesh.obj
 0002:00041530       ?_Make_iter@?$vector@_NV?$allocator@_N@std@@@std@@QAE?AV?$_Vb_iterator@IHV?$vector@_NV?$allocator@_N@std@@@std@@@2@V?$_Vb_const_iterator@IHV?$vector@_NV?$allocator@_N@std@@@std@@@2@@Z 0051a530 f i Mesh.obj
 0002:000416c0       ?_Insert_x@?$vector@_NV?$allocator@_N@std@@@std@@IAEIV?$_Vb_const_iterator@IHV?$vector@_NV?$allocator@_N@std@@@std@@@2@I@Z 0051a6c0 f i Mesh.obj
 0002:00041ac0       ?_Orphan_range@?$vector@_NV?$allocator@_N@std@@@std@@IBEXII@Z 0051aac0 f i Mesh.obj
 0002:00041c70       ?begin@?$vector@IV?$allocator@I@std@@@std@@QBE?AV?$_Vector_const_iterator@IV?$allocator@I@std@@@2@XZ 0051ac70 f i Mesh.obj
 0002:00041d00       ?_Make_iter@?$vector@VProcTex@ObjEd@@V?$allocator@VProcTex@ObjEd@@@std@@@std@@QBE?AV?$_Vector_iterator@VProcTex@ObjEd@@V?$allocator@VProcTex@ObjEd@@@std@@@2@V?$_Vector_const_iterator@VProcTex@ObjEd@@V?$allocator@VProcTex@ObjEd@@@std@@@2@@Z 0051ad00 f i Mesh.obj
 0002:00041dd0       ?max_size@?$vector@VProcTex@ObjEd@@V?$allocator@VProcTex@ObjEd@@@std@@@std@@QBEIXZ 0051add0 f i Mesh.obj
 0002:00041e30       ?_Insert_n@?$vector@VProcTex@ObjEd@@V?$allocator@VProcTex@ObjEd@@@std@@@std@@IAEXV?$_Vector_const_iterator@VProcTex@ObjEd@@V?$allocator@VProcTex@ObjEd@@@std@@@2@IABVProcTex@ObjEd@@@Z 0051ae30 f i Mesh.obj
 0002:00042440       ??0ProcTex@ObjEd@@QAE@ABV01@@Z 0051b440 f i Mesh.obj
 0002:000425a0       ?_Xlen@?$vector@VProcTex@ObjEd@@V?$allocator@VProcTex@ObjEd@@@std@@@std@@KAXXZ 0051b5a0 f i Mesh.obj
 0002:00042690       ?_Orphan_range@?$vector@VProcTex@ObjEd@@V?$allocator@VProcTex@ObjEd@@@std@@@std@@IBEXPAVProcTex@ObjEd@@0@Z 0051b690 f i Mesh.obj
 0002:000427a0       ??0?$_Container_base_aux_alloc_empty@V?$allocator@VProcTex@ObjEd@@@std@@@std@@IAE@V?$allocator@VProcTex@ObjEd@@@1@@Z 0051b7a0 f i Mesh.obj
 0002:00042810       ?allocate@?$allocator@VProcTex@ObjEd@@@std@@QAEPAVProcTex@ObjEd@@I@Z 0051b810 f i Mesh.obj
 0002:00042870       ?_Make_iter@?$vector@PAVMeshComponent@@V?$allocator@PAVMeshComponent@@@std@@@std@@QBE?AV?$_Vector_iterator@PAVMeshComponent@@V?$allocator@PAVMeshComponent@@@std@@@2@V?$_Vector_const_iterator@PAVMeshComponent@@V?$allocator@PAVMeshComponent@@@std@@@2@@Z 0051b870 f i Mesh.obj
 0002:00042940       ?max_size@?$vector@PAVMeshComponent@@V?$allocator@PAVMeshComponent@@@std@@@std@@QBEIXZ 0051b940 f i Mesh.obj
 0002:000429a0       ?_Destroy@?$vector@PAVMeshComponent@@V?$allocator@PAVMeshComponent@@@std@@@std@@IAEXPAPAVMeshComponent@@0@Z 0051b9a0 f i Mesh.obj
 0002:00042a10       ?_Insert_n@?$vector@PAVMeshComponent@@V?$allocator@PAVMeshComponent@@@std@@@std@@IAEXV?$_Vector_const_iterator@PAVMeshComponent@@V?$allocator@PAVMeshComponent@@@std@@@2@IABQAVMeshComponent@@@Z 0051ba10 f i Mesh.obj
 0002:00042f70       ?_Xlen@?$vector@PAVMeshComponent@@V?$allocator@PAVMeshComponent@@@std@@@std@@KAXXZ 0051bf70 f i Mesh.obj
 0002:00043060       ?_Orphan_range@?$vector@PAVMeshComponent@@V?$allocator@PAVMeshComponent@@@std@@@std@@IBEXPAPAVMeshComponent@@0@Z 0051c060 f i Mesh.obj
 0002:00043170       ??0?$_Container_base_aux_alloc_empty@V?$allocator@PAVMeshComponent@@@std@@@std@@IAE@V?$allocator@PAVMeshComponent@@@1@@Z 0051c170 f i Mesh.obj
 0002:000431e0       ??0?$allocator@PAVMeshComponent@@@std@@QAE@ABV01@@Z 0051c1e0 f i Mesh.obj
 0002:00043220       ?deallocate@?$allocator@PAVMeshComponent@@@std@@QAEXPAPAVMeshComponent@@I@Z 0051c220 f i Mesh.obj
 0002:00043280       ?allocate@?$allocator@PAVMeshComponent@@@std@@QAEPAPAVMeshComponent@@I@Z 0051c280 f i Mesh.obj
 0002:000432e0       ?_Make_iter@?$vector@UBevelVInfo@ObjEd@@V?$allocator@UBevelVInfo@ObjEd@@@std@@@std@@QBE?AV?$_Vector_iterator@UBevelVInfo@ObjEd@@V?$allocator@UBevelVInfo@ObjEd@@@std@@@2@V?$_Vector_const_iterator@UBevelVInfo@ObjEd@@V?$allocator@UBevelVInfo@ObjEd@@@std@@@2@@Z 0051c2e0 f i Mesh.obj
 0002:000433b0       ?max_size@?$vector@UBevelVInfo@ObjEd@@V?$allocator@UBevelVInfo@ObjEd@@@std@@@std@@QBEIXZ 0051c3b0 f i Mesh.obj
 0002:00043410       ?_Destroy@?$vector@UBevelVInfo@ObjEd@@V?$allocator@UBevelVInfo@ObjEd@@@std@@@std@@IAEXPAUBevelVInfo@ObjEd@@0@Z 0051c410 f i Mesh.obj
 0002:00043480       ?_Insert_n@?$vector@UBevelVInfo@ObjEd@@V?$allocator@UBevelVInfo@ObjEd@@@std@@@std@@IAEXV?$_Vector_const_iterator@UBevelVInfo@ObjEd@@V?$allocator@UBevelVInfo@ObjEd@@@std@@@2@IABUBevelVInfo@ObjEd@@@Z 0051c480 f i Mesh.obj
 0002:00043a50       ?_Xlen@?$vector@UBevelVInfo@ObjEd@@V?$allocator@UBevelVInfo@ObjEd@@@std@@@std@@KAXXZ 0051ca50 f i Mesh.obj
 0002:00043b40       ?_Orphan_range@?$vector@UBevelVInfo@ObjEd@@V?$allocator@UBevelVInfo@ObjEd@@@std@@@std@@IBEXPAUBevelVInfo@ObjEd@@0@Z 0051cb40 f i Mesh.obj
 0002:00043c50       ??0?$_Container_base_aux_alloc_empty@V?$allocator@UBevelVInfo@ObjEd@@@std@@@std@@IAE@V?$allocator@UBevelVInfo@ObjEd@@@1@@Z 0051cc50 f i Mesh.obj
 0002:00043cc0       ??0?$allocator@UBevelVInfo@ObjEd@@@std@@QAE@ABV01@@Z 0051ccc0 f i Mesh.obj
 0002:00043d00       ?deallocate@?$allocator@UBevelVInfo@ObjEd@@@std@@QAEXPAUBevelVInfo@ObjEd@@I@Z 0051cd00 f i Mesh.obj
 0002:00043d60       ?allocate@?$allocator@UBevelVInfo@ObjEd@@@std@@QAEPAUBevelVInfo@ObjEd@@I@Z 0051cd60 f i Mesh.obj
 0002:00043dc0       ?_Make_iter@?$vector@UExtrudeInfo@ObjEd@@V?$allocator@UExtrudeInfo@ObjEd@@@std@@@std@@QBE?AV?$_Vector_iterator@UExtrudeInfo@ObjEd@@V?$allocator@UExtrudeInfo@ObjEd@@@std@@@2@V?$_Vector_const_iterator@UExtrudeInfo@ObjEd@@V?$allocator@UExtrudeInfo@ObjEd@@@std@@@2@@Z 0051cdc0 f i Mesh.obj
 0002:00043e90       ?max_size@?$vector@UExtrudeInfo@ObjEd@@V?$allocator@UExtrudeInfo@ObjEd@@@std@@@std@@QBEIXZ 0051ce90 f i Mesh.obj
 0002:00043ef0       ?_Destroy@?$vector@UExtrudeInfo@ObjEd@@V?$allocator@UExtrudeInfo@ObjEd@@@std@@@std@@IAEXPAUExtrudeInfo@ObjEd@@0@Z 0051cef0 f i Mesh.obj
 0002:00043f60       ?_Insert_n@?$vector@UExtrudeInfo@ObjEd@@V?$allocator@UExtrudeInfo@ObjEd@@@std@@@std@@IAEXV?$_Vector_const_iterator@UExtrudeInfo@ObjEd@@V?$allocator@UExtrudeInfo@ObjEd@@@std@@@2@IABUExtrudeInfo@ObjEd@@@Z 0051cf60 f i Mesh.obj
 0002:00044530       ?_Xlen@?$vector@UExtrudeInfo@ObjEd@@V?$allocator@UExtrudeInfo@ObjEd@@@std@@@std@@KAXXZ 0051d530 f i Mesh.obj
 0002:00044620       ?_Orphan_range@?$vector@UExtrudeInfo@ObjEd@@V?$allocator@UExtrudeInfo@ObjEd@@@std@@@std@@IBEXPAUExtrudeInfo@ObjEd@@0@Z 0051d620 f i Mesh.obj
 0002:00044730       ??0?$_Container_base_aux_alloc_empty@V?$allocator@UExtrudeInfo@ObjEd@@@std@@@std@@IAE@V?$allocator@UExtrudeInfo@ObjEd@@@1@@Z 0051d730 f i Mesh.obj
 0002:000447a0       ??0?$allocator@UExtrudeInfo@ObjEd@@@std@@QAE@ABV01@@Z 0051d7a0 f i Mesh.obj
 0002:000447e0       ?deallocate@?$allocator@UExtrudeInfo@ObjEd@@@std@@QAEXPAUExtrudeInfo@ObjEd@@I@Z 0051d7e0 f i Mesh.obj
 0002:00044840       ?allocate@?$allocator@UExtrudeInfo@ObjEd@@@std@@QAEPAUExtrudeInfo@ObjEd@@I@Z 0051d840 f i Mesh.obj
 0002:000448a0       ?_Make_iter@?$vector@UExtrudeMatrixInfo@ObjEd@@V?$allocator@UExtrudeMatrixInfo@ObjEd@@@std@@@std@@QBE?AV?$_Vector_iterator@UExtrudeMatrixInfo@ObjEd@@V?$allocator@UExtrudeMatrixInfo@ObjEd@@@std@@@2@V?$_Vector_const_iterator@UExtrudeMatrixInfo@ObjEd@@V?$allocator@UExtrudeMatrixInfo@ObjEd@@@std@@@2@@Z 0051d8a0 f i Mesh.obj
 0002:00044970       ?max_size@?$vector@UExtrudeMatrixInfo@ObjEd@@V?$allocator@UExtrudeMatrixInfo@ObjEd@@@std@@@std@@QBEIXZ 0051d970 f i Mesh.obj
 0002:000449d0       ?_Destroy@?$vector@UExtrudeMatrixInfo@ObjEd@@V?$allocator@UExtrudeMatrixInfo@ObjEd@@@std@@@std@@IAEXPAUExtrudeMatrixInfo@ObjEd@@0@Z 0051d9d0 f i Mesh.obj
 0002:00044a40       ?_Insert_n@?$vector@UExtrudeMatrixInfo@ObjEd@@V?$allocator@UExtrudeMatrixInfo@ObjEd@@@std@@@std@@IAEXV?$_Vector_const_iterator@UExtrudeMatrixInfo@ObjEd@@V?$allocator@UExtrudeMatrixInfo@ObjEd@@@std@@@2@IABUExtrudeMatrixInfo@ObjEd@@@Z 0051da40 f i Mesh.obj
 0002:00045010       ?_Xlen@?$vector@UExtrudeMatrixInfo@ObjEd@@V?$allocator@UExtrudeMatrixInfo@ObjEd@@@std@@@std@@KAXXZ 0051e010 f i Mesh.obj
 0002:00045100       ?_Orphan_range@?$vector@UExtrudeMatrixInfo@ObjEd@@V?$allocator@UExtrudeMatrixInfo@ObjEd@@@std@@@std@@IBEXPAUExtrudeMatrixInfo@ObjEd@@0@Z 0051e100 f i Mesh.obj
 0002:00045210       ??0?$_Container_base_aux_alloc_empty@V?$allocator@UExtrudeMatrixInfo@ObjEd@@@std@@@std@@IAE@V?$allocator@UExtrudeMatrixInfo@ObjEd@@@1@@Z 0051e210 f i Mesh.obj
 0002:00045280       ??0?$allocator@UExtrudeMatrixInfo@ObjEd@@@std@@QAE@ABV01@@Z 0051e280 f i Mesh.obj
 0002:000452c0       ?deallocate@?$allocator@UExtrudeMatrixInfo@ObjEd@@@std@@QAEXPAUExtrudeMatrixInfo@ObjEd@@I@Z 0051e2c0 f i Mesh.obj
 0002:00045320       ?allocate@?$allocator@UExtrudeMatrixInfo@ObjEd@@@std@@QAEPAUExtrudeMatrixInfo@ObjEd@@I@Z 0051e320 f i Mesh.obj
 0002:00045380       ?_Make_iter@?$vector@UExtrudeInnerInfo@ObjEd@@V?$allocator@UExtrudeInnerInfo@ObjEd@@@std@@@std@@QBE?AV?$_Vector_iterator@UExtrudeInnerInfo@ObjEd@@V?$allocator@UExtrudeInnerInfo@ObjEd@@@std@@@2@V?$_Vector_const_iterator@UExtrudeInnerInfo@ObjEd@@V?$allocator@UExtrudeInnerInfo@ObjEd@@@std@@@2@@Z 0051e380 f i Mesh.obj
 0002:00045450       ?max_size@?$vector@UExtrudeInnerInfo@ObjEd@@V?$allocator@UExtrudeInnerInfo@ObjEd@@@std@@@std@@QBEIXZ 0051e450 f i Mesh.obj
 0002:000454b0       ?_Destroy@?$vector@UExtrudeInnerInfo@ObjEd@@V?$allocator@UExtrudeInnerInfo@ObjEd@@@std@@@std@@IAEXPAUExtrudeInnerInfo@ObjEd@@0@Z 0051e4b0 f i Mesh.obj
 0002:00045520       ?_Insert_n@?$vector@UExtrudeInnerInfo@ObjEd@@V?$allocator@UExtrudeInnerInfo@ObjEd@@@std@@@std@@IAEXV?$_Vector_const_iterator@UExtrudeInnerInfo@ObjEd@@V?$allocator@UExtrudeInnerInfo@ObjEd@@@std@@@2@IABUExtrudeInnerInfo@ObjEd@@@Z 0051e520 f i Mesh.obj
 0002:00045b00       ?_Xlen@?$vector@UExtrudeInnerInfo@ObjEd@@V?$allocator@UExtrudeInnerInfo@ObjEd@@@std@@@std@@KAXXZ 0051eb00 f i Mesh.obj
 0002:00045bf0       ?_Orphan_range@?$vector@UExtrudeInnerInfo@ObjEd@@V?$allocator@UExtrudeInnerInfo@ObjEd@@@std@@@std@@IBEXPAUExtrudeInnerInfo@ObjEd@@0@Z 0051ebf0 f i Mesh.obj
 0002:00045d00       ??0?$_Container_base_aux_alloc_empty@V?$allocator@UExtrudeInnerInfo@ObjEd@@@std@@@std@@IAE@V?$allocator@UExtrudeInnerInfo@ObjEd@@@1@@Z 0051ed00 f i Mesh.obj
 0002:00045d70       ??0?$allocator@UExtrudeInnerInfo@ObjEd@@@std@@QAE@ABV01@@Z 0051ed70 f i Mesh.obj
 0002:00045db0       ?deallocate@?$allocator@UExtrudeInnerInfo@ObjEd@@@std@@QAEXPAUExtrudeInnerInfo@ObjEd@@I@Z 0051edb0 f i Mesh.obj
 0002:00045e10       ?allocate@?$allocator@UExtrudeInnerInfo@ObjEd@@@std@@QAEPAUExtrudeInnerInfo@ObjEd@@I@Z 0051ee10 f i Mesh.obj
 0002:00045e70       ?_Make_iter@?$vector@UNorScaleInfo@ObjEd@@V?$allocator@UNorScaleInfo@ObjEd@@@std@@@std@@QBE?AV?$_Vector_iterator@UNorScaleInfo@ObjEd@@V?$allocator@UNorScaleInfo@ObjEd@@@std@@@2@V?$_Vector_const_iterator@UNorScaleInfo@ObjEd@@V?$allocator@UNorScaleInfo@ObjEd@@@std@@@2@@Z 0051ee70 f i Mesh.obj
 0002:00045f40       ?max_size@?$vector@UNorScaleInfo@ObjEd@@V?$allocator@UNorScaleInfo@ObjEd@@@std@@@std@@QBEIXZ 0051ef40 f i Mesh.obj
 0002:00045fa0       ?_Destroy@?$vector@UNorScaleInfo@ObjEd@@V?$allocator@UNorScaleInfo@ObjEd@@@std@@@std@@IAEXPAUNorScaleInfo@ObjEd@@0@Z 0051efa0 f i Mesh.obj
 0002:00046010       ?_Insert_n@?$vector@UNorScaleInfo@ObjEd@@V?$allocator@UNorScaleInfo@ObjEd@@@std@@@std@@IAEXV?$_Vector_const_iterator@UNorScaleInfo@ObjEd@@V?$allocator@UNorScaleInfo@ObjEd@@@std@@@2@IABUNorScaleInfo@ObjEd@@@Z 0051f010 f i Mesh.obj
 0002:000465e0       ?_Xlen@?$vector@UNorScaleInfo@ObjEd@@V?$allocator@UNorScaleInfo@ObjEd@@@std@@@std@@KAXXZ 0051f5e0 f i Mesh.obj
 0002:000466d0       ?_Orphan_range@?$vector@UNorScaleInfo@ObjEd@@V?$allocator@UNorScaleInfo@ObjEd@@@std@@@std@@IBEXPAUNorScaleInfo@ObjEd@@0@Z 0051f6d0 f i Mesh.obj
 0002:000467e0       ??0?$_Container_base_aux_alloc_empty@V?$allocator@UNorScaleInfo@ObjEd@@@std@@@std@@IAE@V?$allocator@UNorScaleInfo@ObjEd@@@1@@Z 0051f7e0 f i Mesh.obj
 0002:00046850       ??0?$allocator@UNorScaleInfo@ObjEd@@@std@@QAE@ABV01@@Z 0051f850 f i Mesh.obj
 0002:00046890       ?deallocate@?$allocator@UNorScaleInfo@ObjEd@@@std@@QAEXPAUNorScaleInfo@ObjEd@@I@Z 0051f890 f i Mesh.obj
 0002:000468f0       ?allocate@?$allocator@UNorScaleInfo@ObjEd@@@std@@QAEPAUNorScaleInfo@ObjEd@@I@Z 0051f8f0 f i Mesh.obj
 0002:00046950       ?begin@?$vector@PAVEditableMeshModel@@V?$allocator@PAVEditableMeshModel@@@std@@@std@@QAE?AV?$_Vector_iterator@PAVEditableMeshModel@@V?$allocator@PAVEditableMeshModel@@@std@@@2@XZ 0051f950 f i Mesh.obj
 0002:000469e0       ?max_size@?$vector@PAVEditableMeshModel@@V?$allocator@PAVEditableMeshModel@@@std@@@std@@QBEIXZ 0051f9e0 f i Mesh.obj
 0002:00046a40       ?_Destroy@?$vector@PAVEditableMeshModel@@V?$allocator@PAVEditableMeshModel@@@std@@@std@@IAEXPAPAVEditableMeshModel@@0@Z 0051fa40 f i Mesh.obj
 0002:00046ab0       ?_Insert_n@?$vector@PAVEditableMeshModel@@V?$allocator@PAVEditableMeshModel@@@std@@@std@@IAEXV?$_Vector_const_iterator@PAVEditableMeshModel@@V?$allocator@PAVEditableMeshModel@@@std@@@2@IABQAVEditableMeshModel@@@Z 0051fab0 f i Mesh.obj
 0002:00047010       ?_Xlen@?$vector@PAVEditableMeshModel@@V?$allocator@PAVEditableMeshModel@@@std@@@std@@KAXXZ 00520010 f i Mesh.obj
 0002:00047100       ??0?$_Container_base_aux_alloc_empty@V?$allocator@PAVEditableMeshModel@@@std@@@std@@IAE@V?$allocator@PAVEditableMeshModel@@@1@@Z 00520100 f i Mesh.obj
 0002:00047170       ?deallocate@?$allocator@PAVEditableMeshModel@@@std@@QAEXPAPAVEditableMeshModel@@I@Z 00520170 f i Mesh.obj
 0002:000471d0       ?allocate@?$allocator@PAVEditableMeshModel@@@std@@QAEPAPAVEditableMeshModel@@I@Z 005201d0 f i Mesh.obj
 0002:00047230       ?_Destroy@?$vector@VFace@@V?$allocator@VFace@@@std@@@std@@IAEXPAVFace@@0@Z 00520230 f i Mesh.obj
 0002:000472a0       ?deallocate@?$allocator@VFace@@@std@@QAEXPAVFace@@I@Z 005202a0 f i Mesh.obj
 0002:00047300       ?_Prevnode@?$list@HV?$allocator@H@std@@@std@@KAAAPAU_Node@?$_List_nod@HV?$allocator@H@std@@@2@PAU342@@Z 00520300 f i Mesh.obj
 0002:00047340       ?_Myval@?$list@HV?$allocator@H@std@@@std@@KAAAHPAU_Node@?$_List_nod@HV?$allocator@H@std@@@2@@Z 00520340 f i Mesh.obj
 0002:00047380       ?_Make_iter@?$list@HV?$allocator@H@std@@@std@@QBE?AV?$_Iterator@$00@12@V?$_Const_iterator@$00@12@@Z 00520380 f i Mesh.obj
 0002:00047450       ?erase@?$list@HV?$allocator@H@std@@@std@@QAE?AV?$_Iterator@$00@12@V?$_Const_iterator@$00@12@0@Z 00520450 f i Mesh.obj
 0002:000477b0       ?clear@?$list@HV?$allocator@H@std@@@std@@QAEXXZ 005207b0 f i Mesh.obj
 0002:000478c0       ?splice@?$list@HV?$allocator@H@std@@@std@@QAEXV?$_Const_iterator@$00@12@AAV12@00@Z 005208c0 f i Mesh.obj
 0002:00047dd0       ?_Buynode@?$list@HV?$allocator@H@std@@@std@@IAEPAU_Node@?$_List_nod@HV?$allocator@H@std@@@2@PAU342@0ABH@Z 00520dd0 f i Mesh.obj
 0002:00047fb0       ?_Incsize@?$list@HV?$allocator@H@std@@@std@@IAEXI@Z 00520fb0 f i Mesh.obj
 0002:000480d0       ?_Orphan_ptr@?$list@HV?$allocator@H@std@@@std@@IBEXAAV12@PAU_Node@?$_List_nod@HV?$allocator@H@std@@@2@@Z 005210d0 f i Mesh.obj
 0002:000481f0       ??0?$_List_ptr@HV?$allocator@H@std@@@std@@IAE@V?$allocator@H@1@@Z 005211f0 f i Mesh.obj
 0002:00048270       ?deallocate@?$allocator@U_Node@?$_List_nod@HV?$allocator@H@std@@@std@@@std@@QAEXPAU_Node@?$_List_nod@HV?$allocator@H@std@@@2@I@Z 00521270 f i Mesh.obj
 0002:000482d0       ?allocate@?$allocator@U_Node@?$_List_nod@HV?$allocator@H@std@@@std@@@std@@QAEPAU_Node@?$_List_nod@HV?$allocator@H@std@@@2@I@Z 005212d0 f i Mesh.obj
 0002:00048330       ?destroy@?$allocator@U_Node@?$_List_nod@HV?$allocator@H@std@@@std@@@std@@QAEXPAU_Node@?$_List_nod@HV?$allocator@H@std@@@2@@Z 00521330 f i Mesh.obj
 0002:00048390       ?construct@?$allocator@PAU_Node@?$_List_nod@HV?$allocator@H@std@@@std@@@std@@QAEXPAPAU_Node@?$_List_nod@HV?$allocator@H@std@@@2@ABQAU342@@Z 00521390 f i Mesh.obj
 0002:000483f0       ?destroy@?$allocator@PAU_Node@?$_List_nod@HV?$allocator@H@std@@@std@@@std@@QAEXPAPAU_Node@?$_List_nod@HV?$allocator@H@std@@@2@@Z 005213f0 f i Mesh.obj
 0002:00048450       ??0?$_Const_iterator@$00@?$list@HV?$allocator@H@std@@@std@@QAE@PAU_Node@?$_List_nod@HV?$allocator@H@std@@@2@PBV12@@Z 00521450 f i Mesh.obj
 0002:00048510       ??E?$_Const_iterator@$00@?$list@HV?$allocator@H@std@@@std@@QAE?AV012@H@Z 00521510 f i Mesh.obj
 0002:00048630       ?_Mynode@?$_Const_iterator@$00@?$list@HV?$allocator@H@std@@@std@@QBEPAU_Node@?$_List_nod@HV?$allocator@H@std@@@3@XZ 00521630 f i Mesh.obj
 0002:00048670       ?_Compat@?$_Const_iterator@$00@?$list@HV?$allocator@H@std@@@std@@QBEXABV123@@Z 00521670 f i Mesh.obj
 0002:00048780       ?begin@?$vector@PAVDeferredMeshModel@@V?$allocator@PAVDeferredMeshModel@@@std@@@std@@QAE?AV?$_Vector_iterator@PAVDeferredMeshModel@@V?$allocator@PAVDeferredMeshModel@@@std@@@2@XZ 00521780 f i Mesh.obj
 0002:00048810       ?max_size@?$vector@PAVDeferredMeshModel@@V?$allocator@PAVDeferredMeshModel@@@std@@@std@@QBEIXZ 00521810 f i Mesh.obj
 0002:00048870       ?_Destroy@?$vector@PAVDeferredMeshModel@@V?$allocator@PAVDeferredMeshModel@@@std@@@std@@IAEXPAPAVDeferredMeshModel@@0@Z 00521870 f i Mesh.obj
 0002:000488e0       ?_Insert_n@?$vector@PAVDeferredMeshModel@@V?$allocator@PAVDeferredMeshModel@@@std@@@std@@IAEXV?$_Vector_const_iterator@PAVDeferredMeshModel@@V?$allocator@PAVDeferredMeshModel@@@std@@@2@IABQAVDeferredMeshModel@@@Z 005218e0 f i Mesh.obj
 0002:00048e40       ?_Xlen@?$vector@PAVDeferredMeshModel@@V?$allocator@PAVDeferredMeshModel@@@std@@@std@@KAXXZ 00521e40 f i Mesh.obj
 0002:00048f30       ??0?$_Container_base_aux_alloc_empty@V?$allocator@PAVDeferredMeshModel@@@std@@@std@@IAE@V?$allocator@PAVDeferredMeshModel@@@1@@Z 00521f30 f i Mesh.obj
 0002:00048fa0       ?deallocate@?$allocator@PAVDeferredMeshModel@@@std@@QAEXPAPAVDeferredMeshModel@@I@Z 00521fa0 f i Mesh.obj
 0002:00049000       ?allocate@?$allocator@PAVDeferredMeshModel@@@std@@QAEPAPAVDeferredMeshModel@@I@Z 00522000 f i Mesh.obj
 0002:00049060       ??0?$_Vector_const_iterator@HV?$allocator@H@std@@@std@@QAE@PAHPBV_Container_base_secure@1@@Z 00522060 f i Mesh.obj
 0002:000491a0       ??0?$_Vector_const_iterator@UD3DXVECTOR3@@V?$allocator@UD3DXVECTOR3@@@std@@@std@@QAE@PAUD3DXVECTOR3@@PBV_Container_base_secure@1@@Z 005221a0 f i Mesh.obj
 0002:000492e0       ??0?$_Vector_iterator@USelection@ObjEd@@V?$allocator@USelection@ObjEd@@@std@@@std@@QAE@PAUSelection@ObjEd@@PBV_Container_base_secure@1@@Z 005222e0 f i Mesh.obj
 0002:00049340       ??H?$_Vector_iterator@USelection@ObjEd@@V?$allocator@USelection@ObjEd@@@std@@@std@@QBE?AV01@H@Z 00522340 f i Mesh.obj
 0002:00049460       ??G?$_Vb_iterator@IHV?$vector@_NV?$allocator@_N@std@@@std@@@std@@QBEHABV?$_Vb_const_iterator@IHV?$vector@_NV?$allocator@_N@std@@@std@@@1@@Z 00522460 f i Mesh.obj
 0002:000494c0       ??M?$_Vb_const_iterator@IHV?$vector@_NV?$allocator@_N@std@@@std@@@std@@QBE_NABV01@@Z 005224c0 f i Mesh.obj
 0002:00049570       ??0?$_Vector_const_iterator@VProcTex@ObjEd@@V?$allocator@VProcTex@ObjEd@@@std@@@std@@QAE@PAVProcTex@ObjEd@@PBV_Container_base_secure@1@@Z 00522570 f i Mesh.obj
 0002:000496b0       ??9?$_Vector_const_iterator@VProcTex@ObjEd@@V?$allocator@VProcTex@ObjEd@@@std@@@std@@QBE_NABV01@@Z 005226b0 f i Mesh.obj
 0002:00049720       ??M?$_Vector_const_iterator@VProcTex@ObjEd@@V?$allocator@VProcTex@ObjEd@@@std@@@std@@QBE_NABV01@@Z 00522720 f i Mesh.obj
 0002:00049790       ??0?$_Vector_iterator@VProcTex@ObjEd@@V?$allocator@VProcTex@ObjEd@@@std@@@std@@QAE@PAVProcTex@ObjEd@@PBV_Container_base_secure@1@@Z 00522790 f i Mesh.obj
 0002:000497f0       ??H?$_Vector_iterator@VProcTex@ObjEd@@V?$allocator@VProcTex@ObjEd@@@std@@@std@@QBE?AV01@H@Z 005227f0 f i Mesh.obj
 0002:00049910       ??0?$_Vector_iterator@PAVMeshComponent@@V?$allocator@PAVMeshComponent@@@std@@@std@@QAE@PAPAVMeshComponent@@PBV_Container_base_secure@1@@Z 00522910 f i Mesh.obj
 0002:00049970       ??H?$_Vector_iterator@PAVMeshComponent@@V?$allocator@PAVMeshComponent@@@std@@@std@@QBE?AV01@H@Z 00522970 f i Mesh.obj
 0002:00049a90       ??9?$_Vector_const_iterator@PAVMeshComponent@@V?$allocator@PAVMeshComponent@@@std@@@std@@QBE_NABV01@@Z 00522a90 f i Mesh.obj
 0002:00049b00       ??M?$_Vector_const_iterator@PAVMeshComponent@@V?$allocator@PAVMeshComponent@@@std@@@std@@QBE_NABV01@@Z 00522b00 f i Mesh.obj
 0002:00049b70       ??0?$_Vector_iterator@UBevelVInfo@ObjEd@@V?$allocator@UBevelVInfo@ObjEd@@@std@@@std@@QAE@PAUBevelVInfo@ObjEd@@PBV_Container_base_secure@1@@Z 00522b70 f i Mesh.obj
 0002:00049bd0       ??H?$_Vector_iterator@UBevelVInfo@ObjEd@@V?$allocator@UBevelVInfo@ObjEd@@@std@@@std@@QBE?AV01@H@Z 00522bd0 f i Mesh.obj
 0002:00049cf0       ??9?$_Vector_const_iterator@UBevelVInfo@ObjEd@@V?$allocator@UBevelVInfo@ObjEd@@@std@@@std@@QBE_NABV01@@Z 00522cf0 f i Mesh.obj
 0002:00049d60       ??M?$_Vector_const_iterator@UBevelVInfo@ObjEd@@V?$allocator@UBevelVInfo@ObjEd@@@std@@@std@@QBE_NABV01@@Z 00522d60 f i Mesh.obj
 0002:00049dd0       ??0?$_Vector_iterator@UExtrudeInfo@ObjEd@@V?$allocator@UExtrudeInfo@ObjEd@@@std@@@std@@QAE@PAUExtrudeInfo@ObjEd@@PBV_Container_base_secure@1@@Z 00522dd0 f i Mesh.obj
 0002:00049e30       ??H?$_Vector_iterator@UExtrudeInfo@ObjEd@@V?$allocator@UExtrudeInfo@ObjEd@@@std@@@std@@QBE?AV01@H@Z 00522e30 f i Mesh.obj
 0002:00049f50       ??9?$_Vector_const_iterator@UExtrudeInfo@ObjEd@@V?$allocator@UExtrudeInfo@ObjEd@@@std@@@std@@QBE_NABV01@@Z 00522f50 f i Mesh.obj
 0002:00049fc0       ??M?$_Vector_const_iterator@UExtrudeInfo@ObjEd@@V?$allocator@UExtrudeInfo@ObjEd@@@std@@@std@@QBE_NABV01@@Z 00522fc0 f i Mesh.obj
 0002:0004a030       ??0?$_Vector_iterator@UExtrudeMatrixInfo@ObjEd@@V?$allocator@UExtrudeMatrixInfo@ObjEd@@@std@@@std@@QAE@PAUExtrudeMatrixInfo@ObjEd@@PBV_Container_base_secure@1@@Z 00523030 f i Mesh.obj
 0002:0004a090       ??H?$_Vector_iterator@UExtrudeMatrixInfo@ObjEd@@V?$allocator@UExtrudeMatrixInfo@ObjEd@@@std@@@std@@QBE?AV01@H@Z 00523090 f i Mesh.obj
 0002:0004a1b0       ??9?$_Vector_const_iterator@UExtrudeMatrixInfo@ObjEd@@V?$allocator@UExtrudeMatrixInfo@ObjEd@@@std@@@std@@QBE_NABV01@@Z 005231b0 f i Mesh.obj
 0002:0004a220       ??M?$_Vector_const_iterator@UExtrudeMatrixInfo@ObjEd@@V?$allocator@UExtrudeMatrixInfo@ObjEd@@@std@@@std@@QBE_NABV01@@Z 00523220 f i Mesh.obj
 0002:0004a290       ??0?$_Vector_iterator@UExtrudeInnerInfo@ObjEd@@V?$allocator@UExtrudeInnerInfo@ObjEd@@@std@@@std@@QAE@PAUExtrudeInnerInfo@ObjEd@@PBV_Container_base_secure@1@@Z 00523290 f i Mesh.obj
 0002:0004a2f0       ??H?$_Vector_iterator@UExtrudeInnerInfo@ObjEd@@V?$allocator@UExtrudeInnerInfo@ObjEd@@@std@@@std@@QBE?AV01@H@Z 005232f0 f i Mesh.obj
 0002:0004a410       ??9?$_Vector_const_iterator@UExtrudeInnerInfo@ObjEd@@V?$allocator@UExtrudeInnerInfo@ObjEd@@@std@@@std@@QBE_NABV01@@Z 00523410 f i Mesh.obj
 0002:0004a480       ??M?$_Vector_const_iterator@UExtrudeInnerInfo@ObjEd@@V?$allocator@UExtrudeInnerInfo@ObjEd@@@std@@@std@@QBE_NABV01@@Z 00523480 f i Mesh.obj
 0002:0004a4f0       ??0?$_Vector_iterator@UNorScaleInfo@ObjEd@@V?$allocator@UNorScaleInfo@ObjEd@@@std@@@std@@QAE@PAUNorScaleInfo@ObjEd@@PBV_Container_base_secure@1@@Z 005234f0 f i Mesh.obj
 0002:0004a550       ??H?$_Vector_iterator@UNorScaleInfo@ObjEd@@V?$allocator@UNorScaleInfo@ObjEd@@@std@@@std@@QBE?AV01@H@Z 00523550 f i Mesh.obj
 0002:0004a670       ??9?$_Vector_const_iterator@UNorScaleInfo@ObjEd@@V?$allocator@UNorScaleInfo@ObjEd@@@std@@@std@@QBE_NABV01@@Z 00523670 f i Mesh.obj
 0002:0004a6e0       ??M?$_Vector_const_iterator@UNorScaleInfo@ObjEd@@V?$allocator@UNorScaleInfo@ObjEd@@@std@@@std@@QBE_NABV01@@Z 005236e0 f i Mesh.obj
 0002:0004a750       ??0?$_Vector_const_iterator@PAVEditableMeshModel@@V?$allocator@PAVEditableMeshModel@@@std@@@std@@QAE@PAPAVEditableMeshModel@@PBV_Container_base_secure@1@@Z 00523750 f i Mesh.obj
 0002:0004a890       ??G?$_Vector_const_iterator@PAVEditableMeshModel@@V?$allocator@PAVEditableMeshModel@@@std@@@std@@QBEHABV01@@Z 00523890 f i Mesh.obj
 0002:0004a900       ??0?$_Vector_iterator@PAVEditableMeshModel@@V?$allocator@PAVEditableMeshModel@@@std@@@std@@QAE@PAPAVEditableMeshModel@@PBV_Container_base_secure@1@@Z 00523900 f i Mesh.obj
 0002:0004a960       ??H?$_Vector_iterator@PAVEditableMeshModel@@V?$allocator@PAVEditableMeshModel@@@std@@@std@@QBE?AV01@H@Z 00523960 f i Mesh.obj
 0002:0004aa80       ??0?$_Vector_const_iterator@PAVDeferredMeshModel@@V?$allocator@PAVDeferredMeshModel@@@std@@@std@@QAE@PAPAVDeferredMeshModel@@PBV_Container_base_secure@1@@Z 00523a80 f i Mesh.obj
 0002:0004abc0       ??G?$_Vector_const_iterator@PAVDeferredMeshModel@@V?$allocator@PAVDeferredMeshModel@@@std@@@std@@QBEHABV01@@Z 00523bc0 f i Mesh.obj
 0002:0004ac30       ??0?$_Vector_iterator@PAVDeferredMeshModel@@V?$allocator@PAVDeferredMeshModel@@@std@@@std@@QAE@PAPAVDeferredMeshModel@@PBV_Container_base_secure@1@@Z 00523c30 f i Mesh.obj
 0002:0004ac90       ??H?$_Vector_iterator@PAVDeferredMeshModel@@V?$allocator@PAVDeferredMeshModel@@@std@@@std@@QBE?AV01@H@Z 00523c90 f i Mesh.obj
 0002:0004adb0       ??0BevelVInfo@ObjEd@@QAE@ABU01@@Z 00523db0 f i Mesh.obj
 0002:0004aeb0       ??0ExtrudeInfo@ObjEd@@QAE@ABU01@@Z 00523eb0 f i Mesh.obj
 0002:0004afb0       ??0ExtrudeMatrixInfo@ObjEd@@QAE@ABU01@@Z 00523fb0 f i Mesh.obj
 0002:0004b0b0       ??0ExtrudeInnerInfo@ObjEd@@QAE@ABU01@@Z 005240b0 f i Mesh.obj
 0002:0004b1c0       ??0NorScaleInfo@ObjEd@@QAE@ABU01@@Z 005241c0 f i Mesh.obj
 0002:0004b2b0       ??0?$_Bidit@HHPBHABH@std@@QAE@XZ 005242b0 f i Mesh.obj
 0002:0004b310       ??0?$_Ranit@HHPBHABH@std@@QAE@XZ 00524310 f i Mesh.obj
 0002:0004b370       ??0?$_Ranit@UD3DXVECTOR3@@HPBU1@ABU1@@std@@QAE@XZ 00524370 f i Mesh.obj
 0002:0004b3d0       ??0?$_Vector_iterator@USelection@ObjEd@@V?$allocator@USelection@ObjEd@@@std@@@std@@QAE@ABV01@@Z 005243d0 f i Mesh.obj
 0002:0004b430       ??0?$_Ranit@VProcTex@ObjEd@@HPBV12@ABV12@@std@@QAE@XZ 00524430 f i Mesh.obj
 0002:0004b490       ??0?$_Vector_iterator@VProcTex@ObjEd@@V?$allocator@VProcTex@ObjEd@@@std@@@std@@QAE@ABV01@@Z 00524490 f i Mesh.obj
 0002:0004b4f0       ??0?$_Vector_iterator@PAVMeshComponent@@V?$allocator@PAVMeshComponent@@@std@@@std@@QAE@ABV01@@Z 005244f0 f i Mesh.obj
 0002:0004b550       ??0?$_Vector_iterator@UBevelVInfo@ObjEd@@V?$allocator@UBevelVInfo@ObjEd@@@std@@@std@@QAE@ABV01@@Z 00524550 f i Mesh.obj
 0002:0004b5b0       ??0?$_Vector_iterator@UExtrudeInfo@ObjEd@@V?$allocator@UExtrudeInfo@ObjEd@@@std@@@std@@QAE@ABV01@@Z 005245b0 f i Mesh.obj
 0002:0004b610       ??0?$_Vector_iterator@UExtrudeMatrixInfo@ObjEd@@V?$allocator@UExtrudeMatrixInfo@ObjEd@@@std@@@std@@QAE@ABV01@@Z 00524610 f i Mesh.obj
 0002:0004b670       ??0?$_Vector_iterator@UExtrudeInnerInfo@ObjEd@@V?$allocator@UExtrudeInnerInfo@ObjEd@@@std@@@std@@QAE@ABV01@@Z 00524670 f i Mesh.obj
 0002:0004b6d0       ??0?$_Vector_iterator@UNorScaleInfo@ObjEd@@V?$allocator@UNorScaleInfo@ObjEd@@@std@@@std@@QAE@ABV01@@Z 005246d0 f i Mesh.obj
 0002:0004b730       ??0?$_Ranit@PAVEditableMeshModel@@HPBQAV1@ABQAV1@@std@@QAE@XZ 00524730 f i Mesh.obj
 0002:0004b790       ??0?$_Vector_iterator@PAVEditableMeshModel@@V?$allocator@PAVEditableMeshModel@@@std@@@std@@QAE@ABV01@@Z 00524790 f i Mesh.obj
 0002:0004b7f0       ??0?$_Ranit@PAVDeferredMeshModel@@HPBQAV1@ABQAV1@@std@@QAE@XZ 005247f0 f i Mesh.obj
 0002:0004b850       ??0?$_Vector_iterator@PAVDeferredMeshModel@@V?$allocator@PAVDeferredMeshModel@@@std@@@std@@QAE@ABV01@@Z 00524850 f i Mesh.obj
 0002:0004b8b0       ??0?$_Iterator_with_base@Ubidirectional_iterator_tag@std@@HHPBHABHV_Iterator_base@2@@std@@QAE@XZ 005248b0 f i Mesh.obj
 0002:0004b910       ??0?$_Iterator_with_base@Urandom_access_iterator_tag@std@@HHPBHABHV_Iterator_base@2@@std@@QAE@XZ 00524910 f i Mesh.obj
 0002:0004b970       ??0?$_Iterator_with_base@Urandom_access_iterator_tag@std@@UD3DXVECTOR3@@HPBU3@ABU3@V_Iterator_base@2@@std@@QAE@XZ 00524970 f i Mesh.obj
 0002:0004b9d0       ??0?$_Iterator_with_base@Urandom_access_iterator_tag@std@@VProcTex@ObjEd@@HPBV34@ABV34@V_Iterator_base@2@@std@@QAE@XZ 005249d0 f i Mesh.obj
 0002:0004ba30       ??0?$_Iterator_with_base@Urandom_access_iterator_tag@std@@PAVEditableMeshModel@@HPBQAV3@ABQAV3@V_Iterator_base@2@@std@@QAE@XZ 00524a30 f i Mesh.obj
 0002:0004ba90       ??0?$_Iterator_with_base@Urandom_access_iterator_tag@std@@PAVDeferredMeshModel@@HPBQAV3@ABQAV3@V_Iterator_base@2@@std@@QAE@XZ 00524a90 f i Mesh.obj
 0002:0004baf0       ?_Make_iter@?$vector@HV?$allocator@H@std@@@std@@QBE?AV?$_Vector_iterator@HV?$allocator@H@std@@@2@V?$_Vector_const_iterator@HV?$allocator@H@std@@@2@@Z 00524af0 f i Mesh.obj
 0002:0004bbc0       ?_Orphan_range@?$vector@HV?$allocator@H@std@@@std@@IBEXPAH0@Z 00524bc0 f i Mesh.obj
 0002:0004bcd0       ?construct@?$allocator@H@std@@QAEXPAHABH@Z 00524cd0 f i Mesh.obj
 0002:0004bd30       ?max_size@?$allocator@H@std@@QBEIXZ 00524d30 f i Mesh.obj
 0002:0004bda0       ?_Make_iter@?$vector@UD3DXVECTOR3@@V?$allocator@UD3DXVECTOR3@@@std@@@std@@QBE?AV?$_Vector_iterator@UD3DXVECTOR3@@V?$allocator@UD3DXVECTOR3@@@std@@@2@V?$_Vector_const_iterator@UD3DXVECTOR3@@V?$allocator@UD3DXVECTOR3@@@std@@@2@@Z 00524da0 f i Mesh.obj
 0002:0004be70       ?_Orphan_range@?$vector@UD3DXVECTOR3@@V?$allocator@UD3DXVECTOR3@@@std@@@std@@IBEXPAUD3DXVECTOR3@@0@Z 00524e70 f i Mesh.obj
 0002:0004bf80       ?max_size@?$allocator@UD3DXVECTOR3@@@std@@QBEIXZ 00524f80 f i Mesh.obj
 0002:0004bff0       ??0?$vector@V?$vector@PAVHE_vert@@V?$allocator@PAVHE_vert@@@std@@@std@@V?$allocator@V?$vector@PAVHE_vert@@V?$allocator@PAVHE_vert@@@std@@@std@@@2@@std@@QAE@ABV01@@Z 00524ff0 f i Mesh.obj
 0002:0004c190       ?_Make_iter@?$vector@V?$vector@PAVHE_vert@@V?$allocator@PAVHE_vert@@@std@@@std@@V?$allocator@V?$vector@PAVHE_vert@@V?$allocator@PAVHE_vert@@@std@@@std@@@2@@std@@QBE?AV?$_Vector_iterator@V?$vector@PAVHE_vert@@V?$allocator@PAVHE_vert@@@std@@@std@@V?$allocator@V?$vector@PAVHE_vert@@V?$allocator@PAVHE_vert@@@std@@@std@@@2@@2@V?$_Vector_const_iterator@V?$vector@PAVHE_vert@@V?$allocator@PAVHE_vert@@@std@@@std@@V?$allocator@V?$vector@PAVHE_vert@@V?$allocator@PAVHE_vert@@@std@@@std@@@2@@2@@Z 00525190 f i Mesh.obj
 0002:0004c260       ?_Orphan_range@?$vector@V?$vector@PAVHE_vert@@V?$allocator@PAVHE_vert@@@std@@@std@@V?$allocator@V?$vector@PAVHE_vert@@V?$allocator@PAVHE_vert@@@std@@@std@@@2@@std@@IBEXPAV?$vector@PAVHE_vert@@V?$allocator@PAVHE_vert@@@std@@@2@0@Z 00525260 f i Mesh.obj
 0002:0004c370       ??0?$_Container_base_aux_alloc_empty@V?$allocator@V?$vector@PAVHE_vert@@V?$allocator@PAVHE_vert@@@std@@@std@@@std@@@std@@IAE@V?$allocator@V?$vector@PAVHE_vert@@V?$allocator@PAVHE_vert@@@std@@@std@@@1@@Z 00525370 f i Mesh.obj
 0002:0004c3e0       ??0?$allocator@V?$vector@PAVHE_vert@@V?$allocator@PAVHE_vert@@@std@@@std@@@std@@QAE@ABV01@@Z 005253e0 f i Mesh.obj
 0002:0004c420       ?max_size@?$allocator@V?$vector@PAVHE_vert@@V?$allocator@PAVHE_vert@@@std@@@std@@@std@@QBEIXZ 00525420 f i Mesh.obj
 0002:0004c490       ??0?$vector@PAVHE_vert@@V?$allocator@PAVHE_vert@@@std@@@std@@QAE@ABV01@@Z 00525490 f i Mesh.obj
 0002:0004c630       ?_Make_iter@?$vector@PAVHE_vert@@V?$allocator@PAVHE_vert@@@std@@@std@@QBE?AV?$_Vector_iterator@PAVHE_vert@@V?$allocator@PAVHE_vert@@@std@@@2@V?$_Vector_const_iterator@PAVHE_vert@@V?$allocator@PAVHE_vert@@@std@@@2@@Z 00525630 f i Mesh.obj
 0002:0004c700       ?_Orphan_range@?$vector@PAVHE_vert@@V?$allocator@PAVHE_vert@@@std@@@std@@IBEXPAPAVHE_vert@@0@Z 00525700 f i Mesh.obj
 0002:0004c810       ?max_size@?$allocator@PAVHE_vert@@@std@@QBEIXZ 00525810 f i Mesh.obj
 0002:0004c880       ?max_size@?$allocator@USelection@ObjEd@@@std@@QBEIXZ 00525880 f i Mesh.obj
 0002:0004c8f0       ??8?$_Vector_const_iterator@USelection@ObjEd@@V?$allocator@USelection@ObjEd@@@std@@@std@@QBE_NABV01@@Z 005258f0 f i Mesh.obj
 0002:0004c960       ?_Compat@?$_Vector_const_iterator@USelection@ObjEd@@V?$allocator@USelection@ObjEd@@@std@@@std@@QBEXABV12@@Z 00525960 f i Mesh.obj
 0002:0004ca60       ?_Make_iter@?$vector@UEdgeIntersection@ObjEd@@V?$allocator@UEdgeIntersection@ObjEd@@@std@@@std@@QBE?AV?$_Vector_iterator@UEdgeIntersection@ObjEd@@V?$allocator@UEdgeIntersection@ObjEd@@@std@@@2@V?$_Vector_const_iterator@UEdgeIntersection@ObjEd@@V?$allocator@UEdgeIntersection@ObjEd@@@std@@@2@@Z 00525a60 f i Mesh.obj
 0002:0004cb30       ?_Orphan_range@?$vector@UEdgeIntersection@ObjEd@@V?$allocator@UEdgeIntersection@ObjEd@@@std@@@std@@IBEXPAUEdgeIntersection@ObjEd@@0@Z 00525b30 f i Mesh.obj
 0002:0004cc40       ?max_size@?$allocator@UEdgeIntersection@ObjEd@@@std@@QBEIXZ 00525c40 f i Mesh.obj
 0002:0004ccb0       ?capacity@?$vector@_NV?$allocator@_N@std@@@std@@QBEIXZ 00525cb0 f i Mesh.obj
 0002:0004cd10       ?resize@?$vector@IV?$allocator@I@std@@@std@@QAEXII@Z 00525d10 f i Mesh.obj
 0002:0004cfb0       ?_Ufill@?$vector@VProcTex@ObjEd@@V?$allocator@VProcTex@ObjEd@@@std@@@std@@IAEPAVProcTex@ObjEd@@PAV34@IABV34@@Z 00525fb0 f i Mesh.obj
 0002:0004d030       ?max_size@?$allocator@VProcTex@ObjEd@@@std@@QBEIXZ 00526030 f i Mesh.obj
 0002:0004d0a0       ?capacity@?$vector@PAVMeshComponent@@V?$allocator@PAVMeshComponent@@@std@@@std@@QBEIXZ 005260a0 f i Mesh.obj
 0002:0004d110       ?_Ufill@?$vector@PAVMeshComponent@@V?$allocator@PAVMeshComponent@@@std@@@std@@IAEPAPAVMeshComponent@@PAPAV3@IABQAV3@@Z 00526110 f i Mesh.obj
 0002:0004d190       ?max_size@?$allocator@PAVMeshComponent@@@std@@QBEIXZ 00526190 f i Mesh.obj
 0002:0004d200       ?capacity@?$vector@UBevelVInfo@ObjEd@@V?$allocator@UBevelVInfo@ObjEd@@@std@@@std@@QBEIXZ 00526200 f i Mesh.obj
 0002:0004d280       ?_Ufill@?$vector@UBevelVInfo@ObjEd@@V?$allocator@UBevelVInfo@ObjEd@@@std@@@std@@IAEPAUBevelVInfo@ObjEd@@PAU34@IABU34@@Z 00526280 f i Mesh.obj
 0002:0004d300       ?max_size@?$allocator@UBevelVInfo@ObjEd@@@std@@QBEIXZ 00526300 f i Mesh.obj
 0002:0004d370       ?capacity@?$vector@UExtrudeInfo@ObjEd@@V?$allocator@UExtrudeInfo@ObjEd@@@std@@@std@@QBEIXZ 00526370 f i Mesh.obj
 0002:0004d3f0       ?_Ufill@?$vector@UExtrudeInfo@ObjEd@@V?$allocator@UExtrudeInfo@ObjEd@@@std@@@std@@IAEPAUExtrudeInfo@ObjEd@@PAU34@IABU34@@Z 005263f0 f i Mesh.obj
 0002:0004d470       ?max_size@?$allocator@UExtrudeInfo@ObjEd@@@std@@QBEIXZ 00526470 f i Mesh.obj
 0002:0004d4e0       ?capacity@?$vector@UExtrudeMatrixInfo@ObjEd@@V?$allocator@UExtrudeMatrixInfo@ObjEd@@@std@@@std@@QBEIXZ 005264e0 f i Mesh.obj
 0002:0004d560       ?_Ufill@?$vector@UExtrudeMatrixInfo@ObjEd@@V?$allocator@UExtrudeMatrixInfo@ObjEd@@@std@@@std@@IAEPAUExtrudeMatrixInfo@ObjEd@@PAU34@IABU34@@Z 00526560 f i Mesh.obj
 0002:0004d5e0       ?max_size@?$allocator@UExtrudeMatrixInfo@ObjEd@@@std@@QBEIXZ 005265e0 f i Mesh.obj
 0002:0004d650       ?capacity@?$vector@UExtrudeInnerInfo@ObjEd@@V?$allocator@UExtrudeInnerInfo@ObjEd@@@std@@@std@@QBEIXZ 00526650 f i Mesh.obj
 0002:0004d6d0       ?_Ufill@?$vector@UExtrudeInnerInfo@ObjEd@@V?$allocator@UExtrudeInnerInfo@ObjEd@@@std@@@std@@IAEPAUExtrudeInnerInfo@ObjEd@@PAU34@IABU34@@Z 005266d0 f i Mesh.obj
 0002:0004d750       ?max_size@?$allocator@UExtrudeInnerInfo@ObjEd@@@std@@QBEIXZ 00526750 f i Mesh.obj
 0002:0004d7c0       ?capacity@?$vector@UNorScaleInfo@ObjEd@@V?$allocator@UNorScaleInfo@ObjEd@@@std@@@std@@QBEIXZ 005267c0 f i Mesh.obj
 0002:0004d840       ?_Ufill@?$vector@UNorScaleInfo@ObjEd@@V?$allocator@UNorScaleInfo@ObjEd@@@std@@@std@@IAEPAUNorScaleInfo@ObjEd@@PAU34@IABU34@@Z 00526840 f i Mesh.obj
 0002:0004d8c0       ?max_size@?$allocator@UNorScaleInfo@ObjEd@@@std@@QBEIXZ 005268c0 f i Mesh.obj
 0002:0004d930       ?max_size@?$allocator@PAVEditableMeshModel@@@std@@QBEIXZ 00526930 f i Mesh.obj
 0002:0004d9a0       ?max_size@?$list@HV?$allocator@H@std@@@std@@QBEIXZ 005269a0 f i Mesh.obj
 0002:0004da00       ??0?$_List_nod@HV?$allocator@H@std@@@std@@IAE@V?$allocator@H@1@@Z 00526a00 f i Mesh.obj
 0002:0004da80       ?max_size@?$allocator@PAVDeferredMeshModel@@@std@@QBEIXZ 00526a80 f i Mesh.obj
 0002:0004daf0       ??9?$_Vector_const_iterator@HV?$allocator@H@std@@@std@@QBE_NABV01@@Z 00526af0 f i Mesh.obj
 0002:0004db60       ??M?$_Vector_const_iterator@HV?$allocator@H@std@@@std@@QBE_NABV01@@Z 00526b60 f i Mesh.obj
 0002:0004dbd0       ??9?$_Vector_const_iterator@UD3DXVECTOR3@@V?$allocator@UD3DXVECTOR3@@@std@@@std@@QBE_NABV01@@Z 00526bd0 f i Mesh.obj
 0002:0004dc40       ??M?$_Vector_const_iterator@UD3DXVECTOR3@@V?$allocator@UD3DXVECTOR3@@@std@@@std@@QBE_NABV01@@Z 00526c40 f i Mesh.obj
 0002:0004dcb0       ??Y?$_Vector_iterator@USelection@ObjEd@@V?$allocator@USelection@ObjEd@@@std@@@std@@QAEAAV01@H@Z 00526cb0 f i Mesh.obj
 0002:0004dd10       ??G?$_Vb_const_iterator@IHV?$vector@_NV?$allocator@_N@std@@@std@@@std@@QBEHABV01@@Z 00526d10 f i Mesh.obj
 0002:0004dd90       ?_Compat@?$_Vb_const_iterator@IHV?$vector@_NV?$allocator@_N@std@@@std@@@std@@IBEXABV12@@Z 00526d90 f i Mesh.obj
 0002:0004de20       ??8?$_Vector_const_iterator@VProcTex@ObjEd@@V?$allocator@VProcTex@ObjEd@@@std@@@std@@QBE_NABV01@@Z 00526e20 f i Mesh.obj
 0002:0004de90       ?_Compat@?$_Vector_const_iterator@VProcTex@ObjEd@@V?$allocator@VProcTex@ObjEd@@@std@@@std@@QBEXABV12@@Z 00526e90 f i Mesh.obj
 0002:0004df90       ??Y?$_Vector_iterator@VProcTex@ObjEd@@V?$allocator@VProcTex@ObjEd@@@std@@@std@@QAEAAV01@H@Z 00526f90 f i Mesh.obj
 0002:0004dff0       ??Y?$_Vector_iterator@PAVMeshComponent@@V?$allocator@PAVMeshComponent@@@std@@@std@@QAEAAV01@H@Z 00526ff0 f i Mesh.obj
 0002:0004e050       ??0?$_Vector_const_iterator@PAVMeshComponent@@V?$allocator@PAVMeshComponent@@@std@@@std@@QAE@PAPAVMeshComponent@@PBV_Container_base_secure@1@@Z 00527050 f i Mesh.obj
 0002:0004e190       ??8?$_Vector_const_iterator@PAVMeshComponent@@V?$allocator@PAVMeshComponent@@@std@@@std@@QBE_NABV01@@Z 00527190 f i Mesh.obj
 0002:0004e200       ?_Compat@?$_Vector_const_iterator@PAVMeshComponent@@V?$allocator@PAVMeshComponent@@@std@@@std@@QBEXABV12@@Z 00527200 f i Mesh.obj
 0002:0004e300       ??Y?$_Vector_iterator@UBevelVInfo@ObjEd@@V?$allocator@UBevelVInfo@ObjEd@@@std@@@std@@QAEAAV01@H@Z 00527300 f i Mesh.obj
 0002:0004e360       ??0?$_Vector_const_iterator@UBevelVInfo@ObjEd@@V?$allocator@UBevelVInfo@ObjEd@@@std@@@std@@QAE@PAUBevelVInfo@ObjEd@@PBV_Container_base_secure@1@@Z 00527360 f i Mesh.obj
 0002:0004e4a0       ??8?$_Vector_const_iterator@UBevelVInfo@ObjEd@@V?$allocator@UBevelVInfo@ObjEd@@@std@@@std@@QBE_NABV01@@Z 005274a0 f i Mesh.obj
 0002:0004e510       ?_Compat@?$_Vector_const_iterator@UBevelVInfo@ObjEd@@V?$allocator@UBevelVInfo@ObjEd@@@std@@@std@@QBEXABV12@@Z 00527510 f i Mesh.obj
 0002:0004e610       ??Y?$_Vector_iterator@UExtrudeInfo@ObjEd@@V?$allocator@UExtrudeInfo@ObjEd@@@std@@@std@@QAEAAV01@H@Z 00527610 f i Mesh.obj
 0002:0004e670       ??0?$_Vector_const_iterator@UExtrudeInfo@ObjEd@@V?$allocator@UExtrudeInfo@ObjEd@@@std@@@std@@QAE@PAUExtrudeInfo@ObjEd@@PBV_Container_base_secure@1@@Z 00527670 f i Mesh.obj
 0002:0004e7b0       ??8?$_Vector_const_iterator@UExtrudeInfo@ObjEd@@V?$allocator@UExtrudeInfo@ObjEd@@@std@@@std@@QBE_NABV01@@Z 005277b0 f i Mesh.obj
 0002:0004e820       ?_Compat@?$_Vector_const_iterator@UExtrudeInfo@ObjEd@@V?$allocator@UExtrudeInfo@ObjEd@@@std@@@std@@QBEXABV12@@Z 00527820 f i Mesh.obj
 0002:0004e920       ??Y?$_Vector_iterator@UExtrudeMatrixInfo@ObjEd@@V?$allocator@UExtrudeMatrixInfo@ObjEd@@@std@@@std@@QAEAAV01@H@Z 00527920 f i Mesh.obj
 0002:0004e980       ??0?$_Vector_const_iterator@UExtrudeMatrixInfo@ObjEd@@V?$allocator@UExtrudeMatrixInfo@ObjEd@@@std@@@std@@QAE@PAUExtrudeMatrixInfo@ObjEd@@PBV_Container_base_secure@1@@Z 00527980 f i Mesh.obj
 0002:0004eac0       ??8?$_Vector_const_iterator@UExtrudeMatrixInfo@ObjEd@@V?$allocator@UExtrudeMatrixInfo@ObjEd@@@std@@@std@@QBE_NABV01@@Z 00527ac0 f i Mesh.obj
 0002:0004eb30       ?_Compat@?$_Vector_const_iterator@UExtrudeMatrixInfo@ObjEd@@V?$allocator@UExtrudeMatrixInfo@ObjEd@@@std@@@std@@QBEXABV12@@Z 00527b30 f i Mesh.obj
 0002:0004ec30       ??Y?$_Vector_iterator@UExtrudeInnerInfo@ObjEd@@V?$allocator@UExtrudeInnerInfo@ObjEd@@@std@@@std@@QAEAAV01@H@Z 00527c30 f i Mesh.obj
 0002:0004ec90       ??0?$_Vector_const_iterator@UExtrudeInnerInfo@ObjEd@@V?$allocator@UExtrudeInnerInfo@ObjEd@@@std@@@std@@QAE@PAUExtrudeInnerInfo@ObjEd@@PBV_Container_base_secure@1@@Z 00527c90 f i Mesh.obj
 0002:0004edd0       ??8?$_Vector_const_iterator@UExtrudeInnerInfo@ObjEd@@V?$allocator@UExtrudeInnerInfo@ObjEd@@@std@@@std@@QBE_NABV01@@Z 00527dd0 f i Mesh.obj
 0002:0004ee40       ?_Compat@?$_Vector_const_iterator@UExtrudeInnerInfo@ObjEd@@V?$allocator@UExtrudeInnerInfo@ObjEd@@@std@@@std@@QBEXABV12@@Z 00527e40 f i Mesh.obj
 0002:0004ef40       ??Y?$_Vector_iterator@UNorScaleInfo@ObjEd@@V?$allocator@UNorScaleInfo@ObjEd@@@std@@@std@@QAEAAV01@H@Z 00527f40 f i Mesh.obj
 0002:0004efa0       ??0?$_Vector_const_iterator@UNorScaleInfo@ObjEd@@V?$allocator@UNorScaleInfo@ObjEd@@@std@@@std@@QAE@PAUNorScaleInfo@ObjEd@@PBV_Container_base_secure@1@@Z 00527fa0 f i Mesh.obj
 0002:0004f0e0       ??8?$_Vector_const_iterator@UNorScaleInfo@ObjEd@@V?$allocator@UNorScaleInfo@ObjEd@@@std@@@std@@QBE_NABV01@@Z 005280e0 f i Mesh.obj
 0002:0004f150       ?_Compat@?$_Vector_const_iterator@UNorScaleInfo@ObjEd@@V?$allocator@UNorScaleInfo@ObjEd@@@std@@@std@@QBEXABV12@@Z 00528150 f i Mesh.obj
 0002:0004f250       ?_Compat@?$_Vector_const_iterator@PAVEditableMeshModel@@V?$allocator@PAVEditableMeshModel@@@std@@@std@@QBEXABV12@@Z 00528250 f i Mesh.obj
 0002:0004f350       ??Y?$_Vector_iterator@PAVEditableMeshModel@@V?$allocator@PAVEditableMeshModel@@@std@@@std@@QAEAAV01@H@Z 00528350 f i Mesh.obj
 0002:0004f3b0       ?_Compat@?$_Vector_const_iterator@PAVDeferredMeshModel@@V?$allocator@PAVDeferredMeshModel@@@std@@@std@@QBEXABV12@@Z 005283b0 f i Mesh.obj
 0002:0004f4b0       ??Y?$_Vector_iterator@PAVDeferredMeshModel@@V?$allocator@PAVDeferredMeshModel@@@std@@@std@@QAEAAV01@H@Z 005284b0 f i Mesh.obj
 0002:0004f510       ??0?$_Vector_iterator@HV?$allocator@H@std@@@std@@QAE@PAHPBV_Container_base_secure@1@@Z 00528510 f i Mesh.obj
 0002:0004f570       ??0?$_Vector_iterator@UD3DXVECTOR3@@V?$allocator@UD3DXVECTOR3@@@std@@@std@@QAE@PAUD3DXVECTOR3@@PBV_Container_base_secure@1@@Z 00528570 f i Mesh.obj
 0002:0004f5d0       ??0?$_Vector_iterator@V?$vector@PAVHE_vert@@V?$allocator@PAVHE_vert@@@std@@@std@@V?$allocator@V?$vector@PAVHE_vert@@V?$allocator@PAVHE_vert@@@std@@@std@@@2@@std@@QAE@PAV?$vector@PAVHE_vert@@V?$allocator@PAVHE_vert@@@std@@@1@PBV_Container_base_secure@1@@Z 005285d0 f i Mesh.obj
 0002:0004f630       ??9?$_Vector_const_iterator@V?$vector@PAVHE_vert@@V?$allocator@PAVHE_vert@@@std@@@std@@V?$allocator@V?$vector@PAVHE_vert@@V?$allocator@PAVHE_vert@@@std@@@std@@@2@@std@@QBE_NABV01@@Z 00528630 f i Mesh.obj
 0002:0004f6a0       ??M?$_Vector_const_iterator@V?$vector@PAVHE_vert@@V?$allocator@PAVHE_vert@@@std@@@std@@V?$allocator@V?$vector@PAVHE_vert@@V?$allocator@PAVHE_vert@@@std@@@std@@@2@@std@@QBE_NABV01@@Z 005286a0 f i Mesh.obj
 0002:0004f710       ??0?$_Vector_iterator@PAVHE_vert@@V?$allocator@PAVHE_vert@@@std@@@std@@QAE@PAPAVHE_vert@@PBV_Container_base_secure@1@@Z 00528710 f i Mesh.obj
 0002:0004f770       ??9?$_Vector_const_iterator@PAVHE_vert@@V?$allocator@PAVHE_vert@@@std@@@std@@QBE_NABV01@@Z 00528770 f i Mesh.obj
 0002:0004f7e0       ??M?$_Vector_const_iterator@PAVHE_vert@@V?$allocator@PAVHE_vert@@@std@@@std@@QBE_NABV01@@Z 005287e0 f i Mesh.obj
 0002:0004f850       ??0?$_Vector_iterator@UEdgeIntersection@ObjEd@@V?$allocator@UEdgeIntersection@ObjEd@@@std@@@std@@QAE@PAUEdgeIntersection@ObjEd@@PBV_Container_base_secure@1@@Z 00528850 f i Mesh.obj
 0002:0004f8b0       ??9?$_Vector_const_iterator@UEdgeIntersection@ObjEd@@V?$allocator@UEdgeIntersection@ObjEd@@@std@@@std@@QBE_NABV01@@Z 005288b0 f i Mesh.obj
 0002:0004f920       ??M?$_Vector_const_iterator@UEdgeIntersection@ObjEd@@V?$allocator@UEdgeIntersection@ObjEd@@@std@@@std@@QBE_NABV01@@Z 00528920 f i Mesh.obj
 0002:0004f990       ??0?$_Ranit@PAVMeshComponent@@HPBQAV1@ABQAV1@@std@@QAE@XZ 00528990 f i Mesh.obj
 0002:0004f9f0       ??0?$_Ranit@UBevelVInfo@ObjEd@@HPBU12@ABU12@@std@@QAE@XZ 005289f0 f i Mesh.obj
 0002:0004fa50       ??0?$_Ranit@UExtrudeInfo@ObjEd@@HPBU12@ABU12@@std@@QAE@XZ 00528a50 f i Mesh.obj
 0002:0004fab0       ??0?$_Ranit@UExtrudeMatrixInfo@ObjEd@@HPBU12@ABU12@@std@@QAE@XZ 00528ab0 f i Mesh.obj
 0002:0004fb10       ??0?$_Ranit@UExtrudeInnerInfo@ObjEd@@HPBU12@ABU12@@std@@QAE@XZ 00528b10 f i Mesh.obj
 0002:0004fb70       ??0?$_Ranit@UNorScaleInfo@ObjEd@@HPBU12@ABU12@@std@@QAE@XZ 00528b70 f i Mesh.obj
 0002:0004fbd0       ??0?$_Iterator_with_base@Urandom_access_iterator_tag@std@@PAVMeshComponent@@HPBQAV3@ABQAV3@V_Iterator_base@2@@std@@QAE@XZ 00528bd0 f i Mesh.obj
 0002:0004fc30       ??0?$_Iterator_with_base@Urandom_access_iterator_tag@std@@UBevelVInfo@ObjEd@@HPBU34@ABU34@V_Iterator_base@2@@std@@QAE@XZ 00528c30 f i Mesh.obj
 0002:0004fc90       ??0?$_Iterator_with_base@Urandom_access_iterator_tag@std@@UExtrudeInfo@ObjEd@@HPBU34@ABU34@V_Iterator_base@2@@std@@QAE@XZ 00528c90 f i Mesh.obj
 0002:0004fcf0       ??0?$_Iterator_with_base@Urandom_access_iterator_tag@std@@UExtrudeMatrixInfo@ObjEd@@HPBU34@ABU34@V_Iterator_base@2@@std@@QAE@XZ 00528cf0 f i Mesh.obj
 0002:0004fd50       ??0?$_Iterator_with_base@Urandom_access_iterator_tag@std@@UExtrudeInnerInfo@ObjEd@@HPBU34@ABU34@V_Iterator_base@2@@std@@QAE@XZ 00528d50 f i Mesh.obj
 0002:0004fdb0       ??0?$_Iterator_with_base@Urandom_access_iterator_tag@std@@UNorScaleInfo@ObjEd@@HPBU34@ABU34@V_Iterator_base@2@@std@@QAE@XZ 00528db0 f i Mesh.obj
 0002:0004fe10       ?begin@?$vector@V?$vector@PAVHE_vert@@V?$allocator@PAVHE_vert@@@std@@@std@@V?$allocator@V?$vector@PAVHE_vert@@V?$allocator@PAVHE_vert@@@std@@@std@@@2@@std@@QBE?AV?$_Vector_const_iterator@V?$vector@PAVHE_vert@@V?$allocator@PAVHE_vert@@@std@@@std@@V?$allocator@V?$vector@PAVHE_vert@@V?$allocator@PAVHE_vert@@@std@@@std@@@2@@2@XZ 00528e10 f i Mesh.obj
 0002:0004fea0       ?end@?$vector@V?$vector@PAVHE_vert@@V?$allocator@PAVHE_vert@@@std@@@std@@V?$allocator@V?$vector@PAVHE_vert@@V?$allocator@PAVHE_vert@@@std@@@std@@@2@@std@@QBE?AV?$_Vector_const_iterator@V?$vector@PAVHE_vert@@V?$allocator@PAVHE_vert@@@std@@@std@@V?$allocator@V?$vector@PAVHE_vert@@V?$allocator@PAVHE_vert@@@std@@@std@@@2@@2@XZ 00528ea0 f i Mesh.obj
 0002:0004ff30       ?begin@?$vector@PAVHE_vert@@V?$allocator@PAVHE_vert@@@std@@@std@@QBE?AV?$_Vector_const_iterator@PAVHE_vert@@V?$allocator@PAVHE_vert@@@std@@@2@XZ 00528f30 f i Mesh.obj
 0002:0004ffc0       ?end@?$vector@PAVHE_vert@@V?$allocator@PAVHE_vert@@@std@@@std@@QBE?AV?$_Vector_const_iterator@PAVHE_vert@@V?$allocator@PAVHE_vert@@@std@@@2@XZ 00528fc0 f i Mesh.obj
 0002:00050050       ??Y?$_Vector_const_iterator@USelection@ObjEd@@V?$allocator@USelection@ObjEd@@@std@@@std@@QAEAAV01@H@Z 00529050 f i Mesh.obj
 0002:000501e0       ?capacity@?$vector@IV?$allocator@I@std@@@std@@QBEIXZ 005291e0 f i Mesh.obj
 0002:00050250       ?_Insert_n@?$vector@IV?$allocator@I@std@@@std@@IAEXV?$_Vector_const_iterator@IV?$allocator@I@std@@@2@IABI@Z 00529250 f i Mesh.obj
 0002:000507b0       ??8?$_Vector_const_iterator@HV?$allocator@H@std@@@std@@QBE_NABV01@@Z 005297b0 f i Mesh.obj
 0002:00050820       ?_Compat@?$_Vector_const_iterator@HV?$allocator@H@std@@@std@@QBEXABV12@@Z 00529820 f i Mesh.obj
 0002:00050920       ??8?$_Vector_const_iterator@UD3DXVECTOR3@@V?$allocator@UD3DXVECTOR3@@@std@@@std@@QBE_NABV01@@Z 00529920 f i Mesh.obj
 0002:00050990       ?_Compat@?$_Vector_const_iterator@UD3DXVECTOR3@@V?$allocator@UD3DXVECTOR3@@@std@@@std@@QBEXABV12@@Z 00529990 f i Mesh.obj
 0002:00050a90       ??Y?$_Vector_const_iterator@VProcTex@ObjEd@@V?$allocator@VProcTex@ObjEd@@@std@@@std@@QAEAAV01@H@Z 00529a90 f i Mesh.obj
 0002:00050c30       ??Y?$_Vector_const_iterator@PAVMeshComponent@@V?$allocator@PAVMeshComponent@@@std@@@std@@QAEAAV01@H@Z 00529c30 f i Mesh.obj
 0002:00050dc0       ??Y?$_Vector_const_iterator@UBevelVInfo@ObjEd@@V?$allocator@UBevelVInfo@ObjEd@@@std@@@std@@QAEAAV01@H@Z 00529dc0 f i Mesh.obj
 0002:00050f50       ??Y?$_Vector_const_iterator@UExtrudeInfo@ObjEd@@V?$allocator@UExtrudeInfo@ObjEd@@@std@@@std@@QAEAAV01@H@Z 00529f50 f i Mesh.obj
 0002:000510e0       ??Y?$_Vector_const_iterator@UExtrudeMatrixInfo@ObjEd@@V?$allocator@UExtrudeMatrixInfo@ObjEd@@@std@@@std@@QAEAAV01@H@Z 0052a0e0 f i Mesh.obj
 0002:00051270       ??Y?$_Vector_const_iterator@UExtrudeInnerInfo@ObjEd@@V?$allocator@UExtrudeInnerInfo@ObjEd@@@std@@@std@@QAEAAV01@H@Z 0052a270 f i Mesh.obj
 0002:00051400       ??Y?$_Vector_const_iterator@UNorScaleInfo@ObjEd@@V?$allocator@UNorScaleInfo@ObjEd@@@std@@@std@@QAEAAV01@H@Z 0052a400 f i Mesh.obj
 0002:00051590       ??Y?$_Vector_const_iterator@PAVEditableMeshModel@@V?$allocator@PAVEditableMeshModel@@@std@@@std@@QAEAAV01@H@Z 0052a590 f i Mesh.obj
 0002:00051720       ??Y?$_Vector_const_iterator@PAVDeferredMeshModel@@V?$allocator@PAVDeferredMeshModel@@@std@@@std@@QAEAAV01@H@Z 0052a720 f i Mesh.obj
 0002:000518b0       ??0?$_Vector_const_iterator@V?$vector@PAVHE_vert@@V?$allocator@PAVHE_vert@@@std@@@std@@V?$allocator@V?$vector@PAVHE_vert@@V?$allocator@PAVHE_vert@@@std@@@std@@@2@@std@@QAE@PAV?$vector@PAVHE_vert@@V?$allocator@PAVHE_vert@@@std@@@1@PBV_Container_base_secure@1@@Z 0052a8b0 f i Mesh.obj
 0002:000519f0       ??8?$_Vector_const_iterator@V?$vector@PAVHE_vert@@V?$allocator@PAVHE_vert@@@std@@@std@@V?$allocator@V?$vector@PAVHE_vert@@V?$allocator@PAVHE_vert@@@std@@@std@@@2@@std@@QBE_NABV01@@Z 0052a9f0 f i Mesh.obj
 0002:00051a60       ?_Compat@?$_Vector_const_iterator@V?$vector@PAVHE_vert@@V?$allocator@PAVHE_vert@@@std@@@std@@V?$allocator@V?$vector@PAVHE_vert@@V?$allocator@PAVHE_vert@@@std@@@std@@@2@@std@@QBEXABV12@@Z 0052aa60 f i Mesh.obj
 0002:00051b60       ??0?$_Vector_const_iterator@PAVHE_vert@@V?$allocator@PAVHE_vert@@@std@@@std@@QAE@PAPAVHE_vert@@PBV_Container_base_secure@1@@Z 0052ab60 f i Mesh.obj
 0002:00051ca0       ??8?$_Vector_const_iterator@PAVHE_vert@@V?$allocator@PAVHE_vert@@@std@@@std@@QBE_NABV01@@Z 0052aca0 f i Mesh.obj
 0002:00051d10       ?_Compat@?$_Vector_const_iterator@PAVHE_vert@@V?$allocator@PAVHE_vert@@@std@@@std@@QBEXABV12@@Z 0052ad10 f i Mesh.obj
 0002:00051e10       ??0?$_Vector_const_iterator@UEdgeIntersection@ObjEd@@V?$allocator@UEdgeIntersection@ObjEd@@@std@@@std@@QAE@PAUEdgeIntersection@ObjEd@@PBV_Container_base_secure@1@@Z 0052ae10 f i Mesh.obj
 0002:00051f50       ??8?$_Vector_const_iterator@UEdgeIntersection@ObjEd@@V?$allocator@UEdgeIntersection@ObjEd@@@std@@@std@@QBE_NABV01@@Z 0052af50 f i Mesh.obj
 0002:00051fc0       ?_Compat@?$_Vector_const_iterator@UEdgeIntersection@ObjEd@@V?$allocator@UEdgeIntersection@ObjEd@@@std@@@std@@QBEXABV12@@Z 0052afc0 f i Mesh.obj
 0002:000520c0       ??0?$_Ranit@V?$vector@PAVHE_vert@@V?$allocator@PAVHE_vert@@@std@@@std@@HPBV12@ABV12@@std@@QAE@XZ 0052b0c0 f i Mesh.obj
 0002:00052120       ??0?$_Ranit@PAVHE_vert@@HPBQAV1@ABQAV1@@std@@QAE@XZ 0052b120 f i Mesh.obj
 0002:00052180       ??0?$_Ranit@UEdgeIntersection@ObjEd@@HPBU12@ABU12@@std@@QAE@XZ 0052b180 f i Mesh.obj
 0002:000521e0       ??0?$_Iterator_with_base@Urandom_access_iterator_tag@std@@V?$vector@PAVHE_vert@@V?$allocator@PAVHE_vert@@@std@@@2@HPBV32@ABV32@V_Iterator_base@2@@std@@QAE@XZ 0052b1e0 f i Mesh.obj
 0002:00052240       ??0?$_Iterator_with_base@Urandom_access_iterator_tag@std@@PAVHE_vert@@HPBQAV3@ABQAV3@V_Iterator_base@2@@std@@QAE@XZ 0052b240 f i Mesh.obj
 0002:000522a0       ??0?$_Iterator_with_base@Urandom_access_iterator_tag@std@@UEdgeIntersection@ObjEd@@HPBU34@ABU34@V_Iterator_base@2@@std@@QAE@XZ 0052b2a0 f i Mesh.obj
 0002:00052300       ??$wcscpy_s@$0IAA@@@YAHAAY0IAA@_WPB_W@Z 0052b300 f i Mesh.obj
 0002:00052370       ??$?0V?$_Vector_const_iterator@USelection@ObjEd@@V?$allocator@USelection@ObjEd@@@std@@@std@@@?$vector@USelection@ObjEd@@V?$allocator@USelection@ObjEd@@@std@@@std@@QAE@V?$_Vector_const_iterator@USelection@ObjEd@@V?$allocator@USelection@ObjEd@@@std@@@1@0@Z 0052b370 f i Mesh.obj
 0002:000524c0       ??$?0V?$_Iterator@$00@?$list@HV?$allocator@H@std@@@std@@@?$vector@HV?$allocator@H@std@@@std@@QAE@V?$_Iterator@$00@?$list@HV?$allocator@H@std@@@1@0@Z 0052b4c0 f i Mesh.obj
 0002:00052610       ??$_Ucopy@V?$_Vector_const_iterator@HV?$allocator@H@std@@@std@@@?$vector@HV?$allocator@H@std@@@std@@IAEPAHV?$_Vector_const_iterator@HV?$allocator@H@std@@@1@0PAH@Z 0052b610 f i Mesh.obj
 0002:00052750       ??$unchecked_copy@PAHPAH@stdext@@YAPAHPAH00@Z 0052b750 f i Mesh.obj
 0002:00052820       ??$_Ucopy@PAH@?$vector@HV?$allocator@H@std@@@std@@IAEPAHPAH00@Z 0052b820 f i Mesh.obj
 0002:00052890       ??$_Ucopy@V?$_Vector_const_iterator@UD3DXVECTOR3@@V?$allocator@UD3DXVECTOR3@@@std@@@std@@@?$vector@UD3DXVECTOR3@@V?$allocator@UD3DXVECTOR3@@@std@@@std@@IAEPAUD3DXVECTOR3@@V?$_Vector_const_iterator@UD3DXVECTOR3@@V?$allocator@UD3DXVECTOR3@@@std@@@1@0PAU2@@Z 0052b890 f i Mesh.obj
 0002:000529d0       ??$unchecked_copy@PAUD3DXVECTOR3@@PAU1@@stdext@@YAPAUD3DXVECTOR3@@PAU1@00@Z 0052b9d0 f i Mesh.obj
 0002:00052aa0       ??$_Ucopy@PAUD3DXVECTOR3@@@?$vector@UD3DXVECTOR3@@V?$allocator@UD3DXVECTOR3@@@std@@@std@@IAEPAUD3DXVECTOR3@@PAU2@00@Z 0052baa0 f i Mesh.obj
 0002:00052b10       ??$unchecked_copy@PAV?$vector@PAVHE_vert@@V?$allocator@PAVHE_vert@@@std@@@std@@PAV12@@stdext@@YAPAV?$vector@PAVHE_vert@@V?$allocator@PAVHE_vert@@@std@@@std@@PAV12@00@Z 0052bb10 f i Mesh.obj
 0002:00052be0       ??$_Ucopy@PAV?$vector@PAVHE_vert@@V?$allocator@PAVHE_vert@@@std@@@std@@@?$vector@V?$vector@PAVHE_vert@@V?$allocator@PAVHE_vert@@@std@@@std@@V?$allocator@V?$vector@PAVHE_vert@@V?$allocator@PAVHE_vert@@@std@@@std@@@2@@std@@IAEPAV?$vector@PAVHE_vert@@V?$allocator@PAVHE_vert@@@std@@@1@PAV21@00@Z 0052bbe0 f i Mesh.obj
 0002:00052c50       ??$unchecked_copy@PAPAVHE_vert@@PAPAV1@@stdext@@YAPAPAVHE_vert@@PAPAV1@00@Z 0052bc50 f i Mesh.obj
 0002:00052d20       ??$_Ucopy@PAPAVHE_vert@@@?$vector@PAVHE_vert@@V?$allocator@PAVHE_vert@@@std@@@std@@IAEPAPAVHE_vert@@PAPAV2@00@Z 0052bd20 f i Mesh.obj
 0002:00052d90       ??$_Ucopy@V?$_Vector_const_iterator@USelection@ObjEd@@V?$allocator@USelection@ObjEd@@@std@@@std@@@?$vector@USelection@ObjEd@@V?$allocator@USelection@ObjEd@@@std@@@std@@IAEPAUSelection@ObjEd@@V?$_Vector_const_iterator@USelection@ObjEd@@V?$allocator@USelection@ObjEd@@@std@@@1@0PAU23@@Z 0052bd90 f i Mesh.obj
 0002:00052ed0       ??$unchecked_copy@PAUSelection@ObjEd@@PAU12@@stdext@@YAPAUSelection@ObjEd@@PAU12@00@Z 0052bed0 f i Mesh.obj
 0002:00052fa0       ??$_Ucopy@PAUSelection@ObjEd@@@?$vector@USelection@ObjEd@@V?$allocator@USelection@ObjEd@@@std@@@std@@IAEPAUSelection@ObjEd@@PAU23@00@Z 0052bfa0 f i Mesh.obj
 0002:00053010       ??$unchecked_copy@PAUEdgeIntersection@ObjEd@@PAU12@@stdext@@YAPAUEdgeIntersection@ObjEd@@PAU12@00@Z 0052c010 f i Mesh.obj
 0002:000530e0       ??$_Ucopy@PAUEdgeIntersection@ObjEd@@@?$vector@UEdgeIntersection@ObjEd@@V?$allocator@UEdgeIntersection@ObjEd@@@std@@@std@@IAEPAUEdgeIntersection@ObjEd@@PAU23@00@Z 0052c0e0 f i Mesh.obj
 0002:00053150       ??$_Ucopy@V?$_Vector_const_iterator@VProcTex@ObjEd@@V?$allocator@VProcTex@ObjEd@@@std@@@std@@@?$vector@VProcTex@ObjEd@@V?$allocator@VProcTex@ObjEd@@@std@@@std@@IAEPAVProcTex@ObjEd@@V?$_Vector_const_iterator@VProcTex@ObjEd@@V?$allocator@VProcTex@ObjEd@@@std@@@1@0PAV23@@Z 0052c150 f i Mesh.obj
 0002:00053290       ??$unchecked_copy@PAVProcTex@ObjEd@@PAV12@@stdext@@YAPAVProcTex@ObjEd@@PAV12@00@Z 0052c290 f i Mesh.obj
 0002:00053360       ??$_Ucopy@PAVProcTex@ObjEd@@@?$vector@VProcTex@ObjEd@@V?$allocator@VProcTex@ObjEd@@@std@@@std@@IAEPAVProcTex@ObjEd@@PAV23@00@Z 0052c360 f i Mesh.obj
 0002:000533d0       ??$_Ucopy@V?$_Vector_const_iterator@PAVEditableMeshModel@@V?$allocator@PAVEditableMeshModel@@@std@@@std@@@?$vector@PAVEditableMeshModel@@V?$allocator@PAVEditableMeshModel@@@std@@@std@@IAEPAPAVEditableMeshModel@@V?$_Vector_const_iterator@PAVEditableMeshModel@@V?$allocator@PAVEditableMeshModel@@@std@@@1@0PAPAV2@@Z 0052c3d0 f i Mesh.obj
 0002:00053510       ??$insert@V?$_Const_iterator@$00@?$list@HV?$allocator@H@std@@@std@@@?$list@HV?$allocator@H@std@@@std@@QAEXV?$_Const_iterator@$00@01@00@Z 0052c510 f i Mesh.obj
 0002:00053680       ??$_Ucopy@V?$_Vector_const_iterator@PAVDeferredMeshModel@@V?$allocator@PAVDeferredMeshModel@@@std@@@std@@@?$vector@PAVDeferredMeshModel@@V?$allocator@PAVDeferredMeshModel@@@std@@@std@@IAEPAPAVDeferredMeshModel@@V?$_Vector_const_iterator@PAVDeferredMeshModel@@V?$allocator@PAVDeferredMeshModel@@@std@@@1@0PAPAV2@@Z 0052c680 f i Mesh.obj
 0002:000537c0       ??$_Destroy_range@V?$allocator@UD3DXVECTOR3@@@std@@@std@@YAXPAUD3DXVECTOR3@@0AAV?$allocator@UD3DXVECTOR3@@@0@@Z 0052c7c0 f i Mesh.obj
 0002:00053840       ??$_Destroy_range@V?$allocator@V?$vector@PAVHE_vert@@V?$allocator@PAVHE_vert@@@std@@@std@@@std@@@std@@YAXPAV?$vector@PAVHE_vert@@V?$allocator@PAVHE_vert@@@std@@@0@0AAV?$allocator@V?$vector@PAVHE_vert@@V?$allocator@PAVHE_vert@@@std@@@std@@@0@@Z 0052c840 f i Mesh.obj
 0002:000538c0       ??$_Destroy_range@V?$allocator@PAVHE_vert@@@std@@@std@@YAXPAPAVHE_vert@@0AAV?$allocator@PAVHE_vert@@@0@@Z 0052c8c0 f i Mesh.obj
 0002:00053940       ??$_Destroy_range@V?$allocator@USelection@ObjEd@@@std@@@std@@YAXPAUSelection@ObjEd@@0AAV?$allocator@USelection@ObjEd@@@0@@Z 0052c940 f i Mesh.obj
 0002:000539c0       ??$unchecked_uninitialized_fill_n@PAUSelection@ObjEd@@IU12@V?$allocator@USelection@ObjEd@@@std@@@stdext@@YAXPAUSelection@ObjEd@@IABU12@AAV?$allocator@USelection@ObjEd@@@std@@@Z 0052c9c0 f i Mesh.obj
 0002:00053a60       ??$_Destroy_range@V?$allocator@UEdgeIntersection@ObjEd@@@std@@@std@@YAXPAUEdgeIntersection@ObjEd@@0AAV?$allocator@UEdgeIntersection@ObjEd@@@0@@Z 0052ca60 f i Mesh.obj
 0002:00053ae0       ??$copy@V?$_Vb_iterator@IHV?$vector@_NV?$allocator@_N@std@@@std@@@std@@V12@@std@@YA?AV?$_Vb_iterator@IHV?$vector@_NV?$allocator@_N@std@@@std@@@0@V10@00@Z 0052cae0 f i Mesh.obj
 0002:00053cc0       ??$fill@V?$_Vb_iterator@IHV?$vector@_NV?$allocator@_N@std@@@std@@@std@@_N@std@@YAXV?$_Vb_iterator@IHV?$vector@_NV?$allocator@_N@std@@@std@@@0@0AB_N@Z 0052ccc0 f i Mesh.obj
 0002:00053dd0       ??$_Destroy_range@V?$allocator@VProcTex@ObjEd@@@std@@@std@@YAXPAVProcTex@ObjEd@@0AAV?$allocator@VProcTex@ObjEd@@@0@@Z 0052cdd0 f i Mesh.obj
 0002:00053e50       ??$unchecked_copy@PAPAVMeshComponent@@PAPAV1@@stdext@@YAPAPAVMeshComponent@@PAPAV1@00@Z 0052ce50 f i Mesh.obj
 0002:00053f20       ??$unchecked_copy@PAUBevelVInfo@ObjEd@@PAU12@@stdext@@YAPAUBevelVInfo@ObjEd@@PAU12@00@Z 0052cf20 f i Mesh.obj
 0002:00053ff0       ??$unchecked_copy@PAUExtrudeInfo@ObjEd@@PAU12@@stdext@@YAPAUExtrudeInfo@ObjEd@@PAU12@00@Z 0052cff0 f i Mesh.obj
 0002:000540c0       ??$unchecked_copy@PAUExtrudeMatrixInfo@ObjEd@@PAU12@@stdext@@YAPAUExtrudeMatrixInfo@ObjEd@@PAU12@00@Z 0052d0c0 f i Mesh.obj
 0002:00054190       ??$unchecked_copy@PAUExtrudeInnerInfo@ObjEd@@PAU12@@stdext@@YAPAUExtrudeInnerInfo@ObjEd@@PAU12@00@Z 0052d190 f i Mesh.obj
 0002:00054260       ??$unchecked_copy@PAUNorScaleInfo@ObjEd@@PAU12@@stdext@@YAPAUNorScaleInfo@ObjEd@@PAU12@00@Z 0052d260 f i Mesh.obj
 0002:00054330       ??$unchecked_uninitialized_fill_n@PAPAVEditableMeshModel@@IPAV1@V?$allocator@PAVEditableMeshModel@@@std@@@stdext@@YAXPAPAVEditableMeshModel@@IABQAV1@AAV?$allocator@PAVEditableMeshModel@@@std@@@Z 0052d330 f i Mesh.obj
 0002:000543d0       ??$?8HH@std@@YA_NABV?$allocator@H@0@0@Z 0052d3d0 f i Mesh.obj
 0002:00054400       ??$swap@PAU_Node@?$_List_nod@HV?$allocator@H@std@@@std@@@std@@YAXAAPAU_Node@?$_List_nod@HV?$allocator@H@std@@@0@0@Z 0052d400 f i Mesh.obj
 0002:00054460       ??$swap@I@std@@YAXAAI0@Z   0052d460 f i Mesh.obj
 0002:000544c0       ??$_Debug_order@V?$_Iterator@$00@?$list@HV?$allocator@H@std@@@std@@@std@@YAXV?$_Iterator@$00@?$list@HV?$allocator@H@std@@@0@0PB_WI@Z 0052d4c0 f i Mesh.obj
 0002:00054660       ??$_Debug_lt@HH@std@@YA_NAAH0PB_WI@Z 0052d660 f i Mesh.obj
 0002:000546f0       ??$unchecked_uninitialized_fill_n@PAPAVDeferredMeshModel@@IPAV1@V?$allocator@PAVDeferredMeshModel@@@std@@@stdext@@YAXPAPAVDeferredMeshModel@@IABQAV1@AAV?$allocator@PAVDeferredMeshModel@@@std@@@Z 0052d6f0 f i Mesh.obj
 0002:00054790       ??$_Allocate@H@std@@YAPAHIPAH@Z 0052d790 f i Mesh.obj
 0002:00054830       ??$_Allocate@UD3DXVECTOR3@@@std@@YAPAUD3DXVECTOR3@@IPAU1@@Z 0052d830 f i Mesh.obj
 0002:000548d0       ??$_Allocate@V?$vector@PAVHE_vert@@V?$allocator@PAVHE_vert@@@std@@@std@@@std@@YAPAV?$vector@PAVHE_vert@@V?$allocator@PAVHE_vert@@@std@@@0@IPAV10@@Z 0052d8d0 f i Mesh.obj
 0002:00054970       ??$_Allocate@PAVHE_vert@@@std@@YAPAPAVHE_vert@@IPAPAV1@@Z 0052d970 f i Mesh.obj
 0002:00054a10       ??$_Umove@PAUSelection@ObjEd@@@?$vector@USelection@ObjEd@@V?$allocator@USelection@ObjEd@@@std@@@std@@IAEPAUSelection@ObjEd@@PAU23@00@Z 0052da10 f i Mesh.obj
 0002:00054a80       ??$fill@PAUSelection@ObjEd@@U12@@std@@YAXPAUSelection@ObjEd@@0ABU12@@Z 0052da80 f i Mesh.obj
 0002:00054af0       ??$_Unchecked_move_backward@PAUSelection@ObjEd@@PAU12@@stdext@@YAPAUSelection@ObjEd@@PAU12@00@Z 0052daf0 f i Mesh.obj
 0002:00054bc0       ??$_Allocate@USelection@ObjEd@@@std@@YAPAUSelection@ObjEd@@IPAU12@@Z 0052dbc0 f i Mesh.obj
 0002:00054c60       ??$_Allocate@UEdgeIntersection@ObjEd@@@std@@YAPAUEdgeIntersection@ObjEd@@IPAU12@@Z 0052dc60 f i Mesh.obj
 0002:00054d00       ??$copy_backward@V?$_Vb_iterator@IHV?$vector@_NV?$allocator@_N@std@@@std@@@std@@V12@@std@@YA?AV?$_Vb_iterator@IHV?$vector@_NV?$allocator@_N@std@@@std@@@0@V10@00@Z 0052dd00 f i Mesh.obj
 0002:00054ee0       ??$_Umove@PAVProcTex@ObjEd@@@?$vector@VProcTex@ObjEd@@V?$allocator@VProcTex@ObjEd@@@std@@@std@@IAEPAVProcTex@ObjEd@@PAV23@00@Z 0052dee0 f i Mesh.obj
 0002:00054f50       ??$fill@PAVProcTex@ObjEd@@V12@@std@@YAXPAVProcTex@ObjEd@@0ABV12@@Z 0052df50 f i Mesh.obj
 0002:00054fc0       ??$_Unchecked_move_backward@PAVProcTex@ObjEd@@PAV12@@stdext@@YAPAVProcTex@ObjEd@@PAV12@00@Z 0052dfc0 f i Mesh.obj
 0002:00055090       ??$_Allocate@VProcTex@ObjEd@@@std@@YAPAVProcTex@ObjEd@@IPAV12@@Z 0052e090 f i Mesh.obj
 0002:00055130       ??$_Destroy_range@V?$allocator@PAVMeshComponent@@@std@@@std@@YAXPAPAVMeshComponent@@0AAV?$allocator@PAVMeshComponent@@@0@@Z 0052e130 f i Mesh.obj
 0002:000551b0       ??$_Umove@PAPAVMeshComponent@@@?$vector@PAVMeshComponent@@V?$allocator@PAVMeshComponent@@@std@@@std@@IAEPAPAVMeshComponent@@PAPAV2@00@Z 0052e1b0 f i Mesh.obj
 0002:00055220       ??$fill@PAPAVMeshComponent@@PAV1@@std@@YAXPAPAVMeshComponent@@0ABQAV1@@Z 0052e220 f i Mesh.obj
 0002:00055290       ??$_Unchecked_move_backward@PAPAVMeshComponent@@PAPAV1@@stdext@@YAPAPAVMeshComponent@@PAPAV1@00@Z 0052e290 f i Mesh.obj
 0002:00055360       ??$_Allocate@PAVMeshComponent@@@std@@YAPAPAVMeshComponent@@IPAPAV1@@Z 0052e360 f i Mesh.obj
 0002:00055400       ??$_Destroy_range@V?$allocator@UBevelVInfo@ObjEd@@@std@@@std@@YAXPAUBevelVInfo@ObjEd@@0AAV?$allocator@UBevelVInfo@ObjEd@@@0@@Z 0052e400 f i Mesh.obj
 0002:00055480       ??$_Umove@PAUBevelVInfo@ObjEd@@@?$vector@UBevelVInfo@ObjEd@@V?$allocator@UBevelVInfo@ObjEd@@@std@@@std@@IAEPAUBevelVInfo@ObjEd@@PAU23@00@Z 0052e480 f i Mesh.obj
 0002:000554f0       ??$fill@PAUBevelVInfo@ObjEd@@U12@@std@@YAXPAUBevelVInfo@ObjEd@@0ABU12@@Z 0052e4f0 f i Mesh.obj
 0002:00055560       ??$_Unchecked_move_backward@PAUBevelVInfo@ObjEd@@PAU12@@stdext@@YAPAUBevelVInfo@ObjEd@@PAU12@00@Z 0052e560 f i Mesh.obj
 0002:00055630       ??$_Allocate@UBevelVInfo@ObjEd@@@std@@YAPAUBevelVInfo@ObjEd@@IPAU12@@Z 0052e630 f i Mesh.obj
 0002:000556d0       ??$_Destroy_range@V?$allocator@UExtrudeInfo@ObjEd@@@std@@@std@@YAXPAUExtrudeInfo@ObjEd@@0AAV?$allocator@UExtrudeInfo@ObjEd@@@0@@Z 0052e6d0 f i Mesh.obj
 0002:00055750       ??$_Umove@PAUExtrudeInfo@ObjEd@@@?$vector@UExtrudeInfo@ObjEd@@V?$allocator@UExtrudeInfo@ObjEd@@@std@@@std@@IAEPAUExtrudeInfo@ObjEd@@PAU23@00@Z 0052e750 f i Mesh.obj
 0002:000557c0       ??$fill@PAUExtrudeInfo@ObjEd@@U12@@std@@YAXPAUExtrudeInfo@ObjEd@@0ABU12@@Z 0052e7c0 f i Mesh.obj
 0002:00055830       ??$_Unchecked_move_backward@PAUExtrudeInfo@ObjEd@@PAU12@@stdext@@YAPAUExtrudeInfo@ObjEd@@PAU12@00@Z 0052e830 f i Mesh.obj
 0002:00055900       ??$_Allocate@UExtrudeInfo@ObjEd@@@std@@YAPAUExtrudeInfo@ObjEd@@IPAU12@@Z 0052e900 f i Mesh.obj
 0002:000559a0       ??$_Destroy_range@V?$allocator@UExtrudeMatrixInfo@ObjEd@@@std@@@std@@YAXPAUExtrudeMatrixInfo@ObjEd@@0AAV?$allocator@UExtrudeMatrixInfo@ObjEd@@@0@@Z 0052e9a0 f i Mesh.obj
 0002:00055a20       ??$_Umove@PAUExtrudeMatrixInfo@ObjEd@@@?$vector@UExtrudeMatrixInfo@ObjEd@@V?$allocator@UExtrudeMatrixInfo@ObjEd@@@std@@@std@@IAEPAUExtrudeMatrixInfo@ObjEd@@PAU23@00@Z 0052ea20 f i Mesh.obj
 0002:00055a90       ??$fill@PAUExtrudeMatrixInfo@ObjEd@@U12@@std@@YAXPAUExtrudeMatrixInfo@ObjEd@@0ABU12@@Z 0052ea90 f i Mesh.obj
 0002:00055b00       ??$_Unchecked_move_backward@PAUExtrudeMatrixInfo@ObjEd@@PAU12@@stdext@@YAPAUExtrudeMatrixInfo@ObjEd@@PAU12@00@Z 0052eb00 f i Mesh.obj
 0002:00055bd0       ??$_Allocate@UExtrudeMatrixInfo@ObjEd@@@std@@YAPAUExtrudeMatrixInfo@ObjEd@@IPAU12@@Z 0052ebd0 f i Mesh.obj
 0002:00055c70       ??$_Destroy_range@V?$allocator@UExtrudeInnerInfo@ObjEd@@@std@@@std@@YAXPAUExtrudeInnerInfo@ObjEd@@0AAV?$allocator@UExtrudeInnerInfo@ObjEd@@@0@@Z 0052ec70 f i Mesh.obj
 0002:00055cf0       ??$_Umove@PAUExtrudeInnerInfo@ObjEd@@@?$vector@UExtrudeInnerInfo@ObjEd@@V?$allocator@UExtrudeInnerInfo@ObjEd@@@std@@@std@@IAEPAUExtrudeInnerInfo@ObjEd@@PAU23@00@Z 0052ecf0 f i Mesh.obj
 0002:00055d60       ??$fill@PAUExtrudeInnerInfo@ObjEd@@U12@@std@@YAXPAUExtrudeInnerInfo@ObjEd@@0ABU12@@Z 0052ed60 f i Mesh.obj
 0002:00055dd0       ??$_Unchecked_move_backward@PAUExtrudeInnerInfo@ObjEd@@PAU12@@stdext@@YAPAUExtrudeInnerInfo@ObjEd@@PAU12@00@Z 0052edd0 f i Mesh.obj
 0002:00055ea0       ??$_Allocate@UExtrudeInnerInfo@ObjEd@@@std@@YAPAUExtrudeInnerInfo@ObjEd@@IPAU12@@Z 0052eea0 f i Mesh.obj
 0002:00055f40       ??$_Destroy_range@V?$allocator@UNorScaleInfo@ObjEd@@@std@@@std@@YAXPAUNorScaleInfo@ObjEd@@0AAV?$allocator@UNorScaleInfo@ObjEd@@@0@@Z 0052ef40 f i Mesh.obj
 0002:00055fc0       ??$_Umove@PAUNorScaleInfo@ObjEd@@@?$vector@UNorScaleInfo@ObjEd@@V?$allocator@UNorScaleInfo@ObjEd@@@std@@@std@@IAEPAUNorScaleInfo@ObjEd@@PAU23@00@Z 0052efc0 f i Mesh.obj
 0002:00056030       ??$fill@PAUNorScaleInfo@ObjEd@@U12@@std@@YAXPAUNorScaleInfo@ObjEd@@0ABU12@@Z 0052f030 f i Mesh.obj
 0002:000560a0       ??$_Unchecked_move_backward@PAUNorScaleInfo@ObjEd@@PAU12@@stdext@@YAPAUNorScaleInfo@ObjEd@@PAU12@00@Z 0052f0a0 f i Mesh.obj
 0002:00056170       ??$_Allocate@UNorScaleInfo@ObjEd@@@std@@YAPAUNorScaleInfo@ObjEd@@IPAU12@@Z 0052f170 f i Mesh.obj
 0002:00056210       ??$_Destroy_range@V?$allocator@PAVEditableMeshModel@@@std@@@std@@YAXPAPAVEditableMeshModel@@0AAV?$allocator@PAVEditableMeshModel@@@0@@Z 0052f210 f i Mesh.obj
 0002:00056290       ??$_Umove@PAPAVEditableMeshModel@@@?$vector@PAVEditableMeshModel@@V?$allocator@PAVEditableMeshModel@@@std@@@std@@IAEPAPAVEditableMeshModel@@PAPAV2@00@Z 0052f290 f i Mesh.obj
 0002:00056300       ??$fill@PAPAVEditableMeshModel@@PAV1@@std@@YAXPAPAVEditableMeshModel@@0ABQAV1@@Z 0052f300 f i Mesh.obj
 0002:00056370       ??$_Unchecked_move_backward@PAPAVEditableMeshModel@@PAPAV1@@stdext@@YAPAPAVEditableMeshModel@@PAPAV1@00@Z 0052f370 f i Mesh.obj
 0002:00056440       ??$_Allocate@PAVEditableMeshModel@@@std@@YAPAPAVEditableMeshModel@@IPAPAV1@@Z 0052f440 f i Mesh.obj
 0002:000564e0       ??$_Destroy_range@V?$allocator@VFace@@@std@@@std@@YAXPAVFace@@0AAV?$allocator@VFace@@@0@@Z 0052f4e0 f i Mesh.obj
 0002:00056560       ??$?0H@?$allocator@PAU_Node@?$_List_nod@HV?$allocator@H@std@@@std@@@std@@QAE@ABV?$allocator@H@1@@Z 0052f560 f i Mesh.obj
 0002:000565a0       ??$_Allocate@U_Node@?$_List_nod@HV?$allocator@H@std@@@std@@@std@@YAPAU_Node@?$_List_nod@HV?$allocator@H@std@@@0@IPAU120@@Z 0052f5a0 f i Mesh.obj
 0002:00056640       ??$_Destroy@U_Node@?$_List_nod@HV?$allocator@H@std@@@std@@@std@@YAXPAU_Node@?$_List_nod@HV?$allocator@H@std@@@0@@Z 0052f640 f i Mesh.obj
 0002:00056670       ??$_Construct@PAU_Node@?$_List_nod@HV?$allocator@H@std@@@std@@PAU123@@std@@YAXPAPAU_Node@?$_List_nod@HV?$allocator@H@std@@@0@ABQAU120@@Z 0052f670 f i Mesh.obj
 0002:00056710       ??2@YAPAXIPAX@Z            0052f710 f i Mesh.obj
 0002:00056750       ??$_Destroy@PAU_Node@?$_List_nod@HV?$allocator@H@std@@@std@@@std@@YAXPAPAU_Node@?$_List_nod@HV?$allocator@H@std@@@0@@Z 0052f750 f i Mesh.obj
 0002:00056780       ??$_Destroy_range@V?$allocator@PAVDeferredMeshModel@@@std@@@std@@YAXPAPAVDeferredMeshModel@@0AAV?$allocator@PAVDeferredMeshModel@@@0@@Z 0052f780 f i Mesh.obj
 0002:00056800       ??$_Umove@PAPAVDeferredMeshModel@@@?$vector@PAVDeferredMeshModel@@V?$allocator@PAVDeferredMeshModel@@@std@@@std@@IAEPAPAVDeferredMeshModel@@PAPAV2@00@Z 0052f800 f i Mesh.obj
 0002:00056870       ??$fill@PAPAVDeferredMeshModel@@PAV1@@std@@YAXPAPAVDeferredMeshModel@@0ABQAV1@@Z 0052f870 f i Mesh.obj
 0002:000568e0       ??$_Unchecked_move_backward@PAPAVDeferredMeshModel@@PAPAV1@@stdext@@YAPAPAVDeferredMeshModel@@PAPAV1@00@Z 0052f8e0 f i Mesh.obj
 0002:000569b0       ??$_Allocate@PAVDeferredMeshModel@@@std@@YAPAPAVDeferredMeshModel@@IPAPAV1@@Z 0052f9b0 f i Mesh.obj
 0002:00056a50       ??$_Construct@HH@std@@YAXPAHABH@Z 0052fa50 f i Mesh.obj
 0002:00056af0       ??$_Ucopy@V?$_Vector_const_iterator@V?$vector@PAVHE_vert@@V?$allocator@PAVHE_vert@@@std@@@std@@V?$allocator@V?$vector@PAVHE_vert@@V?$allocator@PAVHE_vert@@@std@@@std@@@2@@std@@@?$vector@V?$vector@PAVHE_vert@@V?$allocator@PAVHE_vert@@@std@@@std@@V?$allocator@V?$vector@PAVHE_vert@@V?$allocator@PAVHE_vert@@@std@@@std@@@2@@std@@IAEPAV?$vector@PAVHE_vert@@V?$allocator@PAVHE_vert@@@std@@@1@V?$_Vector_const_iterator@V?$vector@PAVHE_vert@@V?$allocator@PAVHE_vert@@@std@@@std@@V?$allocator@V?$vector@PAVHE_vert@@V?$allocator@PAVHE_vert@@@std@@@std@@@2@@1@0PAV21@@Z 0052faf0 f i Mesh.obj
 0002:00056c30       ??$_Ucopy@V?$_Vector_const_iterator@PAVHE_vert@@V?$allocator@PAVHE_vert@@@std@@@std@@@?$vector@PAVHE_vert@@V?$allocator@PAVHE_vert@@@std@@@std@@IAEPAPAVHE_vert@@V?$_Vector_const_iterator@PAVHE_vert@@V?$allocator@PAVHE_vert@@@std@@@1@0PAPAV2@@Z 0052fc30 f i Mesh.obj
 0002:00056d70       ??$unchecked_uninitialized_fill_n@PAVProcTex@ObjEd@@IV12@V?$allocator@VProcTex@ObjEd@@@std@@@stdext@@YAXPAVProcTex@ObjEd@@IABV12@AAV?$allocator@VProcTex@ObjEd@@@std@@@Z 0052fd70 f i Mesh.obj
 0002:00056e10       ??$unchecked_uninitialized_fill_n@PAPAVMeshComponent@@IPAV1@V?$allocator@PAVMeshComponent@@@std@@@stdext@@YAXPAPAVMeshComponent@@IABQAV1@AAV?$allocator@PAVMeshComponent@@@std@@@Z 0052fe10 f i Mesh.obj
 0002:00056eb0       ??$unchecked_uninitialized_fill_n@PAUBevelVInfo@ObjEd@@IU12@V?$allocator@UBevelVInfo@ObjEd@@@std@@@stdext@@YAXPAUBevelVInfo@ObjEd@@IABU12@AAV?$allocator@UBevelVInfo@ObjEd@@@std@@@Z 0052feb0 f i Mesh.obj
 0002:00056f50       ??$unchecked_uninitialized_fill_n@PAUExtrudeInfo@ObjEd@@IU12@V?$allocator@UExtrudeInfo@ObjEd@@@std@@@stdext@@YAXPAUExtrudeInfo@ObjEd@@IABU12@AAV?$allocator@UExtrudeInfo@ObjEd@@@std@@@Z 0052ff50 f i Mesh.obj
 0002:00056ff0       ??$unchecked_uninitialized_fill_n@PAUExtrudeMatrixInfo@ObjEd@@IU12@V?$allocator@UExtrudeMatrixInfo@ObjEd@@@std@@@stdext@@YAXPAUExtrudeMatrixInfo@ObjEd@@IABU12@AAV?$allocator@UExtrudeMatrixInfo@ObjEd@@@std@@@Z 0052fff0 f i Mesh.obj
 0002:00057090       ??$unchecked_uninitialized_fill_n@PAUExtrudeInnerInfo@ObjEd@@IU12@V?$allocator@UExtrudeInnerInfo@ObjEd@@@std@@@stdext@@YAXPAUExtrudeInnerInfo@ObjEd@@IABU12@AAV?$allocator@UExtrudeInnerInfo@ObjEd@@@std@@@Z 00530090 f i Mesh.obj
 0002:00057130       ??$unchecked_uninitialized_fill_n@PAUNorScaleInfo@ObjEd@@IU12@V?$allocator@UNorScaleInfo@ObjEd@@@std@@@stdext@@YAXPAUNorScaleInfo@ObjEd@@IABU12@AAV?$allocator@UNorScaleInfo@ObjEd@@@std@@@Z 00530130 f i Mesh.obj
 0002:000571d0       ??$?0H@?$allocator@U_Node@?$_List_nod@HV?$allocator@H@std@@@std@@@std@@QAE@ABV?$allocator@H@1@@Z 005301d0 f i Mesh.obj
 0002:00057210       ??$_Umove@PAI@?$vector@IV?$allocator@I@std@@@std@@IAEPAIPAI00@Z 00530210 f i Mesh.obj
 0002:00057280       ??$fill@PAII@std@@YAXPAI0ABI@Z 00530280 f i Mesh.obj
 0002:000572f0       ??$_Unchecked_move_backward@PAIPAI@stdext@@YAPAIPAI00@Z 005302f0 f i Mesh.obj
 0002:000573c0       ??$_Iter_cat@V?$_Vector_const_iterator@USelection@ObjEd@@V?$allocator@USelection@ObjEd@@@std@@@std@@@std@@YA?AUrandom_access_iterator_tag@0@ABV?$_Vector_const_iterator@USelection@ObjEd@@V?$allocator@USelection@ObjEd@@@std@@@0@@Z 005303c0 f i Mesh.obj
 0002:00057430       ??$_Construct@V?$_Vector_const_iterator@USelection@ObjEd@@V?$allocator@USelection@ObjEd@@@std@@@std@@@?$vector@USelection@ObjEd@@V?$allocator@USelection@ObjEd@@@std@@@std@@QAEXV?$_Vector_const_iterator@USelection@ObjEd@@V?$allocator@USelection@ObjEd@@@std@@@1@0Uinput_iterator_tag@1@@Z 00530430 f i Mesh.obj
 0002:00057600       ??$_Iter_cat@V?$_Iterator@$00@?$list@HV?$allocator@H@std@@@std@@@std@@YA?AUbidirectional_iterator_tag@0@ABV?$_Iterator@$00@?$list@HV?$allocator@H@std@@@0@@Z 00530600 f i Mesh.obj
 0002:00057670       ??$_Construct@V?$_Iterator@$00@?$list@HV?$allocator@H@std@@@std@@@?$vector@HV?$allocator@H@std@@@std@@QAEXV?$_Iterator@$00@?$list@HV?$allocator@H@std@@@1@0Uinput_iterator_tag@1@@Z 00530670 f i Mesh.obj
 0002:00057840       ??$unchecked_uninitialized_copy@V?$_Vector_const_iterator@HV?$allocator@H@std@@@std@@PAHV?$allocator@H@2@@stdext@@YAPAHV?$_Vector_const_iterator@HV?$allocator@H@std@@@std@@0PAHAAV?$allocator@H@2@@Z 00530840 f i Mesh.obj
 0002:000579b0       ??$_Checked_base@PAH@std@@YAPAHAAPAH@Z 005309b0 f i Mesh.obj
 0002:00057a40       ??$_Iter_random@PAHPAH@std@@YA?AUrandom_access_iterator_tag@0@ABQAH0@Z 00530a40 f i Mesh.obj
 0002:00057ab0       ??$_Copy_opt@PAHPAHUrandom_access_iterator_tag@std@@@std@@YAPAHPAH00Urandom_access_iterator_tag@0@U_Scalar_ptr_iterator_tag@0@U_Range_checked_iterator_tag@0@@Z 00530ab0 f i Mesh.obj
 0002:00057b90       ??$unchecked_uninitialized_copy@PAHPAHV?$allocator@H@std@@@stdext@@YAPAHPAH00AAV?$allocator@H@std@@@Z 00530b90 f i Mesh.obj
 0002:00057c40       ??$unchecked_uninitialized_copy@V?$_Vector_const_iterator@UD3DXVECTOR3@@V?$allocator@UD3DXVECTOR3@@@std@@@std@@PAUD3DXVECTOR3@@V?$allocator@UD3DXVECTOR3@@@2@@stdext@@YAPAUD3DXVECTOR3@@V?$_Vector_const_iterator@UD3DXVECTOR3@@V?$allocator@UD3DXVECTOR3@@@std@@@std@@0PAU1@AAV?$allocator@UD3DXVECTOR3@@@3@@Z 00530c40 f i Mesh.obj
 0002:00057db0       ??$_Checked_base@PAUD3DXVECTOR3@@@std@@YAPAUD3DXVECTOR3@@AAPAU1@@Z 00530db0 f i Mesh.obj
 0002:00057e40       ??$_Iter_random@PAUD3DXVECTOR3@@PAU1@@std@@YA?AUrandom_access_iterator_tag@0@ABQAUD3DXVECTOR3@@0@Z 00530e40 f i Mesh.obj
 0002:00057eb0       ??$_Ptr_cat@PAUD3DXVECTOR3@@PAU1@@std@@YA?AU_Nonscalar_ptr_iterator_tag@0@AAPAUD3DXVECTOR3@@0@Z 00530eb0 f i Mesh.obj
 0002:00057f20       ??$_Copy_opt@PAUD3DXVECTOR3@@PAU1@@std@@YAPAUD3DXVECTOR3@@PAU1@00Urandom_access_iterator_tag@0@U_Nonscalar_ptr_iterator_tag@0@U_Range_checked_iterator_tag@0@@Z 00530f20 f i Mesh.obj
 0002:00057fe0       ??$unchecked_uninitialized_copy@PAUD3DXVECTOR3@@PAU1@V?$allocator@UD3DXVECTOR3@@@std@@@stdext@@YAPAUD3DXVECTOR3@@PAU1@00AAV?$allocator@UD3DXVECTOR3@@@std@@@Z 00530fe0 f i Mesh.obj
 0002:00058090       ??$_Checked_base@PAV?$vector@PAVHE_vert@@V?$allocator@PAVHE_vert@@@std@@@std@@@std@@YAPAV?$vector@PAVHE_vert@@V?$allocator@PAVHE_vert@@@std@@@0@AAPAV10@@Z 00531090 f i Mesh.obj
 0002:00058120       ??$_Iter_random@PAV?$vector@PAVHE_vert@@V?$allocator@PAVHE_vert@@@std@@@std@@PAV12@@std@@YA?AUrandom_access_iterator_tag@0@ABQAV?$vector@PAVHE_vert@@V?$allocator@PAVHE_vert@@@std@@@0@0@Z 00531120 f i Mesh.obj
 0002:00058190       ??$_Ptr_cat@PAV?$vector@PAVHE_vert@@V?$allocator@PAVHE_vert@@@std@@@std@@PAV12@@std@@YA?AU_Nonscalar_ptr_iterator_tag@0@AAPAV?$vector@PAVHE_vert@@V?$allocator@PAVHE_vert@@@std@@@0@0@Z 00531190 f i Mesh.obj
 0002:00058200       ??$_Copy_opt@PAV?$vector@PAVHE_vert@@V?$allocator@PAVHE_vert@@@std@@@std@@PAV12@@std@@YAPAV?$vector@PAVHE_vert@@V?$allocator@PAVHE_vert@@@std@@@0@PAV10@00Urandom_access_iterator_tag@0@U_Nonscalar_ptr_iterator_tag@0@U_Range_checked_iterator_tag@0@@Z 00531200 f i Mesh.obj
 0002:000582c0       ??$unchecked_uninitialized_copy@PAV?$vector@PAVHE_vert@@V?$allocator@PAVHE_vert@@@std@@@std@@PAV12@V?$allocator@V?$vector@PAVHE_vert@@V?$allocator@PAVHE_vert@@@std@@@std@@@2@@stdext@@YAPAV?$vector@PAVHE_vert@@V?$allocator@PAVHE_vert@@@std@@@std@@PAV12@00AAV?$allocator@V?$vector@PAVHE_vert@@V?$allocator@PAVHE_vert@@@std@@@std@@@2@@Z 005312c0 f i Mesh.obj
 0002:00058370       ??$_Checked_base@PAPAVHE_vert@@@std@@YAPAPAVHE_vert@@AAPAPAV1@@Z 00531370 f i Mesh.obj
 0002:00058400       ??$_Iter_random@PAPAVHE_vert@@PAPAV1@@std@@YA?AUrandom_access_iterator_tag@0@ABQAPAVHE_vert@@0@Z 00531400 f i Mesh.obj
 0002:00058470       ??$_Ptr_cat@PAPAVHE_vert@@PAPAV1@@std@@YA?AU_Scalar_ptr_iterator_tag@0@AAPAPAVHE_vert@@0@Z 00531470 f i Mesh.obj
 0002:000584e0       ??$_Copy_opt@PAPAVHE_vert@@PAPAV1@Urandom_access_iterator_tag@std@@@std@@YAPAPAVHE_vert@@PAPAV1@00Urandom_access_iterator_tag@0@U_Scalar_ptr_iterator_tag@0@U_Range_checked_iterator_tag@0@@Z 005314e0 f i Mesh.obj
 0002:000585c0       ??$unchecked_uninitialized_copy@PAPAVHE_vert@@PAPAV1@V?$allocator@PAVHE_vert@@@std@@@stdext@@YAPAPAVHE_vert@@PAPAV1@00AAV?$allocator@PAVHE_vert@@@std@@@Z 005315c0 f i Mesh.obj
 0002:00058670       ??$unchecked_uninitialized_copy@V?$_Vector_const_iterator@USelection@ObjEd@@V?$allocator@USelection@ObjEd@@@std@@@std@@PAUSelection@ObjEd@@V?$allocator@USelection@ObjEd@@@2@@stdext@@YAPAUSelection@ObjEd@@V?$_Vector_const_iterator@USelection@ObjEd@@V?$allocator@USelection@ObjEd@@@std@@@std@@0PAU12@AAV?$allocator@USelection@ObjEd@@@4@@Z 00531670 f i Mesh.obj
 0002:000587e0       ??$_Checked_base@PAUSelection@ObjEd@@@std@@YAPAUSelection@ObjEd@@AAPAU12@@Z 005317e0 f i Mesh.obj
 0002:00058870       ??$_Iter_random@PAUSelection@ObjEd@@PAU12@@std@@YA?AUrandom_access_iterator_tag@0@ABQAUSelection@ObjEd@@0@Z 00531870 f i Mesh.obj
 0002:000588e0       ??$_Ptr_cat@PAUSelection@ObjEd@@PAU12@@std@@YA?AU_Nonscalar_ptr_iterator_tag@0@AAPAUSelection@ObjEd@@0@Z 005318e0 f i Mesh.obj
 0002:00058950       ??$_Copy_opt@PAUSelection@ObjEd@@PAU12@@std@@YAPAUSelection@ObjEd@@PAU12@00Urandom_access_iterator_tag@0@U_Nonscalar_ptr_iterator_tag@0@U_Range_checked_iterator_tag@0@@Z 00531950 f i Mesh.obj
 0002:00058a10       ??$unchecked_uninitialized_copy@PAUSelection@ObjEd@@PAU12@V?$allocator@USelection@ObjEd@@@std@@@stdext@@YAPAUSelection@ObjEd@@PAU12@00AAV?$allocator@USelection@ObjEd@@@std@@@Z 00531a10 f i Mesh.obj
 0002:00058ac0       ??$_Checked_base@PAUEdgeIntersection@ObjEd@@@std@@YAPAUEdgeIntersection@ObjEd@@AAPAU12@@Z 00531ac0 f i Mesh.obj
 0002:00058b50       ??$_Iter_random@PAUEdgeIntersection@ObjEd@@PAU12@@std@@YA?AUrandom_access_iterator_tag@0@ABQAUEdgeIntersection@ObjEd@@0@Z 00531b50 f i Mesh.obj
 0002:00058bc0       ??$_Ptr_cat@PAUEdgeIntersection@ObjEd@@PAU12@@std@@YA?AU_Nonscalar_ptr_iterator_tag@0@AAPAUEdgeIntersection@ObjEd@@0@Z 00531bc0 f i Mesh.obj
 0002:00058c30       ??$_Copy_opt@PAUEdgeIntersection@ObjEd@@PAU12@@std@@YAPAUEdgeIntersection@ObjEd@@PAU12@00Urandom_access_iterator_tag@0@U_Nonscalar_ptr_iterator_tag@0@U_Range_checked_iterator_tag@0@@Z 00531c30 f i Mesh.obj
 0002:00058ce0       ??$unchecked_uninitialized_copy@PAUEdgeIntersection@ObjEd@@PAU12@V?$allocator@UEdgeIntersection@ObjEd@@@std@@@stdext@@YAPAUEdgeIntersection@ObjEd@@PAU12@00AAV?$allocator@UEdgeIntersection@ObjEd@@@std@@@Z 00531ce0 f i Mesh.obj
 0002:00058d90       ??$unchecked_uninitialized_copy@V?$_Vector_const_iterator@VProcTex@ObjEd@@V?$allocator@VProcTex@ObjEd@@@std@@@std@@PAVProcTex@ObjEd@@V?$allocator@VProcTex@ObjEd@@@2@@stdext@@YAPAVProcTex@ObjEd@@V?$_Vector_const_iterator@VProcTex@ObjEd@@V?$allocator@VProcTex@ObjEd@@@std@@@std@@0PAV12@AAV?$allocator@VProcTex@ObjEd@@@4@@Z 00531d90 f i Mesh.obj
 0002:00058f00       ??$_Checked_base@PAVProcTex@ObjEd@@@std@@YAPAVProcTex@ObjEd@@AAPAV12@@Z 00531f00 f i Mesh.obj
 0002:00058f90       ??$_Iter_random@PAVProcTex@ObjEd@@PAV12@@std@@YA?AUrandom_access_iterator_tag@0@ABQAVProcTex@ObjEd@@0@Z 00531f90 f i Mesh.obj
 0002:00059000       ??$_Ptr_cat@PAVProcTex@ObjEd@@PAV12@@std@@YA?AU_Nonscalar_ptr_iterator_tag@0@AAPAVProcTex@ObjEd@@0@Z 00532000 f i Mesh.obj
 0002:00059070       ??$_Copy_opt@PAVProcTex@ObjEd@@PAV12@@std@@YAPAVProcTex@ObjEd@@PAV12@00Urandom_access_iterator_tag@0@U_Nonscalar_ptr_iterator_tag@0@U_Range_checked_iterator_tag@0@@Z 00532070 f i Mesh.obj
 0002:00059130       ??$unchecked_uninitialized_copy@PAVProcTex@ObjEd@@PAV12@V?$allocator@VProcTex@ObjEd@@@std@@@stdext@@YAPAVProcTex@ObjEd@@PAV12@00AAV?$allocator@VProcTex@ObjEd@@@std@@@Z 00532130 f i Mesh.obj
 0002:000591e0       ??$unchecked_uninitialized_copy@V?$_Vector_const_iterator@PAVEditableMeshModel@@V?$allocator@PAVEditableMeshModel@@@std@@@std@@PAPAVEditableMeshModel@@V?$allocator@PAVEditableMeshModel@@@2@@stdext@@YAPAPAVEditableMeshModel@@V?$_Vector_const_iterator@PAVEditableMeshModel@@V?$allocator@PAVEditableMeshModel@@@std@@@std@@0PAPAV1@AAV?$allocator@PAVEditableMeshModel@@@3@@Z 005321e0 f i Mesh.obj
 0002:00059350       ??$_Iter_cat@V?$_Const_iterator@$00@?$list@HV?$allocator@H@std@@@std@@@std@@YA?AUbidirectional_iterator_tag@0@ABV?$_Const_iterator@$00@?$list@HV?$allocator@H@std@@@0@@Z 00532350 f i Mesh.obj
 0002:000593c0       ??$_Insert@V?$_Const_iterator@$00@?$list@HV?$allocator@H@std@@@std@@@?$list@HV?$allocator@H@std@@@std@@QAEXV?$_Const_iterator@$00@01@00Uforward_iterator_tag@1@@Z 005323c0 f i Mesh.obj
 0002:000596a0       ??$unchecked_uninitialized_copy@V?$_Vector_const_iterator@PAVDeferredMeshModel@@V?$allocator@PAVDeferredMeshModel@@@std@@@std@@PAPAVDeferredMeshModel@@V?$allocator@PAVDeferredMeshModel@@@2@@stdext@@YAPAPAVDeferredMeshModel@@V?$_Vector_const_iterator@PAVDeferredMeshModel@@V?$allocator@PAVDeferredMeshModel@@@std@@@std@@0PAPAV1@AAV?$allocator@PAVDeferredMeshModel@@@3@@Z 005326a0 f i Mesh.obj
 0002:00059810       ??$_Destroy_range@V?$allocator@UD3DXVECTOR3@@@std@@@std@@YAXPAUD3DXVECTOR3@@0AAV?$allocator@UD3DXVECTOR3@@@0@U_Nonscalar_ptr_iterator_tag@0@@Z 00532810 f i Mesh.obj
 0002:00059880       ??$_Destroy_range@V?$allocator@V?$vector@PAVHE_vert@@V?$allocator@PAVHE_vert@@@std@@@std@@@std@@@std@@YAXPAV?$vector@PAVHE_vert@@V?$allocator@PAVHE_vert@@@std@@@0@0AAV?$allocator@V?$vector@PAVHE_vert@@V?$allocator@PAVHE_vert@@@std@@@std@@@0@U_Nonscalar_ptr_iterator_tag@0@@Z 00532880 f i Mesh.obj
 0002:000598f0       ??$_Destroy_range@V?$allocator@PAVHE_vert@@@std@@@std@@YAXPAPAVHE_vert@@0AAV?$allocator@PAVHE_vert@@@0@U_Scalar_ptr_iterator_tag@0@@Z 005328f0 f i Mesh.obj
 0002:00059920       ??$_Destroy_range@V?$allocator@USelection@ObjEd@@@std@@@std@@YAXPAUSelection@ObjEd@@0AAV?$allocator@USelection@ObjEd@@@0@U_Nonscalar_ptr_iterator_tag@0@@Z 00532920 f i Mesh.obj
 0002:00059990       ??$_Uninit_fill_n@PAUSelection@ObjEd@@IU12@V?$allocator@USelection@ObjEd@@@std@@@std@@YAXPAUSelection@ObjEd@@IABU12@AAV?$allocator@USelection@ObjEd@@@0@U_Nonscalar_ptr_iterator_tag@0@U_Range_checked_iterator_tag@0@@Z 00532990 f i Mesh.obj
 0002:00059aa0       ??$_Destroy_range@V?$allocator@UEdgeIntersection@ObjEd@@@std@@@std@@YAXPAUEdgeIntersection@ObjEd@@0AAV?$allocator@UEdgeIntersection@ObjEd@@@0@U_Nonscalar_ptr_iterator_tag@0@@Z 00532aa0 f i Mesh.obj
 0002:00059b10       ??$_Checked_base@V?$_Vb_iterator@IHV?$vector@_NV?$allocator@_N@std@@@std@@@std@@@std@@YA?AV?$_Vb_iterator@IHV?$vector@_NV?$allocator@_N@std@@@std@@@0@AAV10@@Z 00532b10 f i Mesh.obj
 0002:00059bd0       ??$_Iter_random@V?$_Vb_iterator@IHV?$vector@_NV?$allocator@_N@std@@@std@@@std@@V12@@std@@YA?AUrandom_access_iterator_tag@0@ABV?$_Vb_iterator@IHV?$vector@_NV?$allocator@_N@std@@@std@@@0@0@Z 00532bd0 f i Mesh.obj
 0002:00059c40       ??$_Ptr_cat@V?$_Vb_iterator@IHV?$vector@_NV?$allocator@_N@std@@@std@@@std@@V12@@std@@YA?AU_Nonscalar_ptr_iterator_tag@0@AAV?$_Vb_iterator@IHV?$vector@_NV?$allocator@_N@std@@@std@@@0@0@Z 00532c40 f i Mesh.obj
 0002:00059cb0       ??$_Copy_opt@V?$_Vb_iterator@IHV?$vector@_NV?$allocator@_N@std@@@std@@@std@@V12@@std@@YA?AV?$_Vb_iterator@IHV?$vector@_NV?$allocator@_N@std@@@std@@@0@V10@00Urandom_access_iterator_tag@0@U_Nonscalar_ptr_iterator_tag@0@U_Range_checked_iterator_tag@0@@Z 00532cb0 f i Mesh.obj
 0002:00059ef0       ??$_Fill@V?$_Vb_iterator@IHV?$vector@_NV?$allocator@_N@std@@@std@@@std@@_N@std@@YAXV?$_Vb_iterator@IHV?$vector@_NV?$allocator@_N@std@@@std@@@0@0AB_N@Z 00532ef0 f i Mesh.obj
 0002:0005a080       ??$_Destroy_range@V?$allocator@VProcTex@ObjEd@@@std@@@std@@YAXPAVProcTex@ObjEd@@0AAV?$allocator@VProcTex@ObjEd@@@0@U_Nonscalar_ptr_iterator_tag@0@@Z 00533080 f i Mesh.obj
 0002:0005a0f0       ??$_Checked_base@PAPAVMeshComponent@@@std@@YAPAPAVMeshComponent@@AAPAPAV1@@Z 005330f0 f i Mesh.obj
 0002:0005a180       ??$_Iter_random@PAPAVMeshComponent@@PAPAV1@@std@@YA?AUrandom_access_iterator_tag@0@ABQAPAVMeshComponent@@0@Z 00533180 f i Mesh.obj
 0002:0005a1f0       ??$_Ptr_cat@PAPAVMeshComponent@@PAPAV1@@std@@YA?AU_Scalar_ptr_iterator_tag@0@AAPAPAVMeshComponent@@0@Z 005331f0 f i Mesh.obj
 0002:0005a260       ??$_Copy_opt@PAPAVMeshComponent@@PAPAV1@Urandom_access_iterator_tag@std@@@std@@YAPAPAVMeshComponent@@PAPAV1@00Urandom_access_iterator_tag@0@U_Scalar_ptr_iterator_tag@0@U_Range_checked_iterator_tag@0@@Z 00533260 f i Mesh.obj
 0002:0005a340       ??$_Checked_base@PAUBevelVInfo@ObjEd@@@std@@YAPAUBevelVInfo@ObjEd@@AAPAU12@@Z 00533340 f i Mesh.obj
 0002:0005a3d0       ??$_Iter_random@PAUBevelVInfo@ObjEd@@PAU12@@std@@YA?AUrandom_access_iterator_tag@0@ABQAUBevelVInfo@ObjEd@@0@Z 005333d0 f i Mesh.obj
 0002:0005a440       ??$_Ptr_cat@PAUBevelVInfo@ObjEd@@PAU12@@std@@YA?AU_Nonscalar_ptr_iterator_tag@0@AAPAUBevelVInfo@ObjEd@@0@Z 00533440 f i Mesh.obj
 0002:0005a4b0       ??$_Copy_opt@PAUBevelVInfo@ObjEd@@PAU12@@std@@YAPAUBevelVInfo@ObjEd@@PAU12@00Urandom_access_iterator_tag@0@U_Nonscalar_ptr_iterator_tag@0@U_Range_checked_iterator_tag@0@@Z 005334b0 f i Mesh.obj
 0002:0005a570       ??$_Checked_base@PAUExtrudeInfo@ObjEd@@@std@@YAPAUExtrudeInfo@ObjEd@@AAPAU12@@Z 00533570 f i Mesh.obj
 0002:0005a600       ??$_Iter_random@PAUExtrudeInfo@ObjEd@@PAU12@@std@@YA?AUrandom_access_iterator_tag@0@ABQAUExtrudeInfo@ObjEd@@0@Z 00533600 f i Mesh.obj
 0002:0005a670       ??$_Ptr_cat@PAUExtrudeInfo@ObjEd@@PAU12@@std@@YA?AU_Nonscalar_ptr_iterator_tag@0@AAPAUExtrudeInfo@ObjEd@@0@Z 00533670 f i Mesh.obj
 0002:0005a6e0       ??$_Copy_opt@PAUExtrudeInfo@ObjEd@@PAU12@@std@@YAPAUExtrudeInfo@ObjEd@@PAU12@00Urandom_access_iterator_tag@0@U_Nonscalar_ptr_iterator_tag@0@U_Range_checked_iterator_tag@0@@Z 005336e0 f i Mesh.obj
 0002:0005a7a0       ??$_Checked_base@PAUExtrudeMatrixInfo@ObjEd@@@std@@YAPAUExtrudeMatrixInfo@ObjEd@@AAPAU12@@Z 005337a0 f i Mesh.obj
 0002:0005a830       ??$_Iter_random@PAUExtrudeMatrixInfo@ObjEd@@PAU12@@std@@YA?AUrandom_access_iterator_tag@0@ABQAUExtrudeMatrixInfo@ObjEd@@0@Z 00533830 f i Mesh.obj
 0002:0005a8a0       ??$_Ptr_cat@PAUExtrudeMatrixInfo@ObjEd@@PAU12@@std@@YA?AU_Nonscalar_ptr_iterator_tag@0@AAPAUExtrudeMatrixInfo@ObjEd@@0@Z 005338a0 f i Mesh.obj
 0002:0005a910       ??$_Copy_opt@PAUExtrudeMatrixInfo@ObjEd@@PAU12@@std@@YAPAUExtrudeMatrixInfo@ObjEd@@PAU12@00Urandom_access_iterator_tag@0@U_Nonscalar_ptr_iterator_tag@0@U_Range_checked_iterator_tag@0@@Z 00533910 f i Mesh.obj
 0002:0005a9d0       ??$_Checked_base@PAUExtrudeInnerInfo@ObjEd@@@std@@YAPAUExtrudeInnerInfo@ObjEd@@AAPAU12@@Z 005339d0 f i Mesh.obj
 0002:0005aa60       ??$_Iter_random@PAUExtrudeInnerInfo@ObjEd@@PAU12@@std@@YA?AUrandom_access_iterator_tag@0@ABQAUExtrudeInnerInfo@ObjEd@@0@Z 00533a60 f i Mesh.obj
 0002:0005aad0       ??$_Ptr_cat@PAUExtrudeInnerInfo@ObjEd@@PAU12@@std@@YA?AU_Nonscalar_ptr_iterator_tag@0@AAPAUExtrudeInnerInfo@ObjEd@@0@Z 00533ad0 f i Mesh.obj
 0002:0005ab40       ??$_Copy_opt@PAUExtrudeInnerInfo@ObjEd@@PAU12@@std@@YAPAUExtrudeInnerInfo@ObjEd@@PAU12@00Urandom_access_iterator_tag@0@U_Nonscalar_ptr_iterator_tag@0@U_Range_checked_iterator_tag@0@@Z 00533b40 f i Mesh.obj
 0002:0005ac00       ??$_Checked_base@PAUNorScaleInfo@ObjEd@@@std@@YAPAUNorScaleInfo@ObjEd@@AAPAU12@@Z 00533c00 f i Mesh.obj
 0002:0005ac90       ??$_Iter_random@PAUNorScaleInfo@ObjEd@@PAU12@@std@@YA?AUrandom_access_iterator_tag@0@ABQAUNorScaleInfo@ObjEd@@0@Z 00533c90 f i Mesh.obj
 0002:0005ad00       ??$_Ptr_cat@PAUNorScaleInfo@ObjEd@@PAU12@@std@@YA?AU_Nonscalar_ptr_iterator_tag@0@AAPAUNorScaleInfo@ObjEd@@0@Z 00533d00 f i Mesh.obj
 0002:0005ad70       ??$_Copy_opt@PAUNorScaleInfo@ObjEd@@PAU12@@std@@YAPAUNorScaleInfo@ObjEd@@PAU12@00Urandom_access_iterator_tag@0@U_Nonscalar_ptr_iterator_tag@0@U_Range_checked_iterator_tag@0@@Z 00533d70 f i Mesh.obj
 0002:0005ae30       ??$_Ptr_cat@PAPAVEditableMeshModel@@PAPAV1@@std@@YA?AU_Scalar_ptr_iterator_tag@0@AAPAPAVEditableMeshModel@@0@Z 00533e30 f i Mesh.obj
 0002:0005aea0       ??$_Uninit_fill_n@PAPAVEditableMeshModel@@IPAV1@V?$allocator@PAVEditableMeshModel@@@std@@@std@@YAXPAPAVEditableMeshModel@@IABQAV1@AAV?$allocator@PAVEditableMeshModel@@@0@U_Scalar_ptr_iterator_tag@0@U_Range_checked_iterator_tag@0@@Z 00533ea0 f i Mesh.obj
 0002:0005af00       ??$_Debug_range@V?$_Iterator@$00@?$list@HV?$allocator@H@std@@@std@@@std@@YAXV?$_Iterator@$00@?$list@HV?$allocator@H@std@@@0@0PB_WI@Z 00533f00 f i Mesh.obj
 0002:0005b030       ??$_Debug_order2@V?$_Iterator@$00@?$list@HV?$allocator@H@std@@@std@@@std@@YAXV?$_Iterator@$00@?$list@HV?$allocator@H@std@@@0@0PB_WIUforward_iterator_tag@0@@Z 00534030 f i Mesh.obj
 0002:0005b1e0       ??$_Ptr_cat@PAPAVDeferredMeshModel@@PAPAV1@@std@@YA?AU_Scalar_ptr_iterator_tag@0@AAPAPAVDeferredMeshModel@@0@Z 005341e0 f i Mesh.obj
 0002:0005b250       ??$_Uninit_fill_n@PAPAVDeferredMeshModel@@IPAV1@V?$allocator@PAVDeferredMeshModel@@@std@@@std@@YAXPAPAVDeferredMeshModel@@IABQAV1@AAV?$allocator@PAVDeferredMeshModel@@@0@U_Scalar_ptr_iterator_tag@0@U_Range_checked_iterator_tag@0@@Z 00534250 f i Mesh.obj
 0002:0005b2b0       ??$_Unchecked_uninitialized_move@PAUSelection@ObjEd@@PAU12@V?$allocator@USelection@ObjEd@@@std@@@stdext@@YAPAUSelection@ObjEd@@PAU12@00AAV?$allocator@USelection@ObjEd@@@std@@@Z 005342b0 f i Mesh.obj
 0002:0005b360       ??$_Fill@PAUSelection@ObjEd@@U12@@std@@YAXPAUSelection@ObjEd@@0ABU12@@Z 00534360 f i Mesh.obj
 0002:0005b400       ??$_Move_cat@PAUSelection@ObjEd@@@std@@YA?AU_Undefined_move_tag@0@ABQAUSelection@ObjEd@@@Z 00534400 f i Mesh.obj
 0002:0005b470       ??$_Move_backward_opt@PAUSelection@ObjEd@@PAU12@Urandom_access_iterator_tag@std@@U_Undefined_move_tag@4@@std@@YAPAUSelection@ObjEd@@PAU12@00Urandom_access_iterator_tag@0@U_Undefined_move_tag@0@U_Range_checked_iterator_tag@0@@Z 00534470 f i Mesh.obj
 0002:0005b510       ??$_Copy_backward_opt@V?$_Vb_iterator@IHV?$vector@_NV?$allocator@_N@std@@@std@@@std@@V12@@std@@YA?AV?$_Vb_iterator@IHV?$vector@_NV?$allocator@_N@std@@@std@@@0@V10@00Urandom_access_iterator_tag@0@U_Nonscalar_ptr_iterator_tag@0@U_Range_checked_iterator_tag@0@@Z 00534510 f i Mesh.obj
 0002:0005b750       ??$_Unchecked_uninitialized_move@PAVProcTex@ObjEd@@PAV12@V?$allocator@VProcTex@ObjEd@@@std@@@stdext@@YAPAVProcTex@ObjEd@@PAV12@00AAV?$allocator@VProcTex@ObjEd@@@std@@@Z 00534750 f i Mesh.obj
 0002:0005b800       ??$_Fill@PAVProcTex@ObjEd@@V12@@std@@YAXPAVProcTex@ObjEd@@0ABV12@@Z 00534800 f i Mesh.obj
 0002:0005b890       ??4ProcTex@ObjEd@@QAEAAV01@ABV01@@Z 00534890 f i Mesh.obj
 0002:0005b960       ??$_Move_cat@PAVProcTex@ObjEd@@@std@@YA?AU_Undefined_move_tag@0@ABQAVProcTex@ObjEd@@@Z 00534960 f i Mesh.obj
 0002:0005b9d0       ??$_Move_backward_opt@PAVProcTex@ObjEd@@PAV12@Urandom_access_iterator_tag@std@@U_Undefined_move_tag@4@@std@@YAPAVProcTex@ObjEd@@PAV12@00Urandom_access_iterator_tag@0@U_Undefined_move_tag@0@U_Range_checked_iterator_tag@0@@Z 005349d0 f i Mesh.obj
 0002:0005ba70       ??$_Destroy_range@V?$allocator@PAVMeshComponent@@@std@@@std@@YAXPAPAVMeshComponent@@0AAV?$allocator@PAVMeshComponent@@@0@U_Scalar_ptr_iterator_tag@0@@Z 00534a70 f i Mesh.obj
 0002:0005baa0       ??$_Unchecked_uninitialized_move@PAPAVMeshComponent@@PAPAV1@V?$allocator@PAVMeshComponent@@@std@@@stdext@@YAPAPAVMeshComponent@@PAPAV1@00AAV?$allocator@PAVMeshComponent@@@std@@@Z 00534aa0 f i Mesh.obj
 0002:0005bb50       ??$_Fill@PAPAVMeshComponent@@PAV1@@std@@YAXPAPAVMeshComponent@@0ABQAV1@@Z 00534b50 f i Mesh.obj
 0002:0005bbe0       ??$_Move_cat@PAPAVMeshComponent@@@std@@YA?AU_Undefined_move_tag@0@ABQAPAVMeshComponent@@@Z 00534be0 f i Mesh.obj
 0002:0005bc50       ??$_Move_backward_opt@PAPAVMeshComponent@@PAPAV1@Urandom_access_iterator_tag@std@@U_Undefined_move_tag@3@@std@@YAPAPAVMeshComponent@@PAPAV1@00Urandom_access_iterator_tag@0@U_Undefined_move_tag@0@U_Range_checked_iterator_tag@0@@Z 00534c50 f i Mesh.obj
 0002:0005bcf0       ??$_Destroy_range@V?$allocator@UBevelVInfo@ObjEd@@@std@@@std@@YAXPAUBevelVInfo@ObjEd@@0AAV?$allocator@UBevelVInfo@ObjEd@@@0@U_Nonscalar_ptr_iterator_tag@0@@Z 00534cf0 f i Mesh.obj
 0002:0005bd60       ??$_Unchecked_uninitialized_move@PAUBevelVInfo@ObjEd@@PAU12@V?$allocator@UBevelVInfo@ObjEd@@@std@@@stdext@@YAPAUBevelVInfo@ObjEd@@PAU12@00AAV?$allocator@UBevelVInfo@ObjEd@@@std@@@Z 00534d60 f i Mesh.obj
 0002:0005be10       ??$_Fill@PAUBevelVInfo@ObjEd@@U12@@std@@YAXPAUBevelVInfo@ObjEd@@0ABU12@@Z 00534e10 f i Mesh.obj
 0002:0005bea0       ??$_Move_cat@PAUBevelVInfo@ObjEd@@@std@@YA?AU_Undefined_move_tag@0@ABQAUBevelVInfo@ObjEd@@@Z 00534ea0 f i Mesh.obj
 0002:0005bf10       ??$_Move_backward_opt@PAUBevelVInfo@ObjEd@@PAU12@Urandom_access_iterator_tag@std@@U_Undefined_move_tag@4@@std@@YAPAUBevelVInfo@ObjEd@@PAU12@00Urandom_access_iterator_tag@0@U_Undefined_move_tag@0@U_Range_checked_iterator_tag@0@@Z 00534f10 f i Mesh.obj
 0002:0005bfb0       ??$_Destroy_range@V?$allocator@UExtrudeInfo@ObjEd@@@std@@@std@@YAXPAUExtrudeInfo@ObjEd@@0AAV?$allocator@UExtrudeInfo@ObjEd@@@0@U_Nonscalar_ptr_iterator_tag@0@@Z 00534fb0 f i Mesh.obj
 0002:0005c020       ??$_Unchecked_uninitialized_move@PAUExtrudeInfo@ObjEd@@PAU12@V?$allocator@UExtrudeInfo@ObjEd@@@std@@@stdext@@YAPAUExtrudeInfo@ObjEd@@PAU12@00AAV?$allocator@UExtrudeInfo@ObjEd@@@std@@@Z 00535020 f i Mesh.obj
 0002:0005c0d0       ??$_Fill@PAUExtrudeInfo@ObjEd@@U12@@std@@YAXPAUExtrudeInfo@ObjEd@@0ABU12@@Z 005350d0 f i Mesh.obj
 0002:0005c160       ??$_Move_cat@PAUExtrudeInfo@ObjEd@@@std@@YA?AU_Undefined_move_tag@0@ABQAUExtrudeInfo@ObjEd@@@Z 00535160 f i Mesh.obj
 0002:0005c1d0       ??$_Move_backward_opt@PAUExtrudeInfo@ObjEd@@PAU12@Urandom_access_iterator_tag@std@@U_Undefined_move_tag@4@@std@@YAPAUExtrudeInfo@ObjEd@@PAU12@00Urandom_access_iterator_tag@0@U_Undefined_move_tag@0@U_Range_checked_iterator_tag@0@@Z 005351d0 f i Mesh.obj
 0002:0005c270       ??$_Destroy_range@V?$allocator@UExtrudeMatrixInfo@ObjEd@@@std@@@std@@YAXPAUExtrudeMatrixInfo@ObjEd@@0AAV?$allocator@UExtrudeMatrixInfo@ObjEd@@@0@U_Nonscalar_ptr_iterator_tag@0@@Z 00535270 f i Mesh.obj
 0002:0005c2e0       ??$_Unchecked_uninitialized_move@PAUExtrudeMatrixInfo@ObjEd@@PAU12@V?$allocator@UExtrudeMatrixInfo@ObjEd@@@std@@@stdext@@YAPAUExtrudeMatrixInfo@ObjEd@@PAU12@00AAV?$allocator@UExtrudeMatrixInfo@ObjEd@@@std@@@Z 005352e0 f i Mesh.obj
 0002:0005c390       ??$_Fill@PAUExtrudeMatrixInfo@ObjEd@@U12@@std@@YAXPAUExtrudeMatrixInfo@ObjEd@@0ABU12@@Z 00535390 f i Mesh.obj
 0002:0005c420       ??$_Move_cat@PAUExtrudeMatrixInfo@ObjEd@@@std@@YA?AU_Undefined_move_tag@0@ABQAUExtrudeMatrixInfo@ObjEd@@@Z 00535420 f i Mesh.obj
 0002:0005c490       ??$_Move_backward_opt@PAUExtrudeMatrixInfo@ObjEd@@PAU12@Urandom_access_iterator_tag@std@@U_Undefined_move_tag@4@@std@@YAPAUExtrudeMatrixInfo@ObjEd@@PAU12@00Urandom_access_iterator_tag@0@U_Undefined_move_tag@0@U_Range_checked_iterator_tag@0@@Z 00535490 f i Mesh.obj
 0002:0005c530       ??$_Destroy_range@V?$allocator@UExtrudeInnerInfo@ObjEd@@@std@@@std@@YAXPAUExtrudeInnerInfo@ObjEd@@0AAV?$allocator@UExtrudeInnerInfo@ObjEd@@@0@U_Nonscalar_ptr_iterator_tag@0@@Z 00535530 f i Mesh.obj
 0002:0005c5a0       ??$_Unchecked_uninitialized_move@PAUExtrudeInnerInfo@ObjEd@@PAU12@V?$allocator@UExtrudeInnerInfo@ObjEd@@@std@@@stdext@@YAPAUExtrudeInnerInfo@ObjEd@@PAU12@00AAV?$allocator@UExtrudeInnerInfo@ObjEd@@@std@@@Z 005355a0 f i Mesh.obj
 0002:0005c650       ??$_Fill@PAUExtrudeInnerInfo@ObjEd@@U12@@std@@YAXPAUExtrudeInnerInfo@ObjEd@@0ABU12@@Z 00535650 f i Mesh.obj
 0002:0005c6e0       ??$_Move_cat@PAUExtrudeInnerInfo@ObjEd@@@std@@YA?AU_Undefined_move_tag@0@ABQAUExtrudeInnerInfo@ObjEd@@@Z 005356e0 f i Mesh.obj
 0002:0005c750       ??$_Move_backward_opt@PAUExtrudeInnerInfo@ObjEd@@PAU12@Urandom_access_iterator_tag@std@@U_Undefined_move_tag@4@@std@@YAPAUExtrudeInnerInfo@ObjEd@@PAU12@00Urandom_access_iterator_tag@0@U_Undefined_move_tag@0@U_Range_checked_iterator_tag@0@@Z 00535750 f i Mesh.obj
 0002:0005c7f0       ??$_Destroy_range@V?$allocator@UNorScaleInfo@ObjEd@@@std@@@std@@YAXPAUNorScaleInfo@ObjEd@@0AAV?$allocator@UNorScaleInfo@ObjEd@@@0@U_Nonscalar_ptr_iterator_tag@0@@Z 005357f0 f i Mesh.obj
 0002:0005c860       ??$_Unchecked_uninitialized_move@PAUNorScaleInfo@ObjEd@@PAU12@V?$allocator@UNorScaleInfo@ObjEd@@@std@@@stdext@@YAPAUNorScaleInfo@ObjEd@@PAU12@00AAV?$allocator@UNorScaleInfo@ObjEd@@@std@@@Z 00535860 f i Mesh.obj
 0002:0005c910       ??$_Fill@PAUNorScaleInfo@ObjEd@@U12@@std@@YAXPAUNorScaleInfo@ObjEd@@0ABU12@@Z 00535910 f i Mesh.obj
 0002:0005c9a0       ??$_Move_cat@PAUNorScaleInfo@ObjEd@@@std@@YA?AU_Undefined_move_tag@0@ABQAUNorScaleInfo@ObjEd@@@Z 005359a0 f i Mesh.obj
 0002:0005ca10       ??$_Move_backward_opt@PAUNorScaleInfo@ObjEd@@PAU12@Urandom_access_iterator_tag@std@@U_Undefined_move_tag@4@@std@@YAPAUNorScaleInfo@ObjEd@@PAU12@00Urandom_access_iterator_tag@0@U_Undefined_move_tag@0@U_Range_checked_iterator_tag@0@@Z 00535a10 f i Mesh.obj
 0002:0005cab0       ??$_Destroy_range@V?$allocator@PAVEditableMeshModel@@@std@@@std@@YAXPAPAVEditableMeshModel@@0AAV?$allocator@PAVEditableMeshModel@@@0@U_Scalar_ptr_iterator_tag@0@@Z 00535ab0 f i Mesh.obj
 0002:0005cae0       ??$_Unchecked_uninitialized_move@PAPAVEditableMeshModel@@PAPAV1@V?$allocator@PAVEditableMeshModel@@@std@@@stdext@@YAPAPAVEditableMeshModel@@PAPAV1@00AAV?$allocator@PAVEditableMeshModel@@@std@@@Z 00535ae0 f i Mesh.obj
 0002:0005cb90       ??$_Checked_base@PAPAVEditableMeshModel@@@std@@YAPAPAVEditableMeshModel@@AAPAPAV1@@Z 00535b90 f i Mesh.obj
 0002:0005cc20       ??$_Fill@PAPAVEditableMeshModel@@PAV1@@std@@YAXPAPAVEditableMeshModel@@0ABQAV1@@Z 00535c20 f i Mesh.obj
 0002:0005ccb0       ??$_Iter_random@PAPAVEditableMeshModel@@PAPAV1@@std@@YA?AUrandom_access_iterator_tag@0@ABQAPAVEditableMeshModel@@0@Z 00535cb0 f i Mesh.obj
 0002:0005cd20       ??$_Move_cat@PAPAVEditableMeshModel@@@std@@YA?AU_Undefined_move_tag@0@ABQAPAVEditableMeshModel@@@Z 00535d20 f i Mesh.obj
 0002:0005cd90       ??$_Move_backward_opt@PAPAVEditableMeshModel@@PAPAV1@Urandom_access_iterator_tag@std@@U_Undefined_move_tag@3@@std@@YAPAPAVEditableMeshModel@@PAPAV1@00Urandom_access_iterator_tag@0@U_Undefined_move_tag@0@U_Range_checked_iterator_tag@0@@Z 00535d90 f i Mesh.obj
 0002:0005ce30       ??$_Ptr_cat@PAVFace@@PAV1@@std@@YA?AU_Nonscalar_ptr_iterator_tag@0@AAPAVFace@@0@Z 00535e30 f i Mesh.obj
 0002:0005cea0       ??$_Destroy_range@V?$allocator@VFace@@@std@@@std@@YAXPAVFace@@0AAV?$allocator@VFace@@@0@U_Nonscalar_ptr_iterator_tag@0@@Z 00535ea0 f i Mesh.obj
 0002:0005cf10       ??$_Destroy_range@V?$allocator@PAVDeferredMeshModel@@@std@@@std@@YAXPAPAVDeferredMeshModel@@0AAV?$allocator@PAVDeferredMeshModel@@@0@U_Scalar_ptr_iterator_tag@0@@Z 00535f10 f i Mesh.obj
 0002:0005cf40       ??$_Unchecked_uninitialized_move@PAPAVDeferredMeshModel@@PAPAV1@V?$allocator@PAVDeferredMeshModel@@@std@@@stdext@@YAPAPAVDeferredMeshModel@@PAPAV1@00AAV?$allocator@PAVDeferredMeshModel@@@std@@@Z 00535f40 f i Mesh.obj
 0002:0005cff0       ??$_Checked_base@PAPAVDeferredMeshModel@@@std@@YAPAPAVDeferredMeshModel@@AAPAPAV1@@Z 00535ff0 f i Mesh.obj
 0002:0005d080       ??$_Fill@PAPAVDeferredMeshModel@@PAV1@@std@@YAXPAPAVDeferredMeshModel@@0ABQAV1@@Z 00536080 f i Mesh.obj
 0002:0005d110       ??$_Iter_random@PAPAVDeferredMeshModel@@PAPAV1@@std@@YA?AUrandom_access_iterator_tag@0@ABQAPAVDeferredMeshModel@@0@Z 00536110 f i Mesh.obj
 0002:0005d180       ??$_Move_cat@PAPAVDeferredMeshModel@@@std@@YA?AU_Undefined_move_tag@0@ABQAPAVDeferredMeshModel@@@Z 00536180 f i Mesh.obj
 0002:0005d1f0       ??$_Move_backward_opt@PAPAVDeferredMeshModel@@PAPAV1@Urandom_access_iterator_tag@std@@U_Undefined_move_tag@3@@std@@YAPAPAVDeferredMeshModel@@PAPAV1@00Urandom_access_iterator_tag@0@U_Undefined_move_tag@0@U_Range_checked_iterator_tag@0@@Z 005361f0 f i Mesh.obj
 0002:0005d290       ??$unchecked_uninitialized_copy@V?$_Vector_const_iterator@V?$vector@PAVHE_vert@@V?$allocator@PAVHE_vert@@@std@@@std@@V?$allocator@V?$vector@PAVHE_vert@@V?$allocator@PAVHE_vert@@@std@@@std@@@2@@std@@PAV?$vector@PAVHE_vert@@V?$allocator@PAVHE_vert@@@std@@@2@V?$allocator@V?$vector@PAVHE_vert@@V?$allocator@PAVHE_vert@@@std@@@std@@@2@@stdext@@YAPAV?$vector@PAVHE_vert@@V?$allocator@PAVHE_vert@@@std@@@std@@V?$_Vector_const_iterator@V?$vector@PAVHE_vert@@V?$allocator@PAVHE_vert@@@std@@@std@@V?$allocator@V?$vector@PAVHE_vert@@V?$allocator@PAVHE_vert@@@std@@@std@@@2@@2@0PAV12@AAV?$allocator@V?$vector@PAVHE_vert@@V?$allocator@PAVHE_vert@@@std@@@std@@@2@@Z 00536290 f i Mesh.obj
 0002:0005d400       ??$unchecked_uninitialized_copy@V?$_Vector_const_iterator@PAVHE_vert@@V?$allocator@PAVHE_vert@@@std@@@std@@PAPAVHE_vert@@V?$allocator@PAVHE_vert@@@2@@stdext@@YAPAPAVHE_vert@@V?$_Vector_const_iterator@PAVHE_vert@@V?$allocator@PAVHE_vert@@@std@@@std@@0PAPAV1@AAV?$allocator@PAVHE_vert@@@3@@Z 00536400 f i Mesh.obj
 0002:0005d570       ??$_Uninit_fill_n@PAVProcTex@ObjEd@@IV12@V?$allocator@VProcTex@ObjEd@@@std@@@std@@YAXPAVProcTex@ObjEd@@IABV12@AAV?$allocator@VProcTex@ObjEd@@@0@U_Nonscalar_ptr_iterator_tag@0@U_Range_checked_iterator_tag@0@@Z 00536570 f i Mesh.obj
 0002:0005d690       ??$_Uninit_fill_n@PAPAVMeshComponent@@IPAV1@V?$allocator@PAVMeshComponent@@@std@@@std@@YAXPAPAVMeshComponent@@IABQAV1@AAV?$allocator@PAVMeshComponent@@@0@U_Scalar_ptr_iterator_tag@0@U_Range_checked_iterator_tag@0@@Z 00536690 f i Mesh.obj
 0002:0005d6f0       ??$_Uninit_fill_n@PAUBevelVInfo@ObjEd@@IU12@V?$allocator@UBevelVInfo@ObjEd@@@std@@@std@@YAXPAUBevelVInfo@ObjEd@@IABU12@AAV?$allocator@UBevelVInfo@ObjEd@@@0@U_Nonscalar_ptr_iterator_tag@0@U_Range_checked_iterator_tag@0@@Z 005366f0 f i Mesh.obj
 0002:0005d800       ??$_Uninit_fill_n@PAUExtrudeInfo@ObjEd@@IU12@V?$allocator@UExtrudeInfo@ObjEd@@@std@@@std@@YAXPAUExtrudeInfo@ObjEd@@IABU12@AAV?$allocator@UExtrudeInfo@ObjEd@@@0@U_Nonscalar_ptr_iterator_tag@0@U_Range_checked_iterator_tag@0@@Z 00536800 f i Mesh.obj
 0002:0005d910       ??$_Uninit_fill_n@PAUExtrudeMatrixInfo@ObjEd@@IU12@V?$allocator@UExtrudeMatrixInfo@ObjEd@@@std@@@std@@YAXPAUExtrudeMatrixInfo@ObjEd@@IABU12@AAV?$allocator@UExtrudeMatrixInfo@ObjEd@@@0@U_Nonscalar_ptr_iterator_tag@0@U_Range_checked_iterator_tag@0@@Z 00536910 f i Mesh.obj
 0002:0005da20       ??$_Uninit_fill_n@PAUExtrudeInnerInfo@ObjEd@@IU12@V?$allocator@UExtrudeInnerInfo@ObjEd@@@std@@@std@@YAXPAUExtrudeInnerInfo@ObjEd@@IABU12@AAV?$allocator@UExtrudeInnerInfo@ObjEd@@@0@U_Nonscalar_ptr_iterator_tag@0@U_Range_checked_iterator_tag@0@@Z 00536a20 f i Mesh.obj
 0002:0005db30       ??$_Uninit_fill_n@PAUNorScaleInfo@ObjEd@@IU12@V?$allocator@UNorScaleInfo@ObjEd@@@std@@@std@@YAXPAUNorScaleInfo@ObjEd@@IABU12@AAV?$allocator@UNorScaleInfo@ObjEd@@@0@U_Nonscalar_ptr_iterator_tag@0@U_Range_checked_iterator_tag@0@@Z 00536b30 f i Mesh.obj
 0002:0005dc40       ??$_Unchecked_uninitialized_move@PAIPAIV?$allocator@I@std@@@stdext@@YAPAIPAI00AAV?$allocator@I@std@@@Z 00536c40 f i Mesh.obj
 0002:0005dcf0       ??$_Fill@PAII@std@@YAXPAI0ABI@Z 00536cf0 f i Mesh.obj
 0002:0005dd80       ??$_Move_cat@PAI@std@@YA?AU_Undefined_move_tag@0@ABQAI@Z 00536d80 f i Mesh.obj
 0002:0005ddf0       ??$_Move_backward_opt@PAIPAIUrandom_access_iterator_tag@std@@U_Undefined_move_tag@2@@std@@YAPAIPAI00Urandom_access_iterator_tag@0@U_Undefined_move_tag@0@U_Range_checked_iterator_tag@0@@Z 00536df0 f i Mesh.obj
 0002:0005de90       ?destroy@?$allocator@UD3DXVECTOR3@@@std@@QAEXPAUD3DXVECTOR3@@@Z 00536e90 f i Mesh.obj
 0002:0005def0       ?destroy@?$allocator@V?$vector@PAVHE_vert@@V?$allocator@PAVHE_vert@@@std@@@std@@@std@@QAEXPAV?$vector@PAVHE_vert@@V?$allocator@PAVHE_vert@@@std@@@2@@Z 00536ef0 f i Mesh.obj
 0002:0005df50       ?construct@?$allocator@USelection@ObjEd@@@std@@QAEXPAUSelection@ObjEd@@ABU34@@Z 00536f50 f i Mesh.obj
 0002:0005dfb0       ?destroy@?$allocator@USelection@ObjEd@@@std@@QAEXPAUSelection@ObjEd@@@Z 00536fb0 f i Mesh.obj
 0002:0005e010       ?destroy@?$allocator@UEdgeIntersection@ObjEd@@@std@@QAEXPAUEdgeIntersection@ObjEd@@@Z 00537010 f i Mesh.obj
 0002:0005e070       ?construct@?$allocator@VProcTex@ObjEd@@@std@@QAEXPAVProcTex@ObjEd@@ABV34@@Z 00537070 f i Mesh.obj
 0002:0005e0d0       ?destroy@?$allocator@VProcTex@ObjEd@@@std@@QAEXPAVProcTex@ObjEd@@@Z 005370d0 f i Mesh.obj
 0002:0005e130       ?construct@?$allocator@UBevelVInfo@ObjEd@@@std@@QAEXPAUBevelVInfo@ObjEd@@ABU34@@Z 00537130 f i Mesh.obj
 0002:0005e190       ?destroy@?$allocator@UBevelVInfo@ObjEd@@@std@@QAEXPAUBevelVInfo@ObjEd@@@Z 00537190 f i Mesh.obj
 0002:0005e1f0       ?construct@?$allocator@UExtrudeInfo@ObjEd@@@std@@QAEXPAUExtrudeInfo@ObjEd@@ABU34@@Z 005371f0 f i Mesh.obj
 0002:0005e250       ?destroy@?$allocator@UExtrudeInfo@ObjEd@@@std@@QAEXPAUExtrudeInfo@ObjEd@@@Z 00537250 f i Mesh.obj
 0002:0005e2b0       ?construct@?$allocator@UExtrudeMatrixInfo@ObjEd@@@std@@QAEXPAUExtrudeMatrixInfo@ObjEd@@ABU34@@Z 005372b0 f i Mesh.obj
 0002:0005e310       ?destroy@?$allocator@UExtrudeMatrixInfo@ObjEd@@@std@@QAEXPAUExtrudeMatrixInfo@ObjEd@@@Z 00537310 f i Mesh.obj
 0002:0005e370       ?construct@?$allocator@UExtrudeInnerInfo@ObjEd@@@std@@QAEXPAUExtrudeInnerInfo@ObjEd@@ABU34@@Z 00537370 f i Mesh.obj
 0002:0005e3d0       ?destroy@?$allocator@UExtrudeInnerInfo@ObjEd@@@std@@QAEXPAUExtrudeInnerInfo@ObjEd@@@Z 005373d0 f i Mesh.obj
 0002:0005e430       ?construct@?$allocator@UNorScaleInfo@ObjEd@@@std@@QAEXPAUNorScaleInfo@ObjEd@@ABU34@@Z 00537430 f i Mesh.obj
 0002:0005e490       ?destroy@?$allocator@UNorScaleInfo@ObjEd@@@std@@QAEXPAUNorScaleInfo@ObjEd@@@Z 00537490 f i Mesh.obj
 0002:0005e4f0       ?destroy@?$allocator@VFace@@@std@@QAEXPAVFace@@@Z 005374f0 f i Mesh.obj
 0002:0005e550       ??F?$_Const_iterator@$00@?$list@HV?$allocator@H@std@@@std@@QAEAAV012@XZ 00537550 f i Mesh.obj
 0002:0005e690       ??E?$_Vb_iterator@IHV?$vector@_NV?$allocator@_N@std@@@std@@@std@@QAEAAV01@XZ 00537690 f i Mesh.obj
 0002:0005e6f0       ??G?$_Vb_iterator@IHV?$vector@_NV?$allocator@_N@std@@@std@@@std@@QBE?AV01@H@Z 005376f0 f i Mesh.obj
 0002:0005e810       ??9?$_Vb_const_iterator@IHV?$vector@_NV?$allocator@_N@std@@@std@@@std@@QBE_NABV01@@Z 00537810 f i Mesh.obj
 0002:0005e880       ??Z?$_Vb_iterator@IHV?$vector@_NV?$allocator@_N@std@@@std@@@std@@QAEAAV01@H@Z 00537880 f i Mesh.obj
 0002:0005e8e0       ??E?$_Vb_const_iterator@IHV?$vector@_NV?$allocator@_N@std@@@std@@@std@@QAEAAV01@XZ 005378e0 f i Mesh.obj
 0002:0005e940       ??8?$_Vb_const_iterator@IHV?$vector@_NV?$allocator@_N@std@@@std@@@std@@QBE_NABV01@@Z 00537940 f i Mesh.obj
 0002:0005e9e0       ?_Inc@?$_Vb_const_iterator@IHV?$vector@_NV?$allocator@_N@std@@@std@@@std@@IAEXXZ 005379e0 f i Mesh.obj
 0002:0005eb80       ??$insert@V?$_Vector_const_iterator@USelection@ObjEd@@V?$allocator@USelection@ObjEd@@@std@@@std@@@?$vector@USelection@ObjEd@@V?$allocator@USelection@ObjEd@@@std@@@std@@QAEXV?$_Vector_const_iterator@USelection@ObjEd@@V?$allocator@USelection@ObjEd@@@std@@@1@00@Z 00537b80 f i Mesh.obj
 0002:0005ecf0       ??$insert@V?$_Iterator@$00@?$list@HV?$allocator@H@std@@@std@@@?$vector@HV?$allocator@H@std@@@std@@QAEXV?$_Vector_const_iterator@HV?$allocator@H@std@@@1@V?$_Iterator@$00@?$list@HV?$allocator@H@std@@@1@1@Z 00537cf0 f i Mesh.obj
 0002:0005ee60       ??$_Checked_base@V?$_Vector_const_iterator@HV?$allocator@H@std@@@std@@@std@@YA?AV?$_Vector_const_iterator@HV?$allocator@H@std@@@0@AAV10@@Z 00537e60 f i Mesh.obj
 0002:0005ef20       ??$_Ptr_cat@V?$_Vector_const_iterator@HV?$allocator@H@std@@@std@@PAH@std@@YA?AU_Scalar_ptr_iterator_tag@0@AAV?$_Vector_const_iterator@HV?$allocator@H@std@@@0@AAPAH@Z 00537f20 f i Mesh.obj
 0002:0005ef90       ??$_Uninit_copy@V?$_Vector_const_iterator@HV?$allocator@H@std@@@std@@PAHV?$allocator@H@2@@std@@YAPAHV?$_Vector_const_iterator@HV?$allocator@H@std@@@0@0PAHAAV?$allocator@H@0@U_Scalar_ptr_iterator_tag@0@U_Range_checked_iterator_tag@0@@Z 00537f90 f i Mesh.obj
 0002:0005f130       ??$_Checked_base@PAH@std@@YAPAHAAPAHU_Unchanged_checked_iterator_base_type_tag@0@@Z 00538130 f i Mesh.obj
 0002:0005f170       ??$_Debug_range@PAH@std@@YAXPAH0PB_WI@Z 00538170 f i Mesh.obj
 0002:0005f1f0       ??$_Debug_pointer@H@std@@YAXPAHPB_WI@Z 005381f0 f i Mesh.obj
 0002:0005f260       ??$_Uninit_copy@PAHPAHV?$allocator@H@std@@@std@@YAPAHPAH00AAV?$allocator@H@0@U_Scalar_ptr_iterator_tag@0@U_Range_checked_iterator_tag@0@@Z 00538260 f i Mesh.obj
 0002:0005f340       ??$_Checked_base@V?$_Vector_const_iterator@UD3DXVECTOR3@@V?$allocator@UD3DXVECTOR3@@@std@@@std@@@std@@YA?AV?$_Vector_const_iterator@UD3DXVECTOR3@@V?$allocator@UD3DXVECTOR3@@@std@@@0@AAV10@@Z 00538340 f i Mesh.obj
 0002:0005f400       ??$_Ptr_cat@V?$_Vector_const_iterator@UD3DXVECTOR3@@V?$allocator@UD3DXVECTOR3@@@std@@@std@@PAUD3DXVECTOR3@@@std@@YA?AU_Nonscalar_ptr_iterator_tag@0@AAV?$_Vector_const_iterator@UD3DXVECTOR3@@V?$allocator@UD3DXVECTOR3@@@std@@@0@AAPAUD3DXVECTOR3@@@Z 00538400 f i Mesh.obj
 0002:0005f470       ??$_Uninit_copy@V?$_Vector_const_iterator@UD3DXVECTOR3@@V?$allocator@UD3DXVECTOR3@@@std@@@std@@PAUD3DXVECTOR3@@V?$allocator@UD3DXVECTOR3@@@2@@std@@YAPAUD3DXVECTOR3@@V?$_Vector_const_iterator@UD3DXVECTOR3@@V?$allocator@UD3DXVECTOR3@@@std@@@0@0PAU1@AAV?$allocator@UD3DXVECTOR3@@@0@U_Nonscalar_ptr_iterator_tag@0@U_Range_checked_iterator_tag@0@@Z 00538470 f i Mesh.obj
 0002:0005f670       ??$_Checked_base@PAUD3DXVECTOR3@@@std@@YAPAUD3DXVECTOR3@@AAPAU1@U_Unchanged_checked_iterator_base_type_tag@0@@Z 00538670 f i Mesh.obj
 0002:0005f6b0       ??$_Copy_opt@PAUD3DXVECTOR3@@PAU1@Uforward_iterator_tag@std@@@std@@YAPAUD3DXVECTOR3@@PAU1@00Uforward_iterator_tag@0@U_Nonscalar_ptr_iterator_tag@0@U_Range_checked_iterator_tag@0@@Z 005386b0 f i Mesh.obj
 0002:0005f760       ??$_Uninit_copy@PAUD3DXVECTOR3@@PAU1@V?$allocator@UD3DXVECTOR3@@@std@@@std@@YAPAUD3DXVECTOR3@@PAU1@00AAV?$allocator@UD3DXVECTOR3@@@0@U_Nonscalar_ptr_iterator_tag@0@U_Range_checked_iterator_tag@0@@Z 00538760 f i Mesh.obj
 0002:0005f8b0       ??$_Checked_base@PAV?$vector@PAVHE_vert@@V?$allocator@PAVHE_vert@@@std@@@std@@@std@@YAPAV?$vector@PAVHE_vert@@V?$allocator@PAVHE_vert@@@std@@@0@AAPAV10@U_Unchanged_checked_iterator_base_type_tag@0@@Z 005388b0 f i Mesh.obj
 0002:0005f8f0       ??$_Copy_opt@PAV?$vector@PAVHE_vert@@V?$allocator@PAVHE_vert@@@std@@@std@@PAV12@Uforward_iterator_tag@2@@std@@YAPAV?$vector@PAVHE_vert@@V?$allocator@PAVHE_vert@@@std@@@0@PAV10@00Uforward_iterator_tag@0@U_Nonscalar_ptr_iterator_tag@0@U_Range_checked_iterator_tag@0@@Z 005388f0 f i Mesh.obj
 0002:0005f990       ??$_Uninit_copy@PAV?$vector@PAVHE_vert@@V?$allocator@PAVHE_vert@@@std@@@std@@PAV12@V?$allocator@V?$vector@PAVHE_vert@@V?$allocator@PAVHE_vert@@@std@@@std@@@2@@std@@YAPAV?$vector@PAVHE_vert@@V?$allocator@PAVHE_vert@@@std@@@0@PAV10@00AAV?$allocator@V?$vector@PAVHE_vert@@V?$allocator@PAVHE_vert@@@std@@@std@@@0@U_Nonscalar_ptr_iterator_tag@0@U_Range_checked_iterator_tag@0@@Z 00538990 f i Mesh.obj
 0002:0005fae0       ??$_Checked_base@PAPAVHE_vert@@@std@@YAPAPAVHE_vert@@AAPAPAV1@U_Unchanged_checked_iterator_base_type_tag@0@@Z 00538ae0 f i Mesh.obj
 0002:0005fb20       ??$_Debug_range@PAPAVHE_vert@@@std@@YAXPAPAVHE_vert@@0PB_WI@Z 00538b20 f i Mesh.obj
 0002:0005fba0       ??$_Debug_pointer@PAVHE_vert@@@std@@YAXPAPAVHE_vert@@PB_WI@Z 00538ba0 f i Mesh.obj
 0002:0005fc10       ??$_Uninit_copy@PAPAVHE_vert@@PAPAV1@V?$allocator@PAVHE_vert@@@std@@@std@@YAPAPAVHE_vert@@PAPAV1@00AAV?$allocator@PAVHE_vert@@@0@U_Scalar_ptr_iterator_tag@0@U_Range_checked_iterator_tag@0@@Z 00538c10 f i Mesh.obj
 0002:0005fcf0       ??$_Checked_base@V?$_Vector_const_iterator@USelection@ObjEd@@V?$allocator@USelection@ObjEd@@@std@@@std@@@std@@YA?AV?$_Vector_const_iterator@USelection@ObjEd@@V?$allocator@USelection@ObjEd@@@std@@@0@AAV10@@Z 00538cf0 f i Mesh.obj
 0002:0005fdb0       ??$_Ptr_cat@V?$_Vector_const_iterator@USelection@ObjEd@@V?$allocator@USelection@ObjEd@@@std@@@std@@PAUSelection@ObjEd@@@std@@YA?AU_Nonscalar_ptr_iterator_tag@0@AAV?$_Vector_const_iterator@USelection@ObjEd@@V?$allocator@USelection@ObjEd@@@std@@@0@AAPAUSelection@ObjEd@@@Z 00538db0 f i Mesh.obj
 0002:0005fe20       ??$_Uninit_copy@V?$_Vector_const_iterator@USelection@ObjEd@@V?$allocator@USelection@ObjEd@@@std@@@std@@PAUSelection@ObjEd@@V?$allocator@USelection@ObjEd@@@2@@std@@YAPAUSelection@ObjEd@@V?$_Vector_const_iterator@USelection@ObjEd@@V?$allocator@USelection@ObjEd@@@std@@@0@0PAU12@AAV?$allocator@USelection@ObjEd@@@0@U_Nonscalar_ptr_iterator_tag@0@U_Range_checked_iterator_tag@0@@Z 00538e20 f i Mesh.obj
 0002:00060020       ??$_Checked_base@PAUSelection@ObjEd@@@std@@YAPAUSelection@ObjEd@@AAPAU12@U_Unchanged_checked_iterator_base_type_tag@0@@Z 00539020 f i Mesh.obj
 0002:00060060       ??$_Copy_opt@PAUSelection@ObjEd@@PAU12@Uforward_iterator_tag@std@@@std@@YAPAUSelection@ObjEd@@PAU12@00Uforward_iterator_tag@0@U_Nonscalar_ptr_iterator_tag@0@U_Range_checked_iterator_tag@0@@Z 00539060 f i Mesh.obj
 0002:00060110       ??$_Uninit_copy@PAUSelection@ObjEd@@PAU12@V?$allocator@USelection@ObjEd@@@std@@@std@@YAPAUSelection@ObjEd@@PAU12@00AAV?$allocator@USelection@ObjEd@@@0@U_Nonscalar_ptr_iterator_tag@0@U_Range_checked_iterator_tag@0@@Z 00539110 f i Mesh.obj
 0002:00060260       ??$_Checked_base@PAUEdgeIntersection@ObjEd@@@std@@YAPAUEdgeIntersection@ObjEd@@AAPAU12@U_Unchanged_checked_iterator_base_type_tag@0@@Z 00539260 f i Mesh.obj
 0002:000602a0       ??$_Copy_opt@PAUEdgeIntersection@ObjEd@@PAU12@Uforward_iterator_tag@std@@@std@@YAPAUEdgeIntersection@ObjEd@@PAU12@00Uforward_iterator_tag@0@U_Nonscalar_ptr_iterator_tag@0@U_Range_checked_iterator_tag@0@@Z 005392a0 f i Mesh.obj
 0002:00060350       ??$_Uninit_copy@PAUEdgeIntersection@ObjEd@@PAU12@V?$allocator@UEdgeIntersection@ObjEd@@@std@@@std@@YAPAUEdgeIntersection@ObjEd@@PAU12@00AAV?$allocator@UEdgeIntersection@ObjEd@@@0@U_Nonscalar_ptr_iterator_tag@0@U_Range_checked_iterator_tag@0@@Z 00539350 f i Mesh.obj
 0002:000604a0       ??$_Checked_base@V?$_Vector_const_iterator@VProcTex@ObjEd@@V?$allocator@VProcTex@ObjEd@@@std@@@std@@@std@@YA?AV?$_Vector_const_iterator@VProcTex@ObjEd@@V?$allocator@VProcTex@ObjEd@@@std@@@0@AAV10@@Z 005394a0 f i Mesh.obj
 0002:00060560       ??$_Ptr_cat@V?$_Vector_const_iterator@VProcTex@ObjEd@@V?$allocator@VProcTex@ObjEd@@@std@@@std@@PAVProcTex@ObjEd@@@std@@YA?AU_Nonscalar_ptr_iterator_tag@0@AAV?$_Vector_const_iterator@VProcTex@ObjEd@@V?$allocator@VProcTex@ObjEd@@@std@@@0@AAPAVProcTex@ObjEd@@@Z 00539560 f i Mesh.obj
 0002:000605d0       ??$_Uninit_copy@V?$_Vector_const_iterator@VProcTex@ObjEd@@V?$allocator@VProcTex@ObjEd@@@std@@@std@@PAVProcTex@ObjEd@@V?$allocator@VProcTex@ObjEd@@@2@@std@@YAPAVProcTex@ObjEd@@V?$_Vector_const_iterator@VProcTex@ObjEd@@V?$allocator@VProcTex@ObjEd@@@std@@@0@0PAV12@AAV?$allocator@VProcTex@ObjEd@@@0@U_Nonscalar_ptr_iterator_tag@0@U_Range_checked_iterator_tag@0@@Z 005395d0 f i Mesh.obj
 0002:000607e0       ??$_Checked_base@PAVProcTex@ObjEd@@@std@@YAPAVProcTex@ObjEd@@AAPAV12@U_Unchanged_checked_iterator_base_type_tag@0@@Z 005397e0 f i Mesh.obj
 0002:00060820       ??$_Copy_opt@PAVProcTex@ObjEd@@PAV12@Uforward_iterator_tag@std@@@std@@YAPAVProcTex@ObjEd@@PAV12@00Uforward_iterator_tag@0@U_Nonscalar_ptr_iterator_tag@0@U_Range_checked_iterator_tag@0@@Z 00539820 f i Mesh.obj
 0002:000608c0       ??$_Uninit_copy@PAVProcTex@ObjEd@@PAV12@V?$allocator@VProcTex@ObjEd@@@std@@@std@@YAPAVProcTex@ObjEd@@PAV12@00AAV?$allocator@VProcTex@ObjEd@@@0@U_Nonscalar_ptr_iterator_tag@0@U_Range_checked_iterator_tag@0@@Z 005398c0 f i Mesh.obj
 0002:00060a20       ??$_Checked_base@V?$_Vector_const_iterator@PAVEditableMeshModel@@V?$allocator@PAVEditableMeshModel@@@std@@@std@@@std@@YA?AV?$_Vector_const_iterator@PAVEditableMeshModel@@V?$allocator@PAVEditableMeshModel@@@std@@@0@AAV10@@Z 00539a20 f i Mesh.obj
 0002:00060ae0       ??$_Ptr_cat@V?$_Vector_const_iterator@PAVEditableMeshModel@@V?$allocator@PAVEditableMeshModel@@@std@@@std@@PAPAVEditableMeshModel@@@std@@YA?AU_Scalar_ptr_iterator_tag@0@AAV?$_Vector_const_iterator@PAVEditableMeshModel@@V?$allocator@PAVEditableMeshModel@@@std@@@0@AAPAPAVEditableMeshModel@@@Z 00539ae0 f i Mesh.obj
 0002:00060b50       ??$_Uninit_copy@V?$_Vector_const_iterator@PAVEditableMeshModel@@V?$allocator@PAVEditableMeshModel@@@std@@@std@@PAPAVEditableMeshModel@@V?$allocator@PAVEditableMeshModel@@@2@@std@@YAPAPAVEditableMeshModel@@V?$_Vector_const_iterator@PAVEditableMeshModel@@V?$allocator@PAVEditableMeshModel@@@std@@@0@0PAPAV1@AAV?$allocator@PAVEditableMeshModel@@@0@U_Scalar_ptr_iterator_tag@0@U_Range_checked_iterator_tag@0@@Z 00539b50 f i Mesh.obj
 0002:00060cf0       ??$_Debug_range@V?$_Const_iterator@$00@?$list@HV?$allocator@H@std@@@std@@@std@@YAXV?$_Const_iterator@$00@?$list@HV?$allocator@H@std@@@0@0PB_WI@Z 00539cf0 f i Mesh.obj
 0002:00060e20       ??$_Checked_base@V?$_Vector_const_iterator@PAVDeferredMeshModel@@V?$allocator@PAVDeferredMeshModel@@@std@@@std@@@std@@YA?AV?$_Vector_const_iterator@PAVDeferredMeshModel@@V?$allocator@PAVDeferredMeshModel@@@std@@@0@AAV10@@Z 00539e20 f i Mesh.obj
 0002:00060ee0       ??$_Ptr_cat@V?$_Vector_const_iterator@PAVDeferredMeshModel@@V?$allocator@PAVDeferredMeshModel@@@std@@@std@@PAPAVDeferredMeshModel@@@std@@YA?AU_Scalar_ptr_iterator_tag@0@AAV?$_Vector_const_iterator@PAVDeferredMeshModel@@V?$allocator@PAVDeferredMeshModel@@@std@@@0@AAPAPAVDeferredMeshModel@@@Z 00539ee0 f i Mesh.obj
 0002:00060f50       ??$_Uninit_copy@V?$_Vector_const_iterator@PAVDeferredMeshModel@@V?$allocator@PAVDeferredMeshModel@@@std@@@std@@PAPAVDeferredMeshModel@@V?$allocator@PAVDeferredMeshModel@@@2@@std@@YAPAPAVDeferredMeshModel@@V?$_Vector_const_iterator@PAVDeferredMeshModel@@V?$allocator@PAVDeferredMeshModel@@@std@@@0@0PAPAV1@AAV?$allocator@PAVDeferredMeshModel@@@0@U_Scalar_ptr_iterator_tag@0@U_Range_checked_iterator_tag@0@@Z 00539f50 f i Mesh.obj
 0002:000610f0       ??$_Checked_base@V?$_Vb_iterator@IHV?$vector@_NV?$allocator@_N@std@@@std@@@std@@@std@@YA?AV?$_Vb_iterator@IHV?$vector@_NV?$allocator@_N@std@@@std@@@0@AAV10@U_Unchanged_checked_iterator_base_type_tag@0@@Z 0053a0f0 f i Mesh.obj
 0002:00061160       ??$_Copy_opt@V?$_Vb_iterator@IHV?$vector@_NV?$allocator@_N@std@@@std@@@std@@V12@Uforward_iterator_tag@2@@std@@YA?AV?$_Vb_iterator@IHV?$vector@_NV?$allocator@_N@std@@@std@@@0@V10@00Uforward_iterator_tag@0@U_Nonscalar_ptr_iterator_tag@0@U_Range_checked_iterator_tag@0@@Z 0053a160 f i Mesh.obj
 0002:00061380       ??$_Debug_range@V?$_Vb_iterator@IHV?$vector@_NV?$allocator@_N@std@@@std@@@std@@@std@@YAXV?$_Vb_iterator@IHV?$vector@_NV?$allocator@_N@std@@@std@@@0@0PB_WI@Z 0053a380 f i Mesh.obj
 0002:000614b0       ??$_Checked_base@PAPAVMeshComponent@@@std@@YAPAPAVMeshComponent@@AAPAPAV1@U_Unchanged_checked_iterator_base_type_tag@0@@Z 0053a4b0 f i Mesh.obj
 0002:000614f0       ??$_Debug_range@PAPAVMeshComponent@@@std@@YAXPAPAVMeshComponent@@0PB_WI@Z 0053a4f0 f i Mesh.obj
 0002:00061570       ??$_Debug_pointer@PAVMeshComponent@@@std@@YAXPAPAVMeshComponent@@PB_WI@Z 0053a570 f i Mesh.obj
 0002:000615e0       ??$_Checked_base@PAUBevelVInfo@ObjEd@@@std@@YAPAUBevelVInfo@ObjEd@@AAPAU12@U_Unchanged_checked_iterator_base_type_tag@0@@Z 0053a5e0 f i Mesh.obj
 0002:00061620       ??$_Copy_opt@PAUBevelVInfo@ObjEd@@PAU12@Uforward_iterator_tag@std@@@std@@YAPAUBevelVInfo@ObjEd@@PAU12@00Uforward_iterator_tag@0@U_Nonscalar_ptr_iterator_tag@0@U_Range_checked_iterator_tag@0@@Z 0053a620 f i Mesh.obj
 0002:000616c0       ??$_Checked_base@PAUExtrudeInfo@ObjEd@@@std@@YAPAUExtrudeInfo@ObjEd@@AAPAU12@U_Unchanged_checked_iterator_base_type_tag@0@@Z 0053a6c0 f i Mesh.obj
 0002:00061700       ??$_Copy_opt@PAUExtrudeInfo@ObjEd@@PAU12@Uforward_iterator_tag@std@@@std@@YAPAUExtrudeInfo@ObjEd@@PAU12@00Uforward_iterator_tag@0@U_Nonscalar_ptr_iterator_tag@0@U_Range_checked_iterator_tag@0@@Z 0053a700 f i Mesh.obj
 0002:000617a0       ??$_Checked_base@PAUExtrudeMatrixInfo@ObjEd@@@std@@YAPAUExtrudeMatrixInfo@ObjEd@@AAPAU12@U_Unchanged_checked_iterator_base_type_tag@0@@Z 0053a7a0 f i Mesh.obj
 0002:000617e0       ??$_Copy_opt@PAUExtrudeMatrixInfo@ObjEd@@PAU12@Uforward_iterator_tag@std@@@std@@YAPAUExtrudeMatrixInfo@ObjEd@@PAU12@00Uforward_iterator_tag@0@U_Nonscalar_ptr_iterator_tag@0@U_Range_checked_iterator_tag@0@@Z 0053a7e0 f i Mesh.obj
 0002:00061880       ??$_Checked_base@PAUExtrudeInnerInfo@ObjEd@@@std@@YAPAUExtrudeInnerInfo@ObjEd@@AAPAU12@U_Unchanged_checked_iterator_base_type_tag@0@@Z 0053a880 f i Mesh.obj
 0002:000618c0       ??$_Copy_opt@PAUExtrudeInnerInfo@ObjEd@@PAU12@Uforward_iterator_tag@std@@@std@@YAPAUExtrudeInnerInfo@ObjEd@@PAU12@00Uforward_iterator_tag@0@U_Nonscalar_ptr_iterator_tag@0@U_Range_checked_iterator_tag@0@@Z 0053a8c0 f i Mesh.obj
 0002:00061960       ??$_Checked_base@PAUNorScaleInfo@ObjEd@@@std@@YAPAUNorScaleInfo@ObjEd@@AAPAU12@U_Unchanged_checked_iterator_base_type_tag@0@@Z 0053a960 f i Mesh.obj
 0002:000619a0       ??$_Copy_opt@PAUNorScaleInfo@ObjEd@@PAU12@Uforward_iterator_tag@std@@@std@@YAPAUNorScaleInfo@ObjEd@@PAU12@00Uforward_iterator_tag@0@U_Nonscalar_ptr_iterator_tag@0@U_Range_checked_iterator_tag@0@@Z 0053a9a0 f i Mesh.obj
 0002:00061a40       ??$unchecked_fill_n@PAPAVEditableMeshModel@@IPAV1@@stdext@@YAXPAPAVEditableMeshModel@@IABQAV1@@Z 0053aa40 f i Mesh.obj
 0002:00061ad0       ??$_Debug_range2@V?$_Iterator@$00@?$list@HV?$allocator@H@std@@@std@@@std@@YAXV?$_Iterator@$00@?$list@HV?$allocator@H@std@@@0@0PB_WIUinput_iterator_tag@0@@Z 0053aad0 f i Mesh.obj
 0002:00061b70       ??$unchecked_fill_n@PAPAVDeferredMeshModel@@IPAV1@@stdext@@YAXPAPAVDeferredMeshModel@@IABQAV1@@Z 0053ab70 f i Mesh.obj
 0002:00061c00       ??$_Uninit_move@PAUSelection@ObjEd@@PAU12@V?$allocator@USelection@ObjEd@@@std@@U_Undefined_move_tag@4@@std@@YAPAUSelection@ObjEd@@PAU12@00AAV?$allocator@USelection@ObjEd@@@0@U_Undefined_move_tag@0@U_Range_checked_iterator_tag@0@@Z 0053ac00 f i Mesh.obj
 0002:00061c60       ??$_Debug_range@PAUSelection@ObjEd@@@std@@YAXPAUSelection@ObjEd@@0PB_WI@Z 0053ac60 f i Mesh.obj
 0002:00061ce0       ??$_Copy_backward_opt@PAUSelection@ObjEd@@PAU12@@std@@YAPAUSelection@ObjEd@@PAU12@00Urandom_access_iterator_tag@0@U_Nonscalar_ptr_iterator_tag@0@U_Range_checked_iterator_tag@0@@Z 0053ace0 f i Mesh.obj
 0002:00061da0       ??$_Copy_backward_opt@V?$_Vb_iterator@IHV?$vector@_NV?$allocator@_N@std@@@std@@@std@@V12@Uforward_iterator_tag@2@@std@@YA?AV?$_Vb_iterator@IHV?$vector@_NV?$allocator@_N@std@@@std@@@0@V10@00Uforward_iterator_tag@0@U_Nonscalar_ptr_iterator_tag@0@U_Range_checked_iterator_tag@0@@Z 0053ada0 f i Mesh.obj
 0002:00061fc0       ??$_Uninit_move@PAVProcTex@ObjEd@@PAV12@V?$allocator@VProcTex@ObjEd@@@std@@U_Undefined_move_tag@4@@std@@YAPAVProcTex@ObjEd@@PAV12@00AAV?$allocator@VProcTex@ObjEd@@@0@U_Undefined_move_tag@0@U_Range_checked_iterator_tag@0@@Z 0053afc0 f i Mesh.obj
 0002:00062020       ??$_Debug_range@PAVProcTex@ObjEd@@@std@@YAXPAVProcTex@ObjEd@@0PB_WI@Z 0053b020 f i Mesh.obj
 0002:000620a0       ??$_Copy_backward_opt@PAVProcTex@ObjEd@@PAV12@@std@@YAPAVProcTex@ObjEd@@PAV12@00Urandom_access_iterator_tag@0@U_Nonscalar_ptr_iterator_tag@0@U_Range_checked_iterator_tag@0@@Z 0053b0a0 f i Mesh.obj
 0002:00062160       ??$_Uninit_move@PAPAVMeshComponent@@PAPAV1@V?$allocator@PAVMeshComponent@@@std@@U_Undefined_move_tag@3@@std@@YAPAPAVMeshComponent@@PAPAV1@00AAV?$allocator@PAVMeshComponent@@@0@U_Undefined_move_tag@0@U_Range_checked_iterator_tag@0@@Z 0053b160 f i Mesh.obj
 0002:000621c0       ??$_Copy_backward_opt@PAPAVMeshComponent@@PAPAV1@Urandom_access_iterator_tag@std@@@std@@YAPAPAVMeshComponent@@PAPAV1@00Urandom_access_iterator_tag@0@U_Scalar_ptr_iterator_tag@0@U_Range_checked_iterator_tag@0@@Z 0053b1c0 f i Mesh.obj
 0002:000622b0       ??$_Uninit_move@PAUBevelVInfo@ObjEd@@PAU12@V?$allocator@UBevelVInfo@ObjEd@@@std@@U_Undefined_move_tag@4@@std@@YAPAUBevelVInfo@ObjEd@@PAU12@00AAV?$allocator@UBevelVInfo@ObjEd@@@0@U_Undefined_move_tag@0@U_Range_checked_iterator_tag@0@@Z 0053b2b0 f i Mesh.obj
 0002:00062310       ??$_Debug_range@PAUBevelVInfo@ObjEd@@@std@@YAXPAUBevelVInfo@ObjEd@@0PB_WI@Z 0053b310 f i Mesh.obj
 0002:00062390       ??$_Copy_backward_opt@PAUBevelVInfo@ObjEd@@PAU12@@std@@YAPAUBevelVInfo@ObjEd@@PAU12@00Urandom_access_iterator_tag@0@U_Nonscalar_ptr_iterator_tag@0@U_Range_checked_iterator_tag@0@@Z 0053b390 f i Mesh.obj
 0002:00062450       ??$_Uninit_move@PAUExtrudeInfo@ObjEd@@PAU12@V?$allocator@UExtrudeInfo@ObjEd@@@std@@U_Undefined_move_tag@4@@std@@YAPAUExtrudeInfo@ObjEd@@PAU12@00AAV?$allocator@UExtrudeInfo@ObjEd@@@0@U_Undefined_move_tag@0@U_Range_checked_iterator_tag@0@@Z 0053b450 f i Mesh.obj
 0002:000624b0       ??$_Debug_range@PAUExtrudeInfo@ObjEd@@@std@@YAXPAUExtrudeInfo@ObjEd@@0PB_WI@Z 0053b4b0 f i Mesh.obj
 0002:00062530       ??$_Copy_backward_opt@PAUExtrudeInfo@ObjEd@@PAU12@@std@@YAPAUExtrudeInfo@ObjEd@@PAU12@00Urandom_access_iterator_tag@0@U_Nonscalar_ptr_iterator_tag@0@U_Range_checked_iterator_tag@0@@Z 0053b530 f i Mesh.obj
 0002:000625f0       ??$_Uninit_move@PAUExtrudeMatrixInfo@ObjEd@@PAU12@V?$allocator@UExtrudeMatrixInfo@ObjEd@@@std@@U_Undefined_move_tag@4@@std@@YAPAUExtrudeMatrixInfo@ObjEd@@PAU12@00AAV?$allocator@UExtrudeMatrixInfo@ObjEd@@@0@U_Undefined_move_tag@0@U_Range_checked_iterator_tag@0@@Z 0053b5f0 f i Mesh.obj
 0002:00062650       ??$_Debug_range@PAUExtrudeMatrixInfo@ObjEd@@@std@@YAXPAUExtrudeMatrixInfo@ObjEd@@0PB_WI@Z 0053b650 f i Mesh.obj
 0002:000626d0       ??$_Copy_backward_opt@PAUExtrudeMatrixInfo@ObjEd@@PAU12@@std@@YAPAUExtrudeMatrixInfo@ObjEd@@PAU12@00Urandom_access_iterator_tag@0@U_Nonscalar_ptr_iterator_tag@0@U_Range_checked_iterator_tag@0@@Z 0053b6d0 f i Mesh.obj
 0002:00062790       ??$_Uninit_move@PAUExtrudeInnerInfo@ObjEd@@PAU12@V?$allocator@UExtrudeInnerInfo@ObjEd@@@std@@U_Undefined_move_tag@4@@std@@YAPAUExtrudeInnerInfo@ObjEd@@PAU12@00AAV?$allocator@UExtrudeInnerInfo@ObjEd@@@0@U_Undefined_move_tag@0@U_Range_checked_iterator_tag@0@@Z 0053b790 f i Mesh.obj
 0002:000627f0       ??$_Debug_range@PAUExtrudeInnerInfo@ObjEd@@@std@@YAXPAUExtrudeInnerInfo@ObjEd@@0PB_WI@Z 0053b7f0 f i Mesh.obj
 0002:00062870       ??$_Copy_backward_opt@PAUExtrudeInnerInfo@ObjEd@@PAU12@@std@@YAPAUExtrudeInnerInfo@ObjEd@@PAU12@00Urandom_access_iterator_tag@0@U_Nonscalar_ptr_iterator_tag@0@U_Range_checked_iterator_tag@0@@Z 0053b870 f i Mesh.obj
 0002:00062930       ??$_Uninit_move@PAUNorScaleInfo@ObjEd@@PAU12@V?$allocator@UNorScaleInfo@ObjEd@@@std@@U_Undefined_move_tag@4@@std@@YAPAUNorScaleInfo@ObjEd@@PAU12@00AAV?$allocator@UNorScaleInfo@ObjEd@@@0@U_Undefined_move_tag@0@U_Range_checked_iterator_tag@0@@Z 0053b930 f i Mesh.obj
 0002:00062990       ??$_Debug_range@PAUNorScaleInfo@ObjEd@@@std@@YAXPAUNorScaleInfo@ObjEd@@0PB_WI@Z 0053b990 f i Mesh.obj
 0002:00062a10       ??$_Copy_backward_opt@PAUNorScaleInfo@ObjEd@@PAU12@@std@@YAPAUNorScaleInfo@ObjEd@@PAU12@00Urandom_access_iterator_tag@0@U_Nonscalar_ptr_iterator_tag@0@U_Range_checked_iterator_tag@0@@Z 0053ba10 f i Mesh.obj
 0002:00062ad0       ??$_Uninit_move@PAPAVEditableMeshModel@@PAPAV1@V?$allocator@PAVEditableMeshModel@@@std@@U_Undefined_move_tag@3@@std@@YAPAPAVEditableMeshModel@@PAPAV1@00AAV?$allocator@PAVEditableMeshModel@@@0@U_Undefined_move_tag@0@U_Range_checked_iterator_tag@0@@Z 0053bad0 f i Mesh.obj
 0002:00062b30       ??$_Checked_base@PAPAVEditableMeshModel@@@std@@YAPAPAVEditableMeshModel@@AAPAPAV1@U_Unchanged_checked_iterator_base_type_tag@0@@Z 0053bb30 f i Mesh.obj
 0002:00062b70       ??$_Debug_range@PAPAVEditableMeshModel@@@std@@YAXPAPAVEditableMeshModel@@0PB_WI@Z 0053bb70 f i Mesh.obj
 0002:00062bf0       ??$_Copy_backward_opt@PAPAVEditableMeshModel@@PAPAV1@Urandom_access_iterator_tag@std@@@std@@YAPAPAVEditableMeshModel@@PAPAV1@00Urandom_access_iterator_tag@0@U_Scalar_ptr_iterator_tag@0@U_Range_checked_iterator_tag@0@@Z 0053bbf0 f i Mesh.obj
 0002:00062ce0       ??$_Uninit_move@PAPAVDeferredMeshModel@@PAPAV1@V?$allocator@PAVDeferredMeshModel@@@std@@U_Undefined_move_tag@3@@std@@YAPAPAVDeferredMeshModel@@PAPAV1@00AAV?$allocator@PAVDeferredMeshModel@@@0@U_Undefined_move_tag@0@U_Range_checked_iterator_tag@0@@Z 0053bce0 f i Mesh.obj
 0002:00062d40       ??$_Checked_base@PAPAVDeferredMeshModel@@@std@@YAPAPAVDeferredMeshModel@@AAPAPAV1@U_Unchanged_checked_iterator_base_type_tag@0@@Z 0053bd40 f i Mesh.obj
 0002:00062d80       ??$_Debug_range@PAPAVDeferredMeshModel@@@std@@YAXPAPAVDeferredMeshModel@@0PB_WI@Z 0053bd80 f i Mesh.obj
 0002:00062e00       ??$_Copy_backward_opt@PAPAVDeferredMeshModel@@PAPAV1@Urandom_access_iterator_tag@std@@@std@@YAPAPAVDeferredMeshModel@@PAPAV1@00Urandom_access_iterator_tag@0@U_Scalar_ptr_iterator_tag@0@U_Range_checked_iterator_tag@0@@Z 0053be00 f i Mesh.obj
 0002:00062ef0       ??$_Checked_base@V?$_Vector_const_iterator@V?$vector@PAVHE_vert@@V?$allocator@PAVHE_vert@@@std@@@std@@V?$allocator@V?$vector@PAVHE_vert@@V?$allocator@PAVHE_vert@@@std@@@std@@@2@@std@@@std@@YA?AV?$_Vector_const_iterator@V?$vector@PAVHE_vert@@V?$allocator@PAVHE_vert@@@std@@@std@@V?$allocator@V?$vector@PAVHE_vert@@V?$allocator@PAVHE_vert@@@std@@@std@@@2@@0@AAV10@@Z 0053bef0 f i Mesh.obj
 0002:00062fb0       ??$_Ptr_cat@V?$_Vector_const_iterator@V?$vector@PAVHE_vert@@V?$allocator@PAVHE_vert@@@std@@@std@@V?$allocator@V?$vector@PAVHE_vert@@V?$allocator@PAVHE_vert@@@std@@@std@@@2@@std@@PAV?$vector@PAVHE_vert@@V?$allocator@PAVHE_vert@@@std@@@2@@std@@YA?AU_Nonscalar_ptr_iterator_tag@0@AAV?$_Vector_const_iterator@V?$vector@PAVHE_vert@@V?$allocator@PAVHE_vert@@@std@@@std@@V?$allocator@V?$vector@PAVHE_vert@@V?$allocator@PAVHE_vert@@@std@@@std@@@2@@0@AAPAV?$vector@PAVHE_vert@@V?$allocator@PAVHE_vert@@@std@@@0@@Z 0053bfb0 f i Mesh.obj
 0002:00063020       ??$_Uninit_copy@V?$_Vector_const_iterator@V?$vector@PAVHE_vert@@V?$allocator@PAVHE_vert@@@std@@@std@@V?$allocator@V?$vector@PAVHE_vert@@V?$allocator@PAVHE_vert@@@std@@@std@@@2@@std@@PAV?$vector@PAVHE_vert@@V?$allocator@PAVHE_vert@@@std@@@2@V?$allocator@V?$vector@PAVHE_vert@@V?$allocator@PAVHE_vert@@@std@@@std@@@2@@std@@YAPAV?$vector@PAVHE_vert@@V?$allocator@PAVHE_vert@@@std@@@0@V?$_Vector_const_iterator@V?$vector@PAVHE_vert@@V?$allocator@PAVHE_vert@@@std@@@std@@V?$allocator@V?$vector@PAVHE_vert@@V?$allocator@PAVHE_vert@@@std@@@std@@@2@@0@0PAV10@AAV?$allocator@V?$vector@PAVHE_vert@@V?$allocator@PAVHE_vert@@@std@@@std@@@0@U_Nonscalar_ptr_iterator_tag@0@U_Range_checked_iterator_tag@0@@Z 0053c020 f i Mesh.obj
 0002:00063220       ??$_Checked_base@V?$_Vector_const_iterator@PAVHE_vert@@V?$allocator@PAVHE_vert@@@std@@@std@@@std@@YA?AV?$_Vector_const_iterator@PAVHE_vert@@V?$allocator@PAVHE_vert@@@std@@@0@AAV10@@Z 0053c220 f i Mesh.obj
 0002:000632e0       ??$_Ptr_cat@V?$_Vector_const_iterator@PAVHE_vert@@V?$allocator@PAVHE_vert@@@std@@@std@@PAPAVHE_vert@@@std@@YA?AU_Scalar_ptr_iterator_tag@0@AAV?$_Vector_const_iterator@PAVHE_vert@@V?$allocator@PAVHE_vert@@@std@@@0@AAPAPAVHE_vert@@@Z 0053c2e0 f i Mesh.obj
 0002:00063350       ??$_Uninit_copy@V?$_Vector_const_iterator@PAVHE_vert@@V?$allocator@PAVHE_vert@@@std@@@std@@PAPAVHE_vert@@V?$allocator@PAVHE_vert@@@2@@std@@YAPAPAVHE_vert@@V?$_Vector_const_iterator@PAVHE_vert@@V?$allocator@PAVHE_vert@@@std@@@0@0PAPAV1@AAV?$allocator@PAVHE_vert@@@0@U_Scalar_ptr_iterator_tag@0@U_Range_checked_iterator_tag@0@@Z 0053c350 f i Mesh.obj
 0002:000634f0       ??$unchecked_fill_n@PAPAVMeshComponent@@IPAV1@@stdext@@YAXPAPAVMeshComponent@@IABQAV1@@Z 0053c4f0 f i Mesh.obj
 0002:00063580       ??$_Uninit_move@PAIPAIV?$allocator@I@std@@U_Undefined_move_tag@2@@std@@YAPAIPAI00AAV?$allocator@I@0@U_Undefined_move_tag@0@U_Range_checked_iterator_tag@0@@Z 0053c580 f i Mesh.obj
 0002:000635e0       ??$_Copy_backward_opt@PAIPAIUrandom_access_iterator_tag@std@@@std@@YAPAIPAI00Urandom_access_iterator_tag@0@U_Scalar_ptr_iterator_tag@0@U_Range_checked_iterator_tag@0@@Z 0053c5e0 f i Mesh.obj
 0002:000636d0       ??$_Destroy@UD3DXVECTOR3@@@std@@YAXPAUD3DXVECTOR3@@@Z 0053c6d0 f i Mesh.obj
 0002:00063700       ??$_Destroy@V?$vector@PAVHE_vert@@V?$allocator@PAVHE_vert@@@std@@@std@@@std@@YAXPAV?$vector@PAVHE_vert@@V?$allocator@PAVHE_vert@@@std@@@0@@Z 0053c700 f i Mesh.obj
 0002:00063750       ??$_Construct@USelection@ObjEd@@U12@@std@@YAXPAUSelection@ObjEd@@ABU12@@Z 0053c750 f i Mesh.obj
 0002:00063800       ??$_Destroy@USelection@ObjEd@@@std@@YAXPAUSelection@ObjEd@@@Z 0053c800 f i Mesh.obj
 0002:00063830       ??$_Destroy@UEdgeIntersection@ObjEd@@@std@@YAXPAUEdgeIntersection@ObjEd@@@Z 0053c830 f i Mesh.obj
 0002:00063860       ??$_Construct@VProcTex@ObjEd@@V12@@std@@YAXPAVProcTex@ObjEd@@ABV12@@Z 0053c860 f i Mesh.obj
 0002:00063950       ??3@YAXPAX0@Z              0053c950 f i Mesh.obj
 0002:00063980       ??$_Destroy@VProcTex@ObjEd@@@std@@YAXPAVProcTex@ObjEd@@@Z 0053c980 f i Mesh.obj
 0002:000639d0       ??$_Construct@UBevelVInfo@ObjEd@@U12@@std@@YAXPAUBevelVInfo@ObjEd@@ABU12@@Z 0053c9d0 f i Mesh.obj
 0002:00063ac0       ??$_Destroy@UBevelVInfo@ObjEd@@@std@@YAXPAUBevelVInfo@ObjEd@@@Z 0053cac0 f i Mesh.obj
 0002:00063b10       ??$_Construct@UExtrudeInfo@ObjEd@@U12@@std@@YAXPAUExtrudeInfo@ObjEd@@ABU12@@Z 0053cb10 f i Mesh.obj
 0002:00063c00       ??$_Destroy@UExtrudeInfo@ObjEd@@@std@@YAXPAUExtrudeInfo@ObjEd@@@Z 0053cc00 f i Mesh.obj
 0002:00063c50       ??$_Construct@UExtrudeMatrixInfo@ObjEd@@U12@@std@@YAXPAUExtrudeMatrixInfo@ObjEd@@ABU12@@Z 0053cc50 f i Mesh.obj
 0002:00063d40       ??$_Destroy@UExtrudeMatrixInfo@ObjEd@@@std@@YAXPAUExtrudeMatrixInfo@ObjEd@@@Z 0053cd40 f i Mesh.obj
 0002:00063d90       ??$_Construct@UExtrudeInnerInfo@ObjEd@@U12@@std@@YAXPAUExtrudeInnerInfo@ObjEd@@ABU12@@Z 0053cd90 f i Mesh.obj
 0002:00063e80       ??$_Destroy@UExtrudeInnerInfo@ObjEd@@@std@@YAXPAUExtrudeInnerInfo@ObjEd@@@Z 0053ce80 f i Mesh.obj
 0002:00063ed0       ??$_Construct@UNorScaleInfo@ObjEd@@U12@@std@@YAXPAUNorScaleInfo@ObjEd@@ABU12@@Z 0053ced0 f i Mesh.obj
 0002:00063fc0       ??$_Destroy@UNorScaleInfo@ObjEd@@@std@@YAXPAUNorScaleInfo@ObjEd@@@Z 0053cfc0 f i Mesh.obj
 0002:00064010       ??$_Destroy@VFace@@@std@@YAXPAVFace@@@Z 0053d010 f i Mesh.obj
 0002:00064060       ??_G?$vector@PAVHE_vert@@V?$allocator@PAVHE_vert@@@std@@@std@@QAEPAXI@Z 0053d060 f i Mesh.obj
 0002:000640d0       ??_GProcTex@ObjEd@@QAEPAXI@Z 0053d0d0 f i Mesh.obj
 0002:00064140       ??_GBevelVInfo@ObjEd@@QAEPAXI@Z 0053d140 f i Mesh.obj
 0002:000641b0       ??_GExtrudeInfo@ObjEd@@QAEPAXI@Z 0053d1b0 f i Mesh.obj
 0002:00064220       ??_GExtrudeMatrixInfo@ObjEd@@QAEPAXI@Z 0053d220 f i Mesh.obj
 0002:00064290       ??_GExtrudeInnerInfo@ObjEd@@QAEPAXI@Z 0053d290 f i Mesh.obj
 0002:00064300       ??_GNorScaleInfo@ObjEd@@QAEPAXI@Z 0053d300 f i Mesh.obj
 0002:00064370       ??_GFace@@QAEPAXI@Z        0053d370 f i Mesh.obj
 0002:000643e0       ?construct@?$allocator@UD3DXVECTOR3@@@std@@QAEXPAUD3DXVECTOR3@@ABU3@@Z 0053d3e0 f i Mesh.obj
 0002:00064440       ?construct@?$allocator@V?$vector@PAVHE_vert@@V?$allocator@PAVHE_vert@@@std@@@std@@@std@@QAEXPAV?$vector@PAVHE_vert@@V?$allocator@PAVHE_vert@@@std@@@2@ABV32@@Z 0053d440 f i Mesh.obj
 0002:000644a0       ??D?$_Vector_const_iterator@USelection@ObjEd@@V?$allocator@USelection@ObjEd@@@std@@@std@@QBEABUSelection@ObjEd@@XZ 0053d4a0 f i Mesh.obj
 0002:000645b0       ??E?$_Vector_const_iterator@USelection@ObjEd@@V?$allocator@USelection@ObjEd@@@std@@@std@@QAEAAV01@XZ 0053d5b0 f i Mesh.obj
 0002:00064750       ?construct@?$allocator@UEdgeIntersection@ObjEd@@@std@@QAEXPAUEdgeIntersection@ObjEd@@ABU34@@Z 0053d750 f i Mesh.obj
 0002:000647b0       ??4?$_Vb_reference@IHV?$vector@_NV?$allocator@_N@std@@@std@@@std@@QAEAAV01@ABV01@@Z 0053d7b0 f i Mesh.obj
 0002:00064810       ??D?$_Vector_const_iterator@HV?$allocator@H@std@@@std@@QBEABHXZ 0053d810 f i Mesh.obj
 0002:00064920       ??G?$_Vector_const_iterator@HV?$allocator@H@std@@@std@@QBEHABV01@@Z 0053d920 f i Mesh.obj
 0002:00064990       ??D?$_Vector_const_iterator@UD3DXVECTOR3@@V?$allocator@UD3DXVECTOR3@@@std@@@std@@QBEABUD3DXVECTOR3@@XZ 0053d990 f i Mesh.obj
 0002:00064aa0       ??E?$_Vector_const_iterator@UD3DXVECTOR3@@V?$allocator@UD3DXVECTOR3@@@std@@@std@@QAEAAV01@XZ 0053daa0 f i Mesh.obj
 0002:00064c40       ??F?$_Vb_iterator@IHV?$vector@_NV?$allocator@_N@std@@@std@@@std@@QAEAAV01@XZ 0053dc40 f i Mesh.obj
 0002:00064ca0       ??D?$_Vector_const_iterator@VProcTex@ObjEd@@V?$allocator@VProcTex@ObjEd@@@std@@@std@@QBEABVProcTex@ObjEd@@XZ 0053dca0 f i Mesh.obj
 0002:00064db0       ??E?$_Vector_const_iterator@VProcTex@ObjEd@@V?$allocator@VProcTex@ObjEd@@@std@@@std@@QAEAAV01@XZ 0053ddb0 f i Mesh.obj
 0002:00064f50       ??D?$_Vector_const_iterator@PAVEditableMeshModel@@V?$allocator@PAVEditableMeshModel@@@std@@@std@@QBEABQAVEditableMeshModel@@XZ 0053df50 f i Mesh.obj
 0002:00065060       ??D?$_Vector_const_iterator@PAVDeferredMeshModel@@V?$allocator@PAVDeferredMeshModel@@@std@@@std@@QBEABQAVDeferredMeshModel@@XZ 0053e060 f i Mesh.obj
 0002:00065170       ??D?$_Vector_const_iterator@V?$vector@PAVHE_vert@@V?$allocator@PAVHE_vert@@@std@@@std@@V?$allocator@V?$vector@PAVHE_vert@@V?$allocator@PAVHE_vert@@@std@@@std@@@2@@std@@QBEABV?$vector@PAVHE_vert@@V?$allocator@PAVHE_vert@@@std@@@1@XZ 0053e170 f i Mesh.obj
 0002:00065280       ??E?$_Vector_const_iterator@V?$vector@PAVHE_vert@@V?$allocator@PAVHE_vert@@@std@@@std@@V?$allocator@V?$vector@PAVHE_vert@@V?$allocator@PAVHE_vert@@@std@@@std@@@2@@std@@QAEAAV01@XZ 0053e280 f i Mesh.obj
 0002:00065420       ??D?$_Vector_const_iterator@PAVHE_vert@@V?$allocator@PAVHE_vert@@@std@@@std@@QBEABQAVHE_vert@@XZ 0053e420 f i Mesh.obj
 0002:00065530       ??G?$_Vector_const_iterator@PAVHE_vert@@V?$allocator@PAVHE_vert@@@std@@@std@@QBEHABV01@@Z 0053e530 f i Mesh.obj
 0002:000655a0       ??F?$_Vb_const_iterator@IHV?$vector@_NV?$allocator@_N@std@@@std@@@std@@QAEAAV01@XZ 0053e5a0 f i Mesh.obj
 0002:00065600       ?_Dec@?$_Vb_const_iterator@IHV?$vector@_NV?$allocator@_N@std@@@std@@@std@@IAEXXZ 0053e600 f i Mesh.obj
 0002:000657a0       ??$_Insert@V?$_Vector_const_iterator@USelection@ObjEd@@V?$allocator@USelection@ObjEd@@@std@@@std@@@?$vector@USelection@ObjEd@@V?$allocator@USelection@ObjEd@@@std@@@std@@QAEXV?$_Vector_const_iterator@USelection@ObjEd@@V?$allocator@USelection@ObjEd@@@std@@@1@00Uforward_iterator_tag@1@@Z 0053e7a0 f i Mesh.obj
 0002:00065d80       ??$_Insert@V?$_Iterator@$00@?$list@HV?$allocator@H@std@@@std@@@?$vector@HV?$allocator@H@std@@@std@@QAEXV?$_Vector_const_iterator@HV?$allocator@H@std@@@1@V?$_Iterator@$00@?$list@HV?$allocator@H@std@@@1@1Uforward_iterator_tag@1@@Z 0053ed80 f i Mesh.obj
 0002:00066350       ??$_Checked_base@V?$_Vector_const_iterator@HV?$allocator@H@std@@@std@@@std@@YA?AV?$_Vector_const_iterator@HV?$allocator@H@std@@@0@AAV10@U_Unchanged_checked_iterator_base_type_tag@0@@Z 0053f350 f i Mesh.obj
 0002:000663c0       ??$_Debug_range@V?$_Vector_const_iterator@HV?$allocator@H@std@@@std@@@std@@YAXV?$_Vector_const_iterator@HV?$allocator@H@std@@@0@0PB_WI@Z 0053f3c0 f i Mesh.obj
 0002:000664f0       ??$_Iter_cat@PAH@std@@YA?AUrandom_access_iterator_tag@0@ABQAH@Z 0053f4f0 f i Mesh.obj
 0002:00066560       ??$_Debug_range2@PAH@std@@YAXPAH0PB_WIUrandom_access_iterator_tag@0@@Z 0053f560 f i Mesh.obj
 0002:00066610       ??$_Checked_base@V?$_Vector_const_iterator@UD3DXVECTOR3@@V?$allocator@UD3DXVECTOR3@@@std@@@std@@@std@@YA?AV?$_Vector_const_iterator@UD3DXVECTOR3@@V?$allocator@UD3DXVECTOR3@@@std@@@0@AAV10@U_Unchanged_checked_iterator_base_type_tag@0@@Z 0053f610 f i Mesh.obj
 0002:00066680       ??$_Debug_range@V?$_Vector_const_iterator@UD3DXVECTOR3@@V?$allocator@UD3DXVECTOR3@@@std@@@std@@@std@@YAXV?$_Vector_const_iterator@UD3DXVECTOR3@@V?$allocator@UD3DXVECTOR3@@@std@@@0@0PB_WI@Z 0053f680 f i Mesh.obj
 0002:000667b0       ??$_Debug_pointer@UD3DXVECTOR3@@@std@@YAXPAUD3DXVECTOR3@@PB_WI@Z 0053f7b0 f i Mesh.obj
 0002:00066820       ??$_Debug_range@PAUD3DXVECTOR3@@@std@@YAXPAUD3DXVECTOR3@@0PB_WI@Z 0053f820 f i Mesh.obj
 0002:000668a0       ??$_Debug_range@PAV?$vector@PAVHE_vert@@V?$allocator@PAVHE_vert@@@std@@@std@@@std@@YAXPAV?$vector@PAVHE_vert@@V?$allocator@PAVHE_vert@@@std@@@0@0PB_WI@Z 0053f8a0 f i Mesh.obj
 0002:00066920       ??$_Debug_pointer@V?$vector@PAVHE_vert@@V?$allocator@PAVHE_vert@@@std@@@std@@@std@@YAXPAV?$vector@PAVHE_vert@@V?$allocator@PAVHE_vert@@@std@@@0@PB_WI@Z 0053f920 f i Mesh.obj
 0002:00066990       ??$_Iter_cat@PAPAVHE_vert@@@std@@YA?AUrandom_access_iterator_tag@0@ABQAPAVHE_vert@@@Z 0053f990 f i Mesh.obj
 0002:00066a00       ??$_Debug_range2@PAPAVHE_vert@@@std@@YAXPAPAVHE_vert@@0PB_WIUrandom_access_iterator_tag@0@@Z 0053fa00 f i Mesh.obj
 0002:00066ab0       ??$_Checked_base@V?$_Vector_const_iterator@USelection@ObjEd@@V?$allocator@USelection@ObjEd@@@std@@@std@@@std@@YA?AV?$_Vector_const_iterator@USelection@ObjEd@@V?$allocator@USelection@ObjEd@@@std@@@0@AAV10@U_Unchanged_checked_iterator_base_type_tag@0@@Z 0053fab0 f i Mesh.obj
 0002:00066b20       ??$_Debug_range@V?$_Vector_const_iterator@USelection@ObjEd@@V?$allocator@USelection@ObjEd@@@std@@@std@@@std@@YAXV?$_Vector_const_iterator@USelection@ObjEd@@V?$allocator@USelection@ObjEd@@@std@@@0@0PB_WI@Z 0053fb20 f i Mesh.obj
 0002:00066c50       ??$_Debug_pointer@USelection@ObjEd@@@std@@YAXPAUSelection@ObjEd@@PB_WI@Z 0053fc50 f i Mesh.obj
 0002:00066cc0       ??$_Debug_range@PAUEdgeIntersection@ObjEd@@@std@@YAXPAUEdgeIntersection@ObjEd@@0PB_WI@Z 0053fcc0 f i Mesh.obj
 0002:00066d40       ??$_Debug_pointer@UEdgeIntersection@ObjEd@@@std@@YAXPAUEdgeIntersection@ObjEd@@PB_WI@Z 0053fd40 f i Mesh.obj
 0002:00066db0       ??$_Checked_base@V?$_Vector_const_iterator@VProcTex@ObjEd@@V?$allocator@VProcTex@ObjEd@@@std@@@std@@@std@@YA?AV?$_Vector_const_iterator@VProcTex@ObjEd@@V?$allocator@VProcTex@ObjEd@@@std@@@0@AAV10@U_Unchanged_checked_iterator_base_type_tag@0@@Z 0053fdb0 f i Mesh.obj
 0002:00066e20       ??$_Debug_range@V?$_Vector_const_iterator@VProcTex@ObjEd@@V?$allocator@VProcTex@ObjEd@@@std@@@std@@@std@@YAXV?$_Vector_const_iterator@VProcTex@ObjEd@@V?$allocator@VProcTex@ObjEd@@@std@@@0@0PB_WI@Z 0053fe20 f i Mesh.obj
 0002:00066f50       ??$_Debug_pointer@VProcTex@ObjEd@@@std@@YAXPAVProcTex@ObjEd@@PB_WI@Z 0053ff50 f i Mesh.obj
 0002:00066fc0       ??$_Checked_base@V?$_Vector_const_iterator@PAVEditableMeshModel@@V?$allocator@PAVEditableMeshModel@@@std@@@std@@@std@@YA?AV?$_Vector_const_iterator@PAVEditableMeshModel@@V?$allocator@PAVEditableMeshModel@@@std@@@0@AAV10@U_Unchanged_checked_iterator_base_type_tag@0@@Z 0053ffc0 f i Mesh.obj
 0002:00067030       ??$_Debug_range@V?$_Vector_const_iterator@PAVEditableMeshModel@@V?$allocator@PAVEditableMeshModel@@@std@@@std@@@std@@YAXV?$_Vector_const_iterator@PAVEditableMeshModel@@V?$allocator@PAVEditableMeshModel@@@std@@@0@0PB_WI@Z 00540030 f i Mesh.obj
 0002:00067160       ??$_Debug_pointer@PAVEditableMeshModel@@@std@@YAXPAPAVEditableMeshModel@@PB_WI@Z 00540160 f i Mesh.obj
 0002:000671d0       ??$_Debug_range2@V?$_Const_iterator@$00@?$list@HV?$allocator@H@std@@@std@@@std@@YAXV?$_Const_iterator@$00@?$list@HV?$allocator@H@std@@@0@0PB_WIUinput_iterator_tag@0@@Z 005401d0 f i Mesh.obj
 0002:00067270       ??$_Checked_base@V?$_Vector_const_iterator@PAVDeferredMeshModel@@V?$allocator@PAVDeferredMeshModel@@@std@@@std@@@std@@YA?AV?$_Vector_const_iterator@PAVDeferredMeshModel@@V?$allocator@PAVDeferredMeshModel@@@std@@@0@AAV10@U_Unchanged_checked_iterator_base_type_tag@0@@Z 00540270 f i Mesh.obj
 0002:000672e0       ??$_Debug_range@V?$_Vector_const_iterator@PAVDeferredMeshModel@@V?$allocator@PAVDeferredMeshModel@@@std@@@std@@@std@@YAXV?$_Vector_const_iterator@PAVDeferredMeshModel@@V?$allocator@PAVDeferredMeshModel@@@std@@@0@0PB_WI@Z 005402e0 f i Mesh.obj
 0002:00067410       ??$_Debug_pointer@PAVDeferredMeshModel@@@std@@YAXPAPAVDeferredMeshModel@@PB_WI@Z 00540410 f i Mesh.obj
 0002:00067480       ??$_Iter_cat@V?$_Vb_iterator@IHV?$vector@_NV?$allocator@_N@std@@@std@@@std@@@std@@YA?AUrandom_access_iterator_tag@0@ABV?$_Vb_iterator@IHV?$vector@_NV?$allocator@_N@std@@@std@@@0@@Z 00540480 f i Mesh.obj
 0002:000674f0       ??$_Debug_range2@V?$_Vb_iterator@IHV?$vector@_NV?$allocator@_N@std@@@std@@@std@@@std@@YAXV?$_Vb_iterator@IHV?$vector@_NV?$allocator@_N@std@@@std@@@0@0PB_WIUrandom_access_iterator_tag@0@@Z 005404f0 f i Mesh.obj
 0002:00067620       ??$_Iter_cat@PAPAVMeshComponent@@@std@@YA?AUrandom_access_iterator_tag@0@ABQAPAVMeshComponent@@@Z 00540620 f i Mesh.obj
 0002:00067690       ??$_Debug_range2@PAPAVMeshComponent@@@std@@YAXPAPAVMeshComponent@@0PB_WIUrandom_access_iterator_tag@0@@Z 00540690 f i Mesh.obj
 0002:00067740       ??$_Iter_cat@PAPAVEditableMeshModel@@@std@@YA?AUrandom_access_iterator_tag@0@ABQAPAVEditableMeshModel@@@Z 00540740 f i Mesh.obj
 0002:000677b0       ??$_Fill_n@PAPAVEditableMeshModel@@IPAV1@@std@@YAXPAPAVEditableMeshModel@@IABQAV1@Urandom_access_iterator_tag@0@U_Range_checked_iterator_tag@0@@Z 005407b0 f i Mesh.obj
 0002:00067840       ??$_Iter_cat@PAPAVDeferredMeshModel@@@std@@YA?AUrandom_access_iterator_tag@0@ABQAPAVDeferredMeshModel@@@Z 00540840 f i Mesh.obj
 0002:000678b0       ??$_Fill_n@PAPAVDeferredMeshModel@@IPAV1@@std@@YAXPAPAVDeferredMeshModel@@IABQAV1@Urandom_access_iterator_tag@0@U_Range_checked_iterator_tag@0@@Z 005408b0 f i Mesh.obj
 0002:00067940       ??$_Iter_cat@PAUSelection@ObjEd@@@std@@YA?AUrandom_access_iterator_tag@0@ABQAUSelection@ObjEd@@@Z 00540940 f i Mesh.obj
 0002:000679b0       ??$_Debug_range2@PAUSelection@ObjEd@@@std@@YAXPAUSelection@ObjEd@@0PB_WIUrandom_access_iterator_tag@0@@Z 005409b0 f i Mesh.obj
 0002:00067a60       ??$_Copy_backward_opt@PAUSelection@ObjEd@@PAU12@Uforward_iterator_tag@std@@@std@@YAPAUSelection@ObjEd@@PAU12@00Uforward_iterator_tag@0@U_Nonscalar_ptr_iterator_tag@0@U_Range_checked_iterator_tag@0@@Z 00540a60 f i Mesh.obj
 0002:00067b10       ??$_Iter_cat@PAVProcTex@ObjEd@@@std@@YA?AUrandom_access_iterator_tag@0@ABQAVProcTex@ObjEd@@@Z 00540b10 f i Mesh.obj
 0002:00067b80       ??$_Debug_range2@PAVProcTex@ObjEd@@@std@@YAXPAVProcTex@ObjEd@@0PB_WIUrandom_access_iterator_tag@0@@Z 00540b80 f i Mesh.obj
 0002:00067c30       ??$_Copy_backward_opt@PAVProcTex@ObjEd@@PAV12@Uforward_iterator_tag@std@@@std@@YAPAVProcTex@ObjEd@@PAV12@00Uforward_iterator_tag@0@U_Nonscalar_ptr_iterator_tag@0@U_Range_checked_iterator_tag@0@@Z 00540c30 f i Mesh.obj
 0002:00067cd0       ??$unchecked_uninitialized_copy@PAPAVMeshComponent@@PAPAV1@V?$allocator@PAVMeshComponent@@@std@@@stdext@@YAPAPAVMeshComponent@@PAPAV1@00AAV?$allocator@PAVMeshComponent@@@std@@@Z 00540cd0 f i Mesh.obj
 0002:00067d80       ??$unchecked_uninitialized_copy@PAUBevelVInfo@ObjEd@@PAU12@V?$allocator@UBevelVInfo@ObjEd@@@std@@@stdext@@YAPAUBevelVInfo@ObjEd@@PAU12@00AAV?$allocator@UBevelVInfo@ObjEd@@@std@@@Z 00540d80 f i Mesh.obj
 0002:00067e30       ??$_Iter_cat@PAUBevelVInfo@ObjEd@@@std@@YA?AUrandom_access_iterator_tag@0@ABQAUBevelVInfo@ObjEd@@@Z 00540e30 f i Mesh.obj
 0002:00067ea0       ??$_Debug_range2@PAUBevelVInfo@ObjEd@@@std@@YAXPAUBevelVInfo@ObjEd@@0PB_WIUrandom_access_iterator_tag@0@@Z 00540ea0 f i Mesh.obj
 0002:00067f50       ??$_Copy_backward_opt@PAUBevelVInfo@ObjEd@@PAU12@Uforward_iterator_tag@std@@@std@@YAPAUBevelVInfo@ObjEd@@PAU12@00Uforward_iterator_tag@0@U_Nonscalar_ptr_iterator_tag@0@U_Range_checked_iterator_tag@0@@Z 00540f50 f i Mesh.obj
 0002:00067ff0       ??$unchecked_uninitialized_copy@PAUExtrudeInfo@ObjEd@@PAU12@V?$allocator@UExtrudeInfo@ObjEd@@@std@@@stdext@@YAPAUExtrudeInfo@ObjEd@@PAU12@00AAV?$allocator@UExtrudeInfo@ObjEd@@@std@@@Z 00540ff0 f i Mesh.obj
 0002:000680a0       ??$_Iter_cat@PAUExtrudeInfo@ObjEd@@@std@@YA?AUrandom_access_iterator_tag@0@ABQAUExtrudeInfo@ObjEd@@@Z 005410a0 f i Mesh.obj
 0002:00068110       ??$_Debug_range2@PAUExtrudeInfo@ObjEd@@@std@@YAXPAUExtrudeInfo@ObjEd@@0PB_WIUrandom_access_iterator_tag@0@@Z 00541110 f i Mesh.obj
 0002:000681c0       ??$_Copy_backward_opt@PAUExtrudeInfo@ObjEd@@PAU12@Uforward_iterator_tag@std@@@std@@YAPAUExtrudeInfo@ObjEd@@PAU12@00Uforward_iterator_tag@0@U_Nonscalar_ptr_iterator_tag@0@U_Range_checked_iterator_tag@0@@Z 005411c0 f i Mesh.obj
 0002:00068260       ??$unchecked_uninitialized_copy@PAUExtrudeMatrixInfo@ObjEd@@PAU12@V?$allocator@UExtrudeMatrixInfo@ObjEd@@@std@@@stdext@@YAPAUExtrudeMatrixInfo@ObjEd@@PAU12@00AAV?$allocator@UExtrudeMatrixInfo@ObjEd@@@std@@@Z 00541260 f i Mesh.obj
 0002:00068310       ??$_Iter_cat@PAUExtrudeMatrixInfo@ObjEd@@@std@@YA?AUrandom_access_iterator_tag@0@ABQAUExtrudeMatrixInfo@ObjEd@@@Z 00541310 f i Mesh.obj
 0002:00068380       ??$_Debug_range2@PAUExtrudeMatrixInfo@ObjEd@@@std@@YAXPAUExtrudeMatrixInfo@ObjEd@@0PB_WIUrandom_access_iterator_tag@0@@Z 00541380 f i Mesh.obj
 0002:00068430       ??$_Copy_backward_opt@PAUExtrudeMatrixInfo@ObjEd@@PAU12@Uforward_iterator_tag@std@@@std@@YAPAUExtrudeMatrixInfo@ObjEd@@PAU12@00Uforward_iterator_tag@0@U_Nonscalar_ptr_iterator_tag@0@U_Range_checked_iterator_tag@0@@Z 00541430 f i Mesh.obj
 0002:000684d0       ??$unchecked_uninitialized_copy@PAUExtrudeInnerInfo@ObjEd@@PAU12@V?$allocator@UExtrudeInnerInfo@ObjEd@@@std@@@stdext@@YAPAUExtrudeInnerInfo@ObjEd@@PAU12@00AAV?$allocator@UExtrudeInnerInfo@ObjEd@@@std@@@Z 005414d0 f i Mesh.obj
 0002:00068580       ??$_Iter_cat@PAUExtrudeInnerInfo@ObjEd@@@std@@YA?AUrandom_access_iterator_tag@0@ABQAUExtrudeInnerInfo@ObjEd@@@Z 00541580 f i Mesh.obj
 0002:000685f0       ??$_Debug_range2@PAUExtrudeInnerInfo@ObjEd@@@std@@YAXPAUExtrudeInnerInfo@ObjEd@@0PB_WIUrandom_access_iterator_tag@0@@Z 005415f0 f i Mesh.obj
 0002:000686a0       ??$_Copy_backward_opt@PAUExtrudeInnerInfo@ObjEd@@PAU12@Uforward_iterator_tag@std@@@std@@YAPAUExtrudeInnerInfo@ObjEd@@PAU12@00Uforward_iterator_tag@0@U_Nonscalar_ptr_iterator_tag@0@U_Range_checked_iterator_tag@0@@Z 005416a0 f i Mesh.obj
 0002:00068740       ??$unchecked_uninitialized_copy@PAUNorScaleInfo@ObjEd@@PAU12@V?$allocator@UNorScaleInfo@ObjEd@@@std@@@stdext@@YAPAUNorScaleInfo@ObjEd@@PAU12@00AAV?$allocator@UNorScaleInfo@ObjEd@@@std@@@Z 00541740 f i Mesh.obj
 0002:000687f0       ??$_Iter_cat@PAUNorScaleInfo@ObjEd@@@std@@YA?AUrandom_access_iterator_tag@0@ABQAUNorScaleInfo@ObjEd@@@Z 005417f0 f i Mesh.obj
 0002:00068860       ??$_Debug_range2@PAUNorScaleInfo@ObjEd@@@std@@YAXPAUNorScaleInfo@ObjEd@@0PB_WIUrandom_access_iterator_tag@0@@Z 00541860 f i Mesh.obj
 0002:00068910       ??$_Copy_backward_opt@PAUNorScaleInfo@ObjEd@@PAU12@Uforward_iterator_tag@std@@@std@@YAPAUNorScaleInfo@ObjEd@@PAU12@00Uforward_iterator_tag@0@U_Nonscalar_ptr_iterator_tag@0@U_Range_checked_iterator_tag@0@@Z 00541910 f i Mesh.obj
 0002:000689b0       ??$unchecked_uninitialized_copy@PAPAVEditableMeshModel@@PAPAV1@V?$allocator@PAVEditableMeshModel@@@std@@@stdext@@YAPAPAVEditableMeshModel@@PAPAV1@00AAV?$allocator@PAVEditableMeshModel@@@std@@@Z 005419b0 f i Mesh.obj
 0002:00068a60       ??$_Debug_range2@PAPAVEditableMeshModel@@@std@@YAXPAPAVEditableMeshModel@@0PB_WIUrandom_access_iterator_tag@0@@Z 00541a60 f i Mesh.obj
 0002:00068b10       ??$unchecked_uninitialized_copy@PAPAVDeferredMeshModel@@PAPAV1@V?$allocator@PAVDeferredMeshModel@@@std@@@stdext@@YAPAPAVDeferredMeshModel@@PAPAV1@00AAV?$allocator@PAVDeferredMeshModel@@@std@@@Z 00541b10 f i Mesh.obj
 0002:00068bc0       ??$_Debug_range2@PAPAVDeferredMeshModel@@@std@@YAXPAPAVDeferredMeshModel@@0PB_WIUrandom_access_iterator_tag@0@@Z 00541bc0 f i Mesh.obj
 0002:00068c70       ??$_Checked_base@V?$_Vector_const_iterator@V?$vector@PAVHE_vert@@V?$allocator@PAVHE_vert@@@std@@@std@@V?$allocator@V?$vector@PAVHE_vert@@V?$allocator@PAVHE_vert@@@std@@@std@@@2@@std@@@std@@YA?AV?$_Vector_const_iterator@V?$vector@PAVHE_vert@@V?$allocator@PAVHE_vert@@@std@@@std@@V?$allocator@V?$vector@PAVHE_vert@@V?$allocator@PAVHE_vert@@@std@@@std@@@2@@0@AAV10@U_Unchanged_checked_iterator_base_type_tag@0@@Z 00541c70 f i Mesh.obj
 0002:00068ce0       ??$_Debug_range@V?$_Vector_const_iterator@V?$vector@PAVHE_vert@@V?$allocator@PAVHE_vert@@@std@@@std@@V?$allocator@V?$vector@PAVHE_vert@@V?$allocator@PAVHE_vert@@@std@@@std@@@2@@std@@@std@@YAXV?$_Vector_const_iterator@V?$vector@PAVHE_vert@@V?$allocator@PAVHE_vert@@@std@@@std@@V?$allocator@V?$vector@PAVHE_vert@@V?$allocator@PAVHE_vert@@@std@@@std@@@2@@0@0PB_WI@Z 00541ce0 f i Mesh.obj
 0002:00068e10       ??$_Checked_base@V?$_Vector_const_iterator@PAVHE_vert@@V?$allocator@PAVHE_vert@@@std@@@std@@@std@@YA?AV?$_Vector_const_iterator@PAVHE_vert@@V?$allocator@PAVHE_vert@@@std@@@0@AAV10@U_Unchanged_checked_iterator_base_type_tag@0@@Z 00541e10 f i Mesh.obj
 0002:00068e80       ??$_Debug_range@V?$_Vector_const_iterator@PAVHE_vert@@V?$allocator@PAVHE_vert@@@std@@@std@@@std@@YAXV?$_Vector_const_iterator@PAVHE_vert@@V?$allocator@PAVHE_vert@@@std@@@0@0PB_WI@Z 00541e80 f i Mesh.obj
 0002:00068fb0       ??$_Fill_n@PAPAVMeshComponent@@IPAV1@@std@@YAXPAPAVMeshComponent@@IABQAV1@Urandom_access_iterator_tag@0@U_Range_checked_iterator_tag@0@@Z 00541fb0 f i Mesh.obj
 0002:00069040       ??$unchecked_uninitialized_copy@PAIPAIV?$allocator@I@std@@@stdext@@YAPAIPAI00AAV?$allocator@I@std@@@Z 00542040 f i Mesh.obj
 0002:000690f0       ??$_Construct@UD3DXVECTOR3@@U1@@std@@YAXPAUD3DXVECTOR3@@ABU1@@Z 005420f0 f i Mesh.obj
 0002:000691a0       ??$_Construct@V?$vector@PAVHE_vert@@V?$allocator@PAVHE_vert@@@std@@@std@@V12@@std@@YAXPAV?$vector@PAVHE_vert@@V?$allocator@PAVHE_vert@@@std@@@0@ABV10@@Z 005421a0 f i Mesh.obj
 0002:00069290       ??$_Construct@UEdgeIntersection@ObjEd@@U12@@std@@YAXPAUEdgeIntersection@ObjEd@@ABU12@@Z 00542290 f i Mesh.obj
 0002:00069340       ?_Reverse@?$vector@HV?$allocator@H@std@@@std@@QAEXPAH0@Z 00542340 f i Mesh.obj
 0002:000693d0       ?_Reverse@?$vector@USelection@ObjEd@@V?$allocator@USelection@ObjEd@@@std@@@std@@QAEXPAUSelection@ObjEd@@0@Z 005423d0 f i Mesh.obj
 0002:000694c0       ??$_Distance@V?$_Vector_const_iterator@USelection@ObjEd@@V?$allocator@USelection@ObjEd@@@std@@@std@@I@std@@YAXV?$_Vector_const_iterator@USelection@ObjEd@@V?$allocator@USelection@ObjEd@@@std@@@0@0AAI@Z 005424c0 f i Mesh.obj
 0002:000695f0       ??$_Distance@V?$_Iterator@$00@?$list@HV?$allocator@H@std@@@std@@I@std@@YAXV?$_Iterator@$00@?$list@HV?$allocator@H@std@@@0@0AAI@Z 005425f0 f i Mesh.obj
 0002:00069720       ??$_Umove@PAH@?$vector@HV?$allocator@H@std@@@std@@IAEPAHPAH00@Z 00542720 f i Mesh.obj
 0002:00069790       ??$_Ucopy@V?$_Iterator@$00@?$list@HV?$allocator@H@std@@@std@@@?$vector@HV?$allocator@H@std@@@std@@IAEPAHV?$_Iterator@$00@?$list@HV?$allocator@H@std@@@1@0PAH@Z 00542790 f i Mesh.obj
 0002:000698d0       ??$_Iter_cat@V?$_Vector_const_iterator@HV?$allocator@H@std@@@std@@@std@@YA?AUrandom_access_iterator_tag@0@ABV?$_Vector_const_iterator@HV?$allocator@H@std@@@0@@Z 005428d0 f i Mesh.obj
 0002:00069940       ??$_Debug_range2@V?$_Vector_const_iterator@HV?$allocator@H@std@@@std@@@std@@YAXV?$_Vector_const_iterator@HV?$allocator@H@std@@@0@0PB_WIUrandom_access_iterator_tag@0@@Z 00542940 f i Mesh.obj
 0002:00069a70       ??$_Iter_cat@V?$_Vector_const_iterator@UD3DXVECTOR3@@V?$allocator@UD3DXVECTOR3@@@std@@@std@@@std@@YA?AUrandom_access_iterator_tag@0@ABV?$_Vector_const_iterator@UD3DXVECTOR3@@V?$allocator@UD3DXVECTOR3@@@std@@@0@@Z 00542a70 f i Mesh.obj
 0002:00069ae0       ??$_Debug_range2@V?$_Vector_const_iterator@UD3DXVECTOR3@@V?$allocator@UD3DXVECTOR3@@@std@@@std@@@std@@YAXV?$_Vector_const_iterator@UD3DXVECTOR3@@V?$allocator@UD3DXVECTOR3@@@std@@@0@0PB_WIUrandom_access_iterator_tag@0@@Z 00542ae0 f i Mesh.obj
 0002:00069c10       ??$_Iter_cat@PAUD3DXVECTOR3@@@std@@YA?AUrandom_access_iterator_tag@0@ABQAUD3DXVECTOR3@@@Z 00542c10 f i Mesh.obj
 0002:00069c80       ??$_Debug_range2@PAUD3DXVECTOR3@@@std@@YAXPAUD3DXVECTOR3@@0PB_WIUrandom_access_iterator_tag@0@@Z 00542c80 f i Mesh.obj
 0002:00069d30       ??$_Iter_cat@PAV?$vector@PAVHE_vert@@V?$allocator@PAVHE_vert@@@std@@@std@@@std@@YA?AUrandom_access_iterator_tag@0@ABQAV?$vector@PAVHE_vert@@V?$allocator@PAVHE_vert@@@std@@@0@@Z 00542d30 f i Mesh.obj
 0002:00069da0       ??$_Debug_range2@PAV?$vector@PAVHE_vert@@V?$allocator@PAVHE_vert@@@std@@@std@@@std@@YAXPAV?$vector@PAVHE_vert@@V?$allocator@PAVHE_vert@@@std@@@0@0PB_WIUrandom_access_iterator_tag@0@@Z 00542da0 f i Mesh.obj
 0002:00069e50       ??$_Debug_range2@V?$_Vector_const_iterator@USelection@ObjEd@@V?$allocator@USelection@ObjEd@@@std@@@std@@@std@@YAXV?$_Vector_const_iterator@USelection@ObjEd@@V?$allocator@USelection@ObjEd@@@std@@@0@0PB_WIUrandom_access_iterator_tag@0@@Z 00542e50 f i Mesh.obj
 0002:00069f80       ??$_Iter_cat@PAUEdgeIntersection@ObjEd@@@std@@YA?AUrandom_access_iterator_tag@0@ABQAUEdgeIntersection@ObjEd@@@Z 00542f80 f i Mesh.obj
 0002:00069ff0       ??$_Debug_range2@PAUEdgeIntersection@ObjEd@@@std@@YAXPAUEdgeIntersection@ObjEd@@0PB_WIUrandom_access_iterator_tag@0@@Z 00542ff0 f i Mesh.obj
 0002:0006a0a0       ??$_Iter_cat@V?$_Vector_const_iterator@VProcTex@ObjEd@@V?$allocator@VProcTex@ObjEd@@@std@@@std@@@std@@YA?AUrandom_access_iterator_tag@0@ABV?$_Vector_const_iterator@VProcTex@ObjEd@@V?$allocator@VProcTex@ObjEd@@@std@@@0@@Z 005430a0 f i Mesh.obj
 0002:0006a110       ??$_Debug_range2@V?$_Vector_const_iterator@VProcTex@ObjEd@@V?$allocator@VProcTex@ObjEd@@@std@@@std@@@std@@YAXV?$_Vector_const_iterator@VProcTex@ObjEd@@V?$allocator@VProcTex@ObjEd@@@std@@@0@0PB_WIUrandom_access_iterator_tag@0@@Z 00543110 f i Mesh.obj
 0002:0006a240       ??$_Iter_cat@V?$_Vector_const_iterator@PAVEditableMeshModel@@V?$allocator@PAVEditableMeshModel@@@std@@@std@@@std@@YA?AUrandom_access_iterator_tag@0@ABV?$_Vector_const_iterator@PAVEditableMeshModel@@V?$allocator@PAVEditableMeshModel@@@std@@@0@@Z 00543240 f i Mesh.obj
 0002:0006a2b0       ??$_Debug_range2@V?$_Vector_const_iterator@PAVEditableMeshModel@@V?$allocator@PAVEditableMeshModel@@@std@@@std@@@std@@YAXV?$_Vector_const_iterator@PAVEditableMeshModel@@V?$allocator@PAVEditableMeshModel@@@std@@@0@0PB_WIUrandom_access_iterator_tag@0@@Z 005432b0 f i Mesh.obj
 0002:0006a3e0       ??$_Iter_cat@V?$_Vector_const_iterator@PAVDeferredMeshModel@@V?$allocator@PAVDeferredMeshModel@@@std@@@std@@@std@@YA?AUrandom_access_iterator_tag@0@ABV?$_Vector_const_iterator@PAVDeferredMeshModel@@V?$allocator@PAVDeferredMeshModel@@@std@@@0@@Z 005433e0 f i Mesh.obj
 0002:0006a450       ??$_Debug_range2@V?$_Vector_const_iterator@PAVDeferredMeshModel@@V?$allocator@PAVDeferredMeshModel@@@std@@@std@@@std@@YAXV?$_Vector_const_iterator@PAVDeferredMeshModel@@V?$allocator@PAVDeferredMeshModel@@@std@@@0@0PB_WIUrandom_access_iterator_tag@0@@Z 00543450 f i Mesh.obj
 0002:0006a580       ??$_Debug_pointer@V?$_Vb_iterator@IHV?$vector@_NV?$allocator@_N@std@@@std@@@std@@@std@@YAXAAV?$_Vb_iterator@IHV?$vector@_NV?$allocator@_N@std@@@std@@@0@PB_WI@Z 00543580 f i Mesh.obj
 0002:0006a5b0       ??$_Fill_n@PAPAVEditableMeshModel@@IPAV1@@std@@YAXPAPAVEditableMeshModel@@IABQAV1@U_Range_checked_iterator_tag@0@@Z 005435b0 f i Mesh.obj
 0002:0006a610       ??$_Fill_n@PAPAVDeferredMeshModel@@IPAV1@@std@@YAXPAPAVDeferredMeshModel@@IABQAV1@U_Range_checked_iterator_tag@0@@Z 00543610 f i Mesh.obj
 0002:0006a670       ??$_Uninit_copy@PAPAVMeshComponent@@PAPAV1@V?$allocator@PAVMeshComponent@@@std@@@std@@YAPAPAVMeshComponent@@PAPAV1@00AAV?$allocator@PAVMeshComponent@@@0@U_Scalar_ptr_iterator_tag@0@U_Range_checked_iterator_tag@0@@Z 00543670 f i Mesh.obj
 0002:0006a750       ??$_Uninit_copy@PAUBevelVInfo@ObjEd@@PAU12@V?$allocator@UBevelVInfo@ObjEd@@@std@@@std@@YAPAUBevelVInfo@ObjEd@@PAU12@00AAV?$allocator@UBevelVInfo@ObjEd@@@0@U_Nonscalar_ptr_iterator_tag@0@U_Range_checked_iterator_tag@0@@Z 00543750 f i Mesh.obj
 0002:0006a8a0       ??$_Debug_pointer@UBevelVInfo@ObjEd@@@std@@YAXPAUBevelVInfo@ObjEd@@PB_WI@Z 005438a0 f i Mesh.obj
 0002:0006a910       ??$_Uninit_copy@PAUExtrudeInfo@ObjEd@@PAU12@V?$allocator@UExtrudeInfo@ObjEd@@@std@@@std@@YAPAUExtrudeInfo@ObjEd@@PAU12@00AAV?$allocator@UExtrudeInfo@ObjEd@@@0@U_Nonscalar_ptr_iterator_tag@0@U_Range_checked_iterator_tag@0@@Z 00543910 f i Mesh.obj
 0002:0006aa60       ??$_Debug_pointer@UExtrudeInfo@ObjEd@@@std@@YAXPAUExtrudeInfo@ObjEd@@PB_WI@Z 00543a60 f i Mesh.obj
 0002:0006aad0       ??$_Uninit_copy@PAUExtrudeMatrixInfo@ObjEd@@PAU12@V?$allocator@UExtrudeMatrixInfo@ObjEd@@@std@@@std@@YAPAUExtrudeMatrixInfo@ObjEd@@PAU12@00AAV?$allocator@UExtrudeMatrixInfo@ObjEd@@@0@U_Nonscalar_ptr_iterator_tag@0@U_Range_checked_iterator_tag@0@@Z 00543ad0 f i Mesh.obj
 0002:0006ac20       ??$_Debug_pointer@UExtrudeMatrixInfo@ObjEd@@@std@@YAXPAUExtrudeMatrixInfo@ObjEd@@PB_WI@Z 00543c20 f i Mesh.obj
 0002:0006ac90       ??$_Uninit_copy@PAUExtrudeInnerInfo@ObjEd@@PAU12@V?$allocator@UExtrudeInnerInfo@ObjEd@@@std@@@std@@YAPAUExtrudeInnerInfo@ObjEd@@PAU12@00AAV?$allocator@UExtrudeInnerInfo@ObjEd@@@0@U_Nonscalar_ptr_iterator_tag@0@U_Range_checked_iterator_tag@0@@Z 00543c90 f i Mesh.obj
 0002:0006ade0       ??$_Debug_pointer@UExtrudeInnerInfo@ObjEd@@@std@@YAXPAUExtrudeInnerInfo@ObjEd@@PB_WI@Z 00543de0 f i Mesh.obj
 0002:0006ae50       ??$_Uninit_copy@PAUNorScaleInfo@ObjEd@@PAU12@V?$allocator@UNorScaleInfo@ObjEd@@@std@@@std@@YAPAUNorScaleInfo@ObjEd@@PAU12@00AAV?$allocator@UNorScaleInfo@ObjEd@@@0@U_Nonscalar_ptr_iterator_tag@0@U_Range_checked_iterator_tag@0@@Z 00543e50 f i Mesh.obj
 0002:0006afa0       ??$_Debug_pointer@UNorScaleInfo@ObjEd@@@std@@YAXPAUNorScaleInfo@ObjEd@@PB_WI@Z 00543fa0 f i Mesh.obj
 0002:0006b010       ??$_Uninit_copy@PAPAVEditableMeshModel@@PAPAV1@V?$allocator@PAVEditableMeshModel@@@std@@@std@@YAPAPAVEditableMeshModel@@PAPAV1@00AAV?$allocator@PAVEditableMeshModel@@@0@U_Scalar_ptr_iterator_tag@0@U_Range_checked_iterator_tag@0@@Z 00544010 f i Mesh.obj
 0002:0006b0f0       ??$_Uninit_copy@PAPAVDeferredMeshModel@@PAPAV1@V?$allocator@PAVDeferredMeshModel@@@std@@@std@@YAPAPAVDeferredMeshModel@@PAPAV1@00AAV?$allocator@PAVDeferredMeshModel@@@0@U_Scalar_ptr_iterator_tag@0@U_Range_checked_iterator_tag@0@@Z 005440f0 f i Mesh.obj
 0002:0006b1d0       ??$_Iter_cat@V?$_Vector_const_iterator@V?$vector@PAVHE_vert@@V?$allocator@PAVHE_vert@@@std@@@std@@V?$allocator@V?$vector@PAVHE_vert@@V?$allocator@PAVHE_vert@@@std@@@std@@@2@@std@@@std@@YA?AUrandom_access_iterator_tag@0@ABV?$_Vector_const_iterator@V?$vector@PAVHE_vert@@V?$allocator@PAVHE_vert@@@std@@@std@@V?$allocator@V?$vector@PAVHE_vert@@V?$allocator@PAVHE_vert@@@std@@@std@@@2@@0@@Z 005441d0 f i Mesh.obj
 0002:0006b240       ??$_Debug_range2@V?$_Vector_const_iterator@V?$vector@PAVHE_vert@@V?$allocator@PAVHE_vert@@@std@@@std@@V?$allocator@V?$vector@PAVHE_vert@@V?$allocator@PAVHE_vert@@@std@@@std@@@2@@std@@@std@@YAXV?$_Vector_const_iterator@V?$vector@PAVHE_vert@@V?$allocator@PAVHE_vert@@@std@@@std@@V?$allocator@V?$vector@PAVHE_vert@@V?$allocator@PAVHE_vert@@@std@@@std@@@2@@0@0PB_WIUrandom_access_iterator_tag@0@@Z 00544240 f i Mesh.obj
 0002:0006b370       ??$_Iter_cat@V?$_Vector_const_iterator@PAVHE_vert@@V?$allocator@PAVHE_vert@@@std@@@std@@@std@@YA?AUrandom_access_iterator_tag@0@ABV?$_Vector_const_iterator@PAVHE_vert@@V?$allocator@PAVHE_vert@@@std@@@0@@Z 00544370 f i Mesh.obj
 0002:0006b3e0       ??$_Debug_range2@V?$_Vector_const_iterator@PAVHE_vert@@V?$allocator@PAVHE_vert@@@std@@@std@@@std@@YAXV?$_Vector_const_iterator@PAVHE_vert@@V?$allocator@PAVHE_vert@@@std@@@0@0PB_WIUrandom_access_iterator_tag@0@@Z 005443e0 f i Mesh.obj
 0002:0006b510       ??$_Fill_n@PAPAVMeshComponent@@IPAV1@@std@@YAXPAPAVMeshComponent@@IABQAV1@U_Range_checked_iterator_tag@0@@Z 00544510 f i Mesh.obj
 0002:0006b570       ??$_Uninit_copy@PAIPAIV?$allocator@I@std@@@std@@YAPAIPAI00AAV?$allocator@I@0@U_Scalar_ptr_iterator_tag@0@U_Range_checked_iterator_tag@0@@Z 00544570 f i Mesh.obj
 0002:0006b650       ??9?$_Vector_const_iterator@PAVEditableMeshModel@@V?$allocator@PAVEditableMeshModel@@@std@@@std@@QBE_NABV01@@Z 00544650 f i Mesh.obj
 0002:0006b6c0       ??M?$_Vector_const_iterator@PAVEditableMeshModel@@V?$allocator@PAVEditableMeshModel@@@std@@@std@@QBE_NABV01@@Z 005446c0 f i Mesh.obj
 0002:0006b730       ??9?$_Vector_const_iterator@PAVDeferredMeshModel@@V?$allocator@PAVDeferredMeshModel@@@std@@@std@@QBE_NABV01@@Z 00544730 f i Mesh.obj
 0002:0006b7a0       ??M?$_Vector_const_iterator@PAVDeferredMeshModel@@V?$allocator@PAVDeferredMeshModel@@@std@@@std@@QBE_NABV01@@Z 005447a0 f i Mesh.obj
 0002:0006b810       ??8?$_Vector_const_iterator@PAVEditableMeshModel@@V?$allocator@PAVEditableMeshModel@@@std@@@std@@QBE_NABV01@@Z 00544810 f i Mesh.obj
 0002:0006b880       ??8?$_Vector_const_iterator@PAVDeferredMeshModel@@V?$allocator@PAVDeferredMeshModel@@@std@@@std@@QBE_NABV01@@Z 00544880 f i Mesh.obj
 0002:0006b8f0       ??$_Distance2@V?$_Vector_const_iterator@USelection@ObjEd@@V?$allocator@USelection@ObjEd@@@std@@@std@@I@std@@YAXV?$_Vector_const_iterator@USelection@ObjEd@@V?$allocator@USelection@ObjEd@@@std@@@0@0AAIUrandom_access_iterator_tag@0@@Z 005448f0 f i Mesh.obj
 0002:0006ba00       ??$_Distance2@V?$_Iterator@$00@?$list@HV?$allocator@H@std@@@std@@I@std@@YAXV?$_Iterator@$00@?$list@HV?$allocator@H@std@@@0@0AAIUbidirectional_iterator_tag@0@@Z 00544a00 f i Mesh.obj
 0002:0006bae0       ??$_Unchecked_uninitialized_move@PAHPAHV?$allocator@H@std@@@stdext@@YAPAHPAH00AAV?$allocator@H@std@@@Z 00544ae0 f i Mesh.obj
 0002:0006bb90       ??$unchecked_uninitialized_copy@V?$_Iterator@$00@?$list@HV?$allocator@H@std@@@std@@PAHV?$allocator@H@3@@stdext@@YAPAHV?$_Iterator@$00@?$list@HV?$allocator@H@std@@@std@@0PAHAAV?$allocator@H@3@@Z 00544b90 f i Mesh.obj
 0002:0006bd00       ??$_Debug_pointer@V?$_Vector_const_iterator@HV?$allocator@H@std@@@std@@@std@@YAXAAV?$_Vector_const_iterator@HV?$allocator@H@std@@@0@PB_WI@Z 00544d00 f i Mesh.obj
 0002:0006bd30       ??$_Debug_pointer@V?$_Vector_const_iterator@UD3DXVECTOR3@@V?$allocator@UD3DXVECTOR3@@@std@@@std@@@std@@YAXAAV?$_Vector_const_iterator@UD3DXVECTOR3@@V?$allocator@UD3DXVECTOR3@@@std@@@0@PB_WI@Z 00544d30 f i Mesh.obj
 0002:0006bd60       ??$_Debug_pointer@V?$_Vector_const_iterator@USelection@ObjEd@@V?$allocator@USelection@ObjEd@@@std@@@std@@@std@@YAXAAV?$_Vector_const_iterator@USelection@ObjEd@@V?$allocator@USelection@ObjEd@@@std@@@0@PB_WI@Z 00544d60 f i Mesh.obj
 0002:0006bd90       ??$_Debug_pointer@V?$_Vector_const_iterator@VProcTex@ObjEd@@V?$allocator@VProcTex@ObjEd@@@std@@@std@@@std@@YAXAAV?$_Vector_const_iterator@VProcTex@ObjEd@@V?$allocator@VProcTex@ObjEd@@@std@@@0@PB_WI@Z 00544d90 f i Mesh.obj
 0002:0006bdc0       ??$_Debug_pointer@V?$_Vector_const_iterator@PAVEditableMeshModel@@V?$allocator@PAVEditableMeshModel@@@std@@@std@@@std@@YAXAAV?$_Vector_const_iterator@PAVEditableMeshModel@@V?$allocator@PAVEditableMeshModel@@@std@@@0@PB_WI@Z 00544dc0 f i Mesh.obj
 0002:0006bdf0       ??$_Debug_pointer@V?$_Vector_const_iterator@PAVDeferredMeshModel@@V?$allocator@PAVDeferredMeshModel@@@std@@@std@@@std@@YAXAAV?$_Vector_const_iterator@PAVDeferredMeshModel@@V?$allocator@PAVDeferredMeshModel@@@std@@@0@PB_WI@Z 00544df0 f i Mesh.obj
 0002:0006be20       ??$_Debug_pointer@V?$_Vector_const_iterator@V?$vector@PAVHE_vert@@V?$allocator@PAVHE_vert@@@std@@@std@@V?$allocator@V?$vector@PAVHE_vert@@V?$allocator@PAVHE_vert@@@std@@@std@@@2@@std@@@std@@YAXAAV?$_Vector_const_iterator@V?$vector@PAVHE_vert@@V?$allocator@PAVHE_vert@@@std@@@std@@V?$allocator@V?$vector@PAVHE_vert@@V?$allocator@PAVHE_vert@@@std@@@std@@@2@@0@PB_WI@Z 00544e20 f i Mesh.obj
 0002:0006be50       ??$_Debug_pointer@V?$_Vector_const_iterator@PAVHE_vert@@V?$allocator@PAVHE_vert@@@std@@@std@@@std@@YAXAAV?$_Vector_const_iterator@PAVHE_vert@@V?$allocator@PAVHE_vert@@@std@@@0@PB_WI@Z 00544e50 f i Mesh.obj
 0002:0006be80       ??1?$_Iterator@$0A@@?$list@HV?$allocator@H@std@@@std@@QAE@XZ 00544e80 f i Mesh.obj
 0002:0006bed0       ??1?$_Const_iterator@$0A@@?$list@HV?$allocator@H@std@@@std@@QAE@XZ 00544ed0 f i Mesh.obj
 0002:0006bf20       ??$_Move_cat@PAH@std@@YA?AU_Undefined_move_tag@0@ABQAH@Z 00544f20 f i Mesh.obj
 0002:0006bf90       ??$_Uninit_move@PAHPAHV?$allocator@H@std@@U_Undefined_move_tag@2@@std@@YAPAHPAH00AAV?$allocator@H@0@U_Undefined_move_tag@0@U_Range_checked_iterator_tag@0@@Z 00544f90 f i Mesh.obj
 0002:0006bff0       ??$_Checked_base@V?$_Iterator@$00@?$list@HV?$allocator@H@std@@@std@@@std@@YA?AV?$_Iterator@$0A@@?$list@HV?$allocator@H@std@@@0@AAV?$_Iterator@$00@20@@Z 00544ff0 f i Mesh.obj
 0002:0006c0b0       ??$_Ptr_cat@V?$_Iterator@$00@?$list@HV?$allocator@H@std@@@std@@PAH@std@@YA?AU_Nonscalar_ptr_iterator_tag@0@AAV?$_Iterator@$00@?$list@HV?$allocator@H@std@@@0@AAPAH@Z 005450b0 f i Mesh.obj
 0002:0006c120       ??$_Uninit_copy@V?$_Iterator@$0A@@?$list@HV?$allocator@H@std@@@std@@PAHV?$allocator@H@3@@std@@YAPAHV?$_Iterator@$0A@@?$list@HV?$allocator@H@std@@@0@0PAHAAV?$allocator@H@0@U_Nonscalar_ptr_iterator_tag@0@U_Range_checked_iterator_tag@0@@Z 00545120 f i Mesh.obj
 0002:0006c320       ??0?$_Iterator@$0A@@?$list@HV?$allocator@H@std@@@std@@QAE@ABV012@@Z 00545320 f i Mesh.obj
 0002:0006c380       ??0?$_Const_iterator@$0A@@?$list@HV?$allocator@H@std@@@std@@QAE@ABV012@@Z 00545380 f i Mesh.obj
 0002:0006c3f0       ?destroy@?$allocator@H@std@@QAEXPAH@Z 005453f0 f i Mesh.obj
 0002:0006c450       ??D?$_Iterator@$0A@@?$list@HV?$allocator@H@std@@@std@@QBEAAHXZ 00545450 f i Mesh.obj
 0002:0006c4a0       ??E?$_Iterator@$0A@@?$list@HV?$allocator@H@std@@@std@@QAEAAV012@XZ 005454a0 f i Mesh.obj
 0002:0006c500       ??9?$_Const_iterator@$0A@@?$list@HV?$allocator@H@std@@@std@@QBE_NABV012@@Z 00545500 f i Mesh.obj
 0002:0006c570       ??D?$_Const_iterator@$0A@@?$list@HV?$allocator@H@std@@@std@@QBEABHXZ 00545570 f i Mesh.obj
 0002:0006c690       ??E?$_Const_iterator@$0A@@?$list@HV?$allocator@H@std@@@std@@QAEAAV012@XZ 00545690 f i Mesh.obj
 0002:0006c7c0       ??8?$_Const_iterator@$0A@@?$list@HV?$allocator@H@std@@@std@@QBE_NABV012@@Z 005457c0 f i Mesh.obj
 0002:0006c830       ?_Compat@?$_Const_iterator@$0A@@?$list@HV?$allocator@H@std@@@std@@QBEXABV123@@Z 00545830 f i Mesh.obj
 0002:0006c930       ??$_Checked_base@V?$_Iterator@$00@?$list@HV?$allocator@H@std@@@std@@U_Different_checked_iterator_base_type_tag@3@@std@@YA?AV?$_Iterator@$0A@@?$list@HV?$allocator@H@std@@@0@AAV?$_Iterator@$00@20@U_Different_checked_iterator_base_type_tag@0@@Z 00545930 f i Mesh.obj
 0002:0006c9a0       ??$_Debug_range@V?$_Iterator@$0A@@?$list@HV?$allocator@H@std@@@std@@@std@@YAXV?$_Iterator@$0A@@?$list@HV?$allocator@H@std@@@0@0PB_WI@Z 005459a0 f i Mesh.obj
 0002:0006cad0       ??$_Destroy@H@std@@YAXPAH@Z 00545ad0 f i Mesh.obj
 0002:0006cb00       ?_Checked_iterator_base@?$_Iterator@$00@?$list@HV?$allocator@H@std@@@std@@QBE?AV?$_Iterator@$0A@@23@XZ 00545b00 f i Mesh.obj
 0002:0006cc20       ??0?$_Iterator@$0A@@?$list@HV?$allocator@H@std@@@std@@QAE@PAU_Node@?$_List_nod@HV?$allocator@H@std@@@2@PBV12@@Z 00545c20 f i Mesh.obj
 0002:0006cc80       ??0?$_Const_iterator@$0A@@?$list@HV?$allocator@H@std@@@std@@QAE@PAU_Node@?$_List_nod@HV?$allocator@H@std@@@2@PBV12@@Z 00545c80 f i Mesh.obj
 0002:0006cd40       ??$_Iter_cat@V?$_Iterator@$0A@@?$list@HV?$allocator@H@std@@@std@@@std@@YA?AUbidirectional_iterator_tag@0@ABV?$_Iterator@$0A@@?$list@HV?$allocator@H@std@@@0@@Z 00545d40 f i Mesh.obj
 0002:0006cdb0       ??$_Debug_range2@V?$_Iterator@$0A@@?$list@HV?$allocator@H@std@@@std@@@std@@YAXV?$_Iterator@$0A@@?$list@HV?$allocator@H@std@@@0@0PB_WIUinput_iterator_tag@0@@Z 00545db0 f i Mesh.obj
 0002:0006ce50       ?loadMesh@MeshFile@@YAPAVMesh@@PBD@Z 00545e50 f   MeshLoad.obj
 0002:0006d0a0       ?bevelEStart@MeshComponent@@QAE?AUBevelEInfo@ObjEd@@AAV?$vector@USelection@ObjEd@@V?$allocator@USelection@ObjEd@@@std@@@std@@@Z 005460a0 f   BevelE.obj
 0002:0006dd10       ?insert@?$vector@VVertexPosNor@@V?$allocator@VVertexPosNor@@@std@@@std@@QAE?AV?$_Vector_iterator@VVertexPosNor@@V?$allocator@VVertexPosNor@@@std@@@2@V?$_Vector_const_iterator@VVertexPosNor@@V?$allocator@VVertexPosNor@@@std@@@2@ABVVertexPosNor@@@Z 00546d10 f i Game.obj
 0002:0006e020       ?next@HE_edge@@QAEXPAV1@@Z 00547020 f i BevelE.obj
 0002:0006e090       ?prev@HE_edge@@QAEXPAV1@@Z 00547090 f i BevelE.obj
 0002:0006e100       ?nextNoRec@HE_edge@@AAEXPAV1@@Z 00547100 f i BevelE.obj
 0002:0006e170       ?prevNoRec@HE_edge@@AAEXPAV1@@Z 00547170 f i BevelE.obj
 0002:0006e1c0       ??1SimpleGraph@@QAE@XZ     005471c0 f i BevelE.obj
 0002:0006e210       ??0BevelEInfo@ObjEd@@QAE@ABU01@@Z 00547210 f i BevelE.obj
 0002:0006e330       ?bevelE@MeshComponent@@QAEXAAUBevelEInfo@ObjEd@@@Z 00547330 f   BevelE.obj
 0002:0006e4e0       ??0VertexObj@@QAE@XZ       005474e0 f i BevelE.obj
 0002:0006e540       ?bevelESplitSharedBorderDeg2@MeshComponent@@AAEXHABV?$vector@HV?$allocator@H@std@@@std@@AAUBevelEInfo@ObjEd@@AAV?$vector@UBevelEIntermidiateSharedNEdge@MeshComponent@@V?$allocator@UBevelEIntermidiateSharedNEdge@MeshComponent@@@std@@@3@@Z 00547540 f   BevelE.obj
 0002:00070900       ?initCreatePlains@WorldTerrain@@AAEXXZ 00549900 f   WorldTerrain.obj
 0002:00070b20       ?convexHull@ConvexHull2dHelpers@@YAPAVConvexHull2d@@ABV?$vector@UD3DXVECTOR3@@V?$allocator@UD3DXVECTOR3@@@std@@@std@@@Z 00549b20 f   ConvexHull2dHelpers.obj
 0002:00070f00       ?pair@HE_edge@@QAEXPAV1@@Z 00549f00 f i BevelE.obj
 0002:00070f70       ?pairNoRec@HE_edge@@AAEXPAV1@@Z 00549f70 f i BevelE.obj
 0002:00070fc0       ?bevelESplitSharedBorderDegN@MeshComponent@@AAEXHABV?$vector@HV?$allocator@H@std@@@std@@AAUBevelEInfo@ObjEd@@AAV?$vector@UBevelEIntermidiateSharedNEdge@MeshComponent@@V?$allocator@UBevelEIntermidiateSharedNEdge@MeshComponent@@@std@@@3@@Z 00549fc0 f   BevelE.obj
 0002:00071c50       ?bevelESplitSingleBorder@MeshComponent@@AAE?AUBevelEIntermidiateSharedNEdge@1@HHAAUBevelEInfo@ObjEd@@@Z 0054ac50 f   BevelE.obj
 0002:00072940       ?bevelEGetEdge@MeshComponent@@AAEAAUBevelEIntermidiateSharedNEdge@1@AAV?$vector@UBevelEIntermidiateSharedNEdge@MeshComponent@@V?$allocator@UBevelEIntermidiateSharedNEdge@MeshComponent@@@std@@@std@@00PAVHE_edge@@@Z 0054b940 f   BevelE.obj
 0002:00072a20       ?bevelEGetIndex@MeshComponent@@AAEHAAV?$vector@UBevelEIntermidiateSharedNEdge@MeshComponent@@V?$allocator@UBevelEIntermidiateSharedNEdge@MeshComponent@@@std@@@std@@PAVHE_edge@@@Z 0054ba20 f   BevelE.obj
 0002:00072ad0       ?bevelECreateFace@MeshComponent@@AAEXAAUBevelEIntermidiateSharedNEdge@1@0@Z 0054bad0 f   BevelE.obj
 0002:00072de0       ??0?$vector@HV?$allocator@H@std@@@std@@QAE@I@Z 0054bde0 f i BevelE.obj
 0002:00072eb0       ??A?$vector@HV?$allocator@H@std@@@std@@QBEABHI@Z 0054beb0 f i BevelE.obj
 0002:00073030       ??A?$vector@UD3DXVECTOR3@@V?$allocator@UD3DXVECTOR3@@@std@@@std@@QAEAAUD3DXVECTOR3@@I@Z 0054c030 f i BevelE.obj
 0002:000731b0       ?push_back@?$vector@UD3DXVECTOR3@@V?$allocator@UD3DXVECTOR3@@@std@@@std@@QAEXABUD3DXVECTOR3@@@Z 0054c1b0 f i BevelE.obj
 0002:00073320       ??0?$vector@PAVHE_vert@@V?$allocator@PAVHE_vert@@@std@@@std@@QAE@I@Z 0054c320 f i BevelE.obj
 0002:000733f0       ?resize@?$vector@PAVHE_vert@@V?$allocator@PAVHE_vert@@@std@@@std@@QAEXI@Z 0054c3f0 f i BevelE.obj
 0002:00073450       ??A?$vector@PAVHE_vert@@V?$allocator@PAVHE_vert@@@std@@@std@@QAEAAPAVHE_vert@@I@Z 0054c450 f i BevelE.obj
 0002:000735d0       ?push_back@?$vector@PAVHE_vert@@V?$allocator@PAVHE_vert@@@std@@@std@@QAEXABQAVHE_vert@@@Z 0054c5d0 f i BevelE.obj
 0002:00073740       ??0?$vector@PAVHE_edge@@V?$allocator@PAVHE_edge@@@std@@@std@@QAE@XZ 0054c740 f i BevelE.obj
 0002:00073800       ??0?$vector@PAVHE_edge@@V?$allocator@PAVHE_edge@@@std@@@std@@QAE@I@Z 0054c800 f i BevelE.obj
 0002:000738d0       ??1?$vector@PAVHE_edge@@V?$allocator@PAVHE_edge@@@std@@@std@@QAE@XZ 0054c8d0 f i BevelE.obj
 0002:00073970       ?resize@?$vector@PAVHE_edge@@V?$allocator@PAVHE_edge@@@std@@@std@@QAEXI@Z 0054c970 f i BevelE.obj
 0002:000739d0       ?size@?$vector@PAVHE_edge@@V?$allocator@PAVHE_edge@@@std@@@std@@QBEIXZ 0054c9d0 f i BevelE.obj
 0002:00073a20       ??A?$vector@PAVHE_edge@@V?$allocator@PAVHE_edge@@@std@@@std@@QAEAAPAVHE_edge@@I@Z 0054ca20 f i BevelE.obj
 0002:00073ba0       ?push_back@?$vector@PAVHE_edge@@V?$allocator@PAVHE_edge@@@std@@@std@@QAEXABQAVHE_edge@@@Z 0054cba0 f i BevelE.obj
 0002:00073d10       ??1?$vector@V?$vector@HV?$allocator@H@std@@@std@@V?$allocator@V?$vector@HV?$allocator@H@std@@@std@@@2@@std@@QAE@XZ 0054cd10 f i BevelE.obj
 0002:00073db0       ??0?$vector@UEdgeBevelE@?3??bevelEStart@MeshComponent@@QAE?AUBevelEInfo@ObjEd@@AAV?$vector@USelection@ObjEd@@V?$allocator@USelection@ObjEd@@@std@@@std@@@Z@V?$allocator@UEdgeBevelE@?3??bevelEStart@MeshComponent@@QAE?AUBevelEInfo@ObjEd@@AAV?$vector@USelection@ObjEd@@V?$allocator@USelection@ObjEd@@@std@@@std@@@Z@@7@@std@@QAE@I@Z 0054cdb0 f i BevelE.obj
 0002:00073ea0       ??1?$vector@UEdgeBevelE@?3??bevelEStart@MeshComponent@@QAE?AUBevelEInfo@ObjEd@@AAV?$vector@USelection@ObjEd@@V?$allocator@USelection@ObjEd@@@std@@@std@@@Z@V?$allocator@UEdgeBevelE@?3??bevelEStart@MeshComponent@@QAE?AUBevelEInfo@ObjEd@@AAV?$vector@USelection@ObjEd@@V?$allocator@USelection@ObjEd@@@std@@@std@@@Z@@7@@std@@QAE@XZ 0054cea0 f i BevelE.obj
 0002:00073f40       ??A?$vector@UEdgeBevelE@?3??bevelEStart@MeshComponent@@QAE?AUBevelEInfo@ObjEd@@AAV?$vector@USelection@ObjEd@@V?$allocator@USelection@ObjEd@@@std@@@std@@@Z@V?$allocator@UEdgeBevelE@?3??bevelEStart@MeshComponent@@QAE?AUBevelEInfo@ObjEd@@AAV?$vector@USelection@ObjEd@@V?$allocator@USelection@ObjEd@@@std@@@std@@@Z@@7@@std@@QAEAAUEdgeBevelE@?3??bevelEStart@MeshComponent@@QAE?AUBevelEInfo@ObjEd@@AAV?$vector@USelection@ObjEd@@V?$allocator@USelection@ObjEd@@@std@@@1@@Z@I@Z 0054cf40 f i BevelE.obj
 0002:000740c0       ??0?$vector@UBevelEIntermidiateSharedNEdge@MeshComponent@@V?$allocator@UBevelEIntermidiateSharedNEdge@MeshComponent@@@std@@@std@@QAE@XZ 0054d0c0 f i BevelE.obj
 0002:00074180       ??0?$vector@UBevelEIntermidiateSharedNEdge@MeshComponent@@V?$allocator@UBevelEIntermidiateSharedNEdge@MeshComponent@@@std@@@std@@QAE@I@Z 0054d180 f i BevelE.obj
 0002:000742a0       ??1?$vector@UBevelEIntermidiateSharedNEdge@MeshComponent@@V?$allocator@UBevelEIntermidiateSharedNEdge@MeshComponent@@@std@@@std@@QAE@XZ 0054d2a0 f i BevelE.obj
 0002:00074340       ?size@?$vector@UBevelEIntermidiateSharedNEdge@MeshComponent@@V?$allocator@UBevelEIntermidiateSharedNEdge@MeshComponent@@@std@@@std@@QBEIXZ 0054d340 f i BevelE.obj
 0002:00074390       ??A?$vector@UBevelEIntermidiateSharedNEdge@MeshComponent@@V?$allocator@UBevelEIntermidiateSharedNEdge@MeshComponent@@@std@@@std@@QAEAAUBevelEIntermidiateSharedNEdge@MeshComponent@@I@Z 0054d390 f i BevelE.obj
 0002:00074510       ?push_back@?$vector@UBevelEIntermidiateSharedNEdge@MeshComponent@@V?$allocator@UBevelEIntermidiateSharedNEdge@MeshComponent@@@std@@@std@@QAEXABUBevelEIntermidiateSharedNEdge@MeshComponent@@@Z 0054d510 f i BevelE.obj
 0002:00074680       ??0?$vector@UBevelESharedNEdgeGroup@MeshComponent@@V?$allocator@UBevelESharedNEdgeGroup@MeshComponent@@@std@@@std@@QAE@I@Z 0054d680 f i BevelE.obj
 0002:00074760       ??1?$vector@UBevelESharedNEdgeGroup@MeshComponent@@V?$allocator@UBevelESharedNEdgeGroup@MeshComponent@@@std@@@std@@QAE@XZ 0054d760 f i BevelE.obj
 0002:00074800       ??A?$vector@UBevelESharedNEdgeGroup@MeshComponent@@V?$allocator@UBevelESharedNEdgeGroup@MeshComponent@@@std@@@std@@QAEAAUBevelESharedNEdgeGroup@MeshComponent@@I@Z 0054d800 f i BevelE.obj
 0002:00074980       ??0?$vector@V?$vector@PAVHE_edge@@V?$allocator@PAVHE_edge@@@std@@@std@@V?$allocator@V?$vector@PAVHE_edge@@V?$allocator@PAVHE_edge@@@std@@@std@@@2@@std@@QAE@XZ 0054d980 f i BevelE.obj
 0002:00074a40       ??1?$vector@V?$vector@PAVHE_edge@@V?$allocator@PAVHE_edge@@@std@@@std@@V?$allocator@V?$vector@PAVHE_edge@@V?$allocator@PAVHE_edge@@@std@@@std@@@2@@std@@QAE@XZ 0054da40 f i BevelE.obj
 0002:00074ae0       ?resize@?$vector@V?$vector@PAVHE_edge@@V?$allocator@PAVHE_edge@@@std@@@std@@V?$allocator@V?$vector@PAVHE_edge@@V?$allocator@PAVHE_edge@@@std@@@std@@@2@@std@@QAEXI@Z 0054dae0 f i BevelE.obj
 0002:00074b60       ??A?$vector@V?$vector@PAVHE_edge@@V?$allocator@PAVHE_edge@@@std@@@std@@V?$allocator@V?$vector@PAVHE_edge@@V?$allocator@PAVHE_edge@@@std@@@std@@@2@@std@@QAEAAV?$vector@PAVHE_edge@@V?$allocator@PAVHE_edge@@@std@@@1@I@Z 0054db60 f i BevelE.obj
 0002:00074ce0       ??1?$_Vector_val@PAVHE_edge@@V?$allocator@PAVHE_edge@@@std@@@std@@QAE@XZ 0054dce0 f i BevelE.obj
 0002:00074d30       ??1?$_Vector_iterator@PAVHE_edge@@V?$allocator@PAVHE_edge@@@std@@@std@@QAE@XZ 0054dd30 f i BevelE.obj
 0002:00074d80       ??1?$_Vector_const_iterator@PAVHE_edge@@V?$allocator@PAVHE_edge@@@std@@@std@@QAE@XZ 0054dd80 f i BevelE.obj
 0002:00074dd0       ??0?$_Vector_const_iterator@PAVHE_edge@@V?$allocator@PAVHE_edge@@@std@@@std@@QAE@ABV01@@Z 0054ddd0 f i BevelE.obj
 0002:00074e40       ??1?$_Vector_val@V?$vector@HV?$allocator@H@std@@@std@@V?$allocator@V?$vector@HV?$allocator@H@std@@@std@@@2@@std@@QAE@XZ 0054de40 f i BevelE.obj
 0002:00074e90       ??1?$_Vector_val@UEdgeBevelE@?3??bevelEStart@MeshComponent@@QAE?AUBevelEInfo@ObjEd@@AAV?$vector@USelection@ObjEd@@V?$allocator@USelection@ObjEd@@@std@@@std@@@Z@V?$allocator@UEdgeBevelE@?3??bevelEStart@MeshComponent@@QAE?AUBevelEInfo@ObjEd@@AAV?$vector@USelection@ObjEd@@V?$allocator@USelection@ObjEd@@@std@@@std@@@Z@@7@@std@@QAE@XZ 0054de90 f i BevelE.obj
 0002:00074ee0       ??1?$_Vector_val@UBevelEIntermidiateSharedNEdge@MeshComponent@@V?$allocator@UBevelEIntermidiateSharedNEdge@MeshComponent@@@std@@@std@@QAE@XZ 0054dee0 f i BevelE.obj
 0002:00074f30       ??1?$_Vector_iterator@UBevelEIntermidiateSharedNEdge@MeshComponent@@V?$allocator@UBevelEIntermidiateSharedNEdge@MeshComponent@@@std@@@std@@QAE@XZ 0054df30 f i BevelE.obj
 0002:00074f80       ??0?$_Vector_const_iterator@UBevelEIntermidiateSharedNEdge@MeshComponent@@V?$allocator@UBevelEIntermidiateSharedNEdge@MeshComponent@@@std@@@std@@QAE@ABV01@@Z 0054df80 f i BevelE.obj
 0002:00074ff0       ??1?$_Vector_const_iterator@UBevelEIntermidiateSharedNEdge@MeshComponent@@V?$allocator@UBevelEIntermidiateSharedNEdge@MeshComponent@@@std@@@std@@QAE@XZ 0054dff0 f i BevelE.obj
 0002:00075040       ??1?$_Vector_val@UBevelESharedNEdgeGroup@MeshComponent@@V?$allocator@UBevelESharedNEdgeGroup@MeshComponent@@@std@@@std@@QAE@XZ 0054e040 f i BevelE.obj
 0002:00075090       ??1?$_Vector_val@V?$vector@PAVHE_edge@@V?$allocator@PAVHE_edge@@@std@@@std@@V?$allocator@V?$vector@PAVHE_edge@@V?$allocator@PAVHE_edge@@@std@@@std@@@2@@std@@QAE@XZ 0054e090 f i BevelE.obj
 0002:000750e0       ??1?$_Ranit@PAVHE_edge@@HPBQAV1@ABQAV1@@std@@QAE@XZ 0054e0e0 f i BevelE.obj
 0002:00075130       ??0?$_Ranit@PAVHE_edge@@HPBQAV1@ABQAV1@@std@@QAE@ABU01@@Z 0054e130 f i BevelE.obj
 0002:00075190       ??0?$_Ranit@UBevelEIntermidiateSharedNEdge@MeshComponent@@HPBU12@ABU12@@std@@QAE@ABU01@@Z 0054e190 f i BevelE.obj
 0002:000751f0       ??1?$_Ranit@UBevelEIntermidiateSharedNEdge@MeshComponent@@HPBU12@ABU12@@std@@QAE@XZ 0054e1f0 f i BevelE.obj
 0002:00075240       ??1?$_Iterator_with_base@Urandom_access_iterator_tag@std@@PAVHE_edge@@HPBQAV3@ABQAV3@V_Iterator_base@2@@std@@QAE@XZ 0054e240 f i BevelE.obj
 0002:00075290       ??0?$_Iterator_with_base@Urandom_access_iterator_tag@std@@PAVHE_edge@@HPBQAV3@ABQAV3@V_Iterator_base@2@@std@@QAE@ABU01@@Z 0054e290 f i BevelE.obj
 0002:000752f0       ??0?$_Iterator_with_base@Urandom_access_iterator_tag@std@@UBevelEIntermidiateSharedNEdge@MeshComponent@@HPBU34@ABU34@V_Iterator_base@2@@std@@QAE@ABU01@@Z 0054e2f0 f i BevelE.obj
 0002:00075350       ??1?$_Iterator_with_base@Urandom_access_iterator_tag@std@@UBevelEIntermidiateSharedNEdge@MeshComponent@@HPBU34@ABU34@V_Iterator_base@2@@std@@QAE@XZ 0054e350 f i BevelE.obj
 0002:000753a0       ?_Construct_n@?$vector@HV?$allocator@H@std@@@std@@QAEXIABH@Z 0054e3a0 f i BevelE.obj
 0002:000754b0       ?insert@?$vector@UD3DXVECTOR3@@V?$allocator@UD3DXVECTOR3@@@std@@@std@@QAE?AV?$_Vector_iterator@UD3DXVECTOR3@@V?$allocator@UD3DXVECTOR3@@@std@@@2@V?$_Vector_const_iterator@UD3DXVECTOR3@@V?$allocator@UD3DXVECTOR3@@@std@@@2@ABUD3DXVECTOR3@@@Z 0054e4b0 f i BevelE.obj
 0002:000756b0       ?_Ufill@?$vector@UD3DXVECTOR3@@V?$allocator@UD3DXVECTOR3@@@std@@@std@@IAEPAUD3DXVECTOR3@@PAU3@IABU3@@Z 0054e6b0 f i BevelE.obj
 0002:00075730       ?_Construct_n@?$vector@PAVHE_vert@@V?$allocator@PAVHE_vert@@@std@@@std@@QAEXIABQAVHE_vert@@@Z 0054e730 f i BevelE.obj
 0002:00075840       ?resize@?$vector@PAVHE_vert@@V?$allocator@PAVHE_vert@@@std@@@std@@QAEXIPAVHE_vert@@@Z 0054e840 f i BevelE.obj
 0002:00075ae0       ?insert@?$vector@PAVHE_vert@@V?$allocator@PAVHE_vert@@@std@@@std@@QAE?AV?$_Vector_iterator@PAVHE_vert@@V?$allocator@PAVHE_vert@@@std@@@2@V?$_Vector_const_iterator@PAVHE_vert@@V?$allocator@PAVHE_vert@@@std@@@2@ABQAVHE_vert@@@Z 0054eae0 f i BevelE.obj
 0002:00075ce0       ?_Ufill@?$vector@PAVHE_vert@@V?$allocator@PAVHE_vert@@@std@@@std@@IAEPAPAVHE_vert@@PAPAV3@IABQAV3@@Z 0054ece0 f i BevelE.obj
 0002:00075d60       ?_Construct_n@?$vector@PAVHE_edge@@V?$allocator@PAVHE_edge@@@std@@@std@@QAEXIABQAVHE_edge@@@Z 0054ed60 f i BevelE.obj
 0002:00075e70       ?capacity@?$vector@PAVHE_edge@@V?$allocator@PAVHE_edge@@@std@@@std@@QBEIXZ 0054ee70 f i BevelE.obj
 0002:00075ee0       ?end@?$vector@PAVHE_edge@@V?$allocator@PAVHE_edge@@@std@@@std@@QAE?AV?$_Vector_iterator@PAVHE_edge@@V?$allocator@PAVHE_edge@@@std@@@2@XZ 0054eee0 f i BevelE.obj
 0002:00075f70       ?resize@?$vector@PAVHE_edge@@V?$allocator@PAVHE_edge@@@std@@@std@@QAEXIPAVHE_edge@@@Z 0054ef70 f i BevelE.obj
 0002:00076210       ?insert@?$vector@PAVHE_edge@@V?$allocator@PAVHE_edge@@@std@@@std@@QAE?AV?$_Vector_iterator@PAVHE_edge@@V?$allocator@PAVHE_edge@@@std@@@2@V?$_Vector_const_iterator@PAVHE_edge@@V?$allocator@PAVHE_edge@@@std@@@2@ABQAVHE_edge@@@Z 0054f210 f i BevelE.obj
 0002:00076410       ?_Buy@?$vector@PAVHE_edge@@V?$allocator@PAVHE_edge@@@std@@@std@@IAE_NI@Z 0054f410 f i BevelE.obj
 0002:000764f0       ?_Tidy@?$vector@PAVHE_edge@@V?$allocator@PAVHE_edge@@@std@@@std@@IAEXXZ 0054f4f0 f i BevelE.obj
 0002:000765d0       ?_Ufill@?$vector@PAVHE_edge@@V?$allocator@PAVHE_edge@@@std@@@std@@IAEPAPAVHE_edge@@PAPAV3@IABQAV3@@Z 0054f5d0 f i BevelE.obj
 0002:00076650       ?_Orphan_range@?$vector@PAVHE_edge@@V?$allocator@PAVHE_edge@@@std@@@std@@IBEXPAPAVHE_edge@@0@Z 0054f650 f i BevelE.obj
 0002:00076760       ??0?$_Vector_val@PAVHE_edge@@V?$allocator@PAVHE_edge@@@std@@@std@@IAE@V?$allocator@PAVHE_edge@@@1@@Z 0054f760 f i BevelE.obj
 0002:000767e0       ??1?$_Container_base_aux_alloc_empty@V?$allocator@PAVHE_edge@@@std@@@std@@IAE@XZ 0054f7e0 f i BevelE.obj
 0002:00076840       ??0?$allocator@PAVHE_edge@@@std@@QAE@XZ 0054f840 f i BevelE.obj
 0002:00076880       ??0?$allocator@PAVHE_edge@@@std@@QAE@ABV01@@Z 0054f880 f i BevelE.obj
 0002:000768c0       ?_Tidy@?$vector@V?$vector@HV?$allocator@H@std@@@std@@V?$allocator@V?$vector@HV?$allocator@H@std@@@std@@@2@@std@@IAEXXZ 0054f8c0 f i BevelE.obj
 0002:000769a0       ??1?$_Container_base_aux_alloc_empty@V?$allocator@V?$vector@HV?$allocator@H@std@@@std@@@std@@@std@@IAE@XZ 0054f9a0 f i BevelE.obj
 0002:00076a00       ?_Construct_n@?$vector@UEdgeBevelE@?3??bevelEStart@MeshComponent@@QAE?AUBevelEInfo@ObjEd@@AAV?$vector@USelection@ObjEd@@V?$allocator@USelection@ObjEd@@@std@@@std@@@Z@V?$allocator@UEdgeBevelE@?3??bevelEStart@MeshComponent@@QAE?AUBevelEInfo@ObjEd@@AAV?$vector@USelection@ObjEd@@V?$allocator@USelection@ObjEd@@@std@@@std@@@Z@@7@@std@@QAEXIABUEdgeBevelE@?3??bevelEStart@MeshComponent@@QAE?AUBevelEInfo@ObjEd@@AAV?$vector@USelection@ObjEd@@V?$allocator@USelection@ObjEd@@@std@@@2@@Z@@Z 0054fa00 f i BevelE.obj
 0002:00076b10       ?size@?$vector@UEdgeBevelE@?3??bevelEStart@MeshComponent@@QAE?AUBevelEInfo@ObjEd@@AAV?$vector@USelection@ObjEd@@V?$allocator@USelection@ObjEd@@@std@@@std@@@Z@V?$allocator@UEdgeBevelE@?3??bevelEStart@MeshComponent@@QAE?AUBevelEInfo@ObjEd@@AAV?$vector@USelection@ObjEd@@V?$allocator@USelection@ObjEd@@@std@@@std@@@Z@@7@@std@@QBEIXZ 0054fb10 f i BevelE.obj
 0002:00076b60       ?_Tidy@?$vector@UEdgeBevelE@?3??bevelEStart@MeshComponent@@QAE?AUBevelEInfo@ObjEd@@AAV?$vector@USelection@ObjEd@@V?$allocator@USelection@ObjEd@@@std@@@std@@@Z@V?$allocator@UEdgeBevelE@?3??bevelEStart@MeshComponent@@QAE?AUBevelEInfo@ObjEd@@AAV?$vector@USelection@ObjEd@@V?$allocator@USelection@ObjEd@@@std@@@std@@@Z@@7@@std@@IAEXXZ 0054fb60 f i BevelE.obj
 0002:00076c40       ??0?$_Vector_val@UEdgeBevelE@?3??bevelEStart@MeshComponent@@QAE?AUBevelEInfo@ObjEd@@AAV?$vector@USelection@ObjEd@@V?$allocator@USelection@ObjEd@@@std@@@std@@@Z@V?$allocator@UEdgeBevelE@?3??bevelEStart@MeshComponent@@QAE?AUBevelEInfo@ObjEd@@AAV?$vector@USelection@ObjEd@@V?$allocator@USelection@ObjEd@@@std@@@std@@@Z@@7@@std@@IAE@V?$allocator@UEdgeBevelE@?3??bevelEStart@MeshComponent@@QAE?AUBevelEInfo@ObjEd@@AAV?$vector@USelection@ObjEd@@V?$allocator@USelection@ObjEd@@@std@@@std@@@Z@@1@@Z 0054fc40 f i BevelE.obj
 0002:00076cc0       ??1?$_Container_base_aux_alloc_empty@V?$allocator@UEdgeBevelE@?3??bevelEStart@MeshComponent@@QAE?AUBevelEInfo@ObjEd@@AAV?$vector@USelection@ObjEd@@V?$allocator@USelection@ObjEd@@@std@@@std@@@Z@@std@@@std@@IAE@XZ 0054fcc0 f i BevelE.obj
 0002:00076d20       ??0?$allocator@UEdgeBevelE@?3??bevelEStart@MeshComponent@@QAE?AUBevelEInfo@ObjEd@@AAV?$vector@USelection@ObjEd@@V?$allocator@USelection@ObjEd@@@std@@@std@@@Z@@std@@QAE@XZ 0054fd20 f i BevelE.obj
 0002:00076d60       ?_Construct_n@?$vector@UBevelEIntermidiateSharedNEdge@MeshComponent@@V?$allocator@UBevelEIntermidiateSharedNEdge@MeshComponent@@@std@@@std@@QAEXIABUBevelEIntermidiateSharedNEdge@MeshComponent@@@Z 0054fd60 f i BevelE.obj
 0002:00076e70       ?capacity@?$vector@UBevelEIntermidiateSharedNEdge@MeshComponent@@V?$allocator@UBevelEIntermidiateSharedNEdge@MeshComponent@@@std@@@std@@QBEIXZ 0054fe70 f i BevelE.obj
 0002:00076ef0       ?end@?$vector@UBevelEIntermidiateSharedNEdge@MeshComponent@@V?$allocator@UBevelEIntermidiateSharedNEdge@MeshComponent@@@std@@@std@@QAE?AV?$_Vector_iterator@UBevelEIntermidiateSharedNEdge@MeshComponent@@V?$allocator@UBevelEIntermidiateSharedNEdge@MeshComponent@@@std@@@2@XZ 0054fef0 f i BevelE.obj
 0002:00076f80       ?insert@?$vector@UBevelEIntermidiateSharedNEdge@MeshComponent@@V?$allocator@UBevelEIntermidiateSharedNEdge@MeshComponent@@@std@@@std@@QAE?AV?$_Vector_iterator@UBevelEIntermidiateSharedNEdge@MeshComponent@@V?$allocator@UBevelEIntermidiateSharedNEdge@MeshComponent@@@std@@@2@V?$_Vector_const_iterator@UBevelEIntermidiateSharedNEdge@MeshComponent@@V?$allocator@UBevelEIntermidiateSharedNEdge@MeshComponent@@@std@@@2@ABUBevelEIntermidiateSharedNEdge@MeshComponent@@@Z 0054ff80 f i BevelE.obj
 0002:00077180       ?_Buy@?$vector@UBevelEIntermidiateSharedNEdge@MeshComponent@@V?$allocator@UBevelEIntermidiateSharedNEdge@MeshComponent@@@std@@@std@@IAE_NI@Z 00550180 f i BevelE.obj
 0002:00077260       ?_Tidy@?$vector@UBevelEIntermidiateSharedNEdge@MeshComponent@@V?$allocator@UBevelEIntermidiateSharedNEdge@MeshComponent@@@std@@@std@@IAEXXZ 00550260 f i BevelE.obj
 0002:00077340       ?_Ufill@?$vector@UBevelEIntermidiateSharedNEdge@MeshComponent@@V?$allocator@UBevelEIntermidiateSharedNEdge@MeshComponent@@@std@@@std@@IAEPAUBevelEIntermidiateSharedNEdge@MeshComponent@@PAU34@IABU34@@Z 00550340 f i BevelE.obj
 0002:000773c0       ?_Orphan_range@?$vector@UBevelEIntermidiateSharedNEdge@MeshComponent@@V?$allocator@UBevelEIntermidiateSharedNEdge@MeshComponent@@@std@@@std@@IBEXPAUBevelEIntermidiateSharedNEdge@MeshComponent@@0@Z 005503c0 f i BevelE.obj
 0002:000774d0       ??0?$_Vector_val@UBevelEIntermidiateSharedNEdge@MeshComponent@@V?$allocator@UBevelEIntermidiateSharedNEdge@MeshComponent@@@std@@@std@@IAE@V?$allocator@UBevelEIntermidiateSharedNEdge@MeshComponent@@@1@@Z 005504d0 f i BevelE.obj
 0002:00077550       ??1?$_Container_base_aux_alloc_empty@V?$allocator@UBevelEIntermidiateSharedNEdge@MeshComponent@@@std@@@std@@IAE@XZ 00550550 f i BevelE.obj
 0002:000775b0       ??0?$allocator@UBevelEIntermidiateSharedNEdge@MeshComponent@@@std@@QAE@XZ 005505b0 f i BevelE.obj
 0002:000775f0       ?_Construct_n@?$vector@UBevelESharedNEdgeGroup@MeshComponent@@V?$allocator@UBevelESharedNEdgeGroup@MeshComponent@@@std@@@std@@QAEXIABUBevelESharedNEdgeGroup@MeshComponent@@@Z 005505f0 f i BevelE.obj
 0002:00077700       ?size@?$vector@UBevelESharedNEdgeGroup@MeshComponent@@V?$allocator@UBevelESharedNEdgeGroup@MeshComponent@@@std@@@std@@QBEIXZ 00550700 f i BevelE.obj
 0002:00077750       ?_Tidy@?$vector@UBevelESharedNEdgeGroup@MeshComponent@@V?$allocator@UBevelESharedNEdgeGroup@MeshComponent@@@std@@@std@@IAEXXZ 00550750 f i BevelE.obj
 0002:00077830       ??0?$_Vector_val@UBevelESharedNEdgeGroup@MeshComponent@@V?$allocator@UBevelESharedNEdgeGroup@MeshComponent@@@std@@@std@@IAE@V?$allocator@UBevelESharedNEdgeGroup@MeshComponent@@@1@@Z 00550830 f i BevelE.obj
 0002:000778b0       ??1?$_Container_base_aux_alloc_empty@V?$allocator@UBevelESharedNEdgeGroup@MeshComponent@@@std@@@std@@IAE@XZ 005508b0 f i BevelE.obj
 0002:00077910       ??0?$allocator@UBevelESharedNEdgeGroup@MeshComponent@@@std@@QAE@XZ 00550910 f i BevelE.obj
 0002:00077950       ?resize@?$vector@V?$vector@PAVHE_edge@@V?$allocator@PAVHE_edge@@@std@@@std@@V?$allocator@V?$vector@PAVHE_edge@@V?$allocator@PAVHE_edge@@@std@@@std@@@2@@std@@QAEXIV?$vector@PAVHE_edge@@V?$allocator@PAVHE_edge@@@std@@@2@@Z 00550950 f i BevelE.obj
 0002:00077bf0       ?size@?$vector@V?$vector@PAVHE_edge@@V?$allocator@PAVHE_edge@@@std@@@std@@V?$allocator@V?$vector@PAVHE_edge@@V?$allocator@PAVHE_edge@@@std@@@std@@@2@@std@@QBEIXZ 00550bf0 f i BevelE.obj
 0002:00077c40       ?_Buy@?$vector@V?$vector@PAVHE_edge@@V?$allocator@PAVHE_edge@@@std@@@std@@V?$allocator@V?$vector@PAVHE_edge@@V?$allocator@PAVHE_edge@@@std@@@std@@@2@@std@@IAE_NI@Z 00550c40 f i BevelE.obj
 0002:00077d20       ?_Tidy@?$vector@V?$vector@PAVHE_edge@@V?$allocator@PAVHE_edge@@@std@@@std@@V?$allocator@V?$vector@PAVHE_edge@@V?$allocator@PAVHE_edge@@@std@@@std@@@2@@std@@IAEXXZ 00550d20 f i BevelE.obj
 0002:00077e00       ??0?$_Vector_val@V?$vector@PAVHE_edge@@V?$allocator@PAVHE_edge@@@std@@@std@@V?$allocator@V?$vector@PAVHE_edge@@V?$allocator@PAVHE_edge@@@std@@@std@@@2@@std@@IAE@V?$allocator@V?$vector@PAVHE_edge@@V?$allocator@PAVHE_edge@@@std@@@std@@@1@@Z 00550e00 f i BevelE.obj
 0002:00077e80       ??1?$_Container_base_aux_alloc_empty@V?$allocator@V?$vector@PAVHE_edge@@V?$allocator@PAVHE_edge@@@std@@@std@@@std@@@std@@IAE@XZ 00550e80 f i BevelE.obj
 0002:00077ee0       ??0?$allocator@V?$vector@PAVHE_edge@@V?$allocator@PAVHE_edge@@@std@@@std@@@std@@QAE@XZ 00550ee0 f i BevelE.obj
 0002:00077f20       ??1?$_Vector_iterator@V?$vector@PAVHE_edge@@V?$allocator@PAVHE_edge@@@std@@@std@@V?$allocator@V?$vector@PAVHE_edge@@V?$allocator@PAVHE_edge@@@std@@@std@@@2@@std@@QAE@XZ 00550f20 f i BevelE.obj
 0002:00077f70       ??0?$_Vector_const_iterator@V?$vector@PAVHE_edge@@V?$allocator@PAVHE_edge@@@std@@@std@@V?$allocator@V?$vector@PAVHE_edge@@V?$allocator@PAVHE_edge@@@std@@@std@@@2@@std@@QAE@ABV01@@Z 00550f70 f i BevelE.obj
 0002:00077fe0       ??1?$_Vector_const_iterator@V?$vector@PAVHE_edge@@V?$allocator@PAVHE_edge@@@std@@@std@@V?$allocator@V?$vector@PAVHE_edge@@V?$allocator@PAVHE_edge@@@std@@@std@@@2@@std@@QAE@XZ 00550fe0 f i BevelE.obj
 0002:00078030       ??0?$_Ranit@V?$vector@PAVHE_edge@@V?$allocator@PAVHE_edge@@@std@@@std@@HPBV12@ABV12@@std@@QAE@ABU01@@Z 00551030 f i BevelE.obj
 0002:00078090       ??1?$_Ranit@V?$vector@PAVHE_edge@@V?$allocator@PAVHE_edge@@@std@@@std@@HPBV12@ABV12@@std@@QAE@XZ 00551090 f i BevelE.obj
 0002:000780e0       ??0?$_Iterator_with_base@Urandom_access_iterator_tag@std@@V?$vector@PAVHE_edge@@V?$allocator@PAVHE_edge@@@std@@@2@HPBV32@ABV32@V_Iterator_base@2@@std@@QAE@ABU01@@Z 005510e0 f i BevelE.obj
 0002:00078140       ??1?$_Iterator_with_base@Urandom_access_iterator_tag@std@@V?$vector@PAVHE_edge@@V?$allocator@PAVHE_edge@@@std@@@2@HPBV32@ABV32@V_Iterator_base@2@@std@@QAE@XZ 00551140 f i BevelE.obj
 0002:00078190       ?_Ufill@?$vector@HV?$allocator@H@std@@@std@@IAEPAHPAHIABH@Z 00551190 f i BevelE.obj
 0002:00078210       ?_Insert_n@?$vector@UD3DXVECTOR3@@V?$allocator@UD3DXVECTOR3@@@std@@@std@@IAEXV?$_Vector_const_iterator@UD3DXVECTOR3@@V?$allocator@UD3DXVECTOR3@@@std@@@2@IABUD3DXVECTOR3@@@Z 00551210 f i BevelE.obj
 0002:000787b0       ?_Insert_n@?$vector@PAVHE_vert@@V?$allocator@PAVHE_vert@@@std@@@std@@IAEXV?$_Vector_const_iterator@PAVHE_vert@@V?$allocator@PAVHE_vert@@@std@@@2@IABQAVHE_vert@@@Z 005517b0 f i BevelE.obj
 0002:00078d10       ?begin@?$vector@PAVHE_edge@@V?$allocator@PAVHE_edge@@@std@@@std@@QAE?AV?$_Vector_iterator@PAVHE_edge@@V?$allocator@PAVHE_edge@@@std@@@2@XZ 00551d10 f i BevelE.obj
 0002:00078da0       ?max_size@?$vector@PAVHE_edge@@V?$allocator@PAVHE_edge@@@std@@@std@@QBEIXZ 00551da0 f i BevelE.obj
 0002:00078e00       ?erase@?$vector@PAVHE_edge@@V?$allocator@PAVHE_edge@@@std@@@std@@QAE?AV?$_Vector_iterator@PAVHE_edge@@V?$allocator@PAVHE_edge@@@std@@@2@V?$_Vector_const_iterator@PAVHE_edge@@V?$allocator@PAVHE_edge@@@std@@@2@0@Z 00551e00 f i BevelE.obj
 0002:000790a0       ?_Destroy@?$vector@PAVHE_edge@@V?$allocator@PAVHE_edge@@@std@@@std@@IAEXPAPAVHE_edge@@0@Z 005520a0 f i BevelE.obj
 0002:00079110       ?_Insert_n@?$vector@PAVHE_edge@@V?$allocator@PAVHE_edge@@@std@@@std@@IAEXV?$_Vector_const_iterator@PAVHE_edge@@V?$allocator@PAVHE_edge@@@std@@@2@IABQAVHE_edge@@@Z 00552110 f i BevelE.obj
 0002:00079670       ?_Xlen@?$vector@PAVHE_edge@@V?$allocator@PAVHE_edge@@@std@@@std@@KAXXZ 00552670 f i BevelE.obj
 0002:00079760       ??0?$_Container_base_aux_alloc_empty@V?$allocator@PAVHE_edge@@@std@@@std@@IAE@V?$allocator@PAVHE_edge@@@1@@Z 00552760 f i BevelE.obj
 0002:000797d0       ?deallocate@?$allocator@PAVHE_edge@@@std@@QAEXPAPAVHE_edge@@I@Z 005527d0 f i BevelE.obj
 0002:00079830       ?allocate@?$allocator@PAVHE_edge@@@std@@QAEPAPAVHE_edge@@I@Z 00552830 f i BevelE.obj
 0002:00079890       ?_Destroy@?$vector@V?$vector@HV?$allocator@H@std@@@std@@V?$allocator@V?$vector@HV?$allocator@H@std@@@std@@@2@@std@@IAEXPAV?$vector@HV?$allocator@H@std@@@2@0@Z 00552890 f i BevelE.obj
 0002:00079900       ?deallocate@?$allocator@V?$vector@HV?$allocator@H@std@@@std@@@std@@QAEXPAV?$vector@HV?$allocator@H@std@@@2@I@Z 00552900 f i BevelE.obj
 0002:00079960       ?_Buy@?$vector@UEdgeBevelE@?3??bevelEStart@MeshComponent@@QAE?AUBevelEInfo@ObjEd@@AAV?$vector@USelection@ObjEd@@V?$allocator@USelection@ObjEd@@@std@@@std@@@Z@V?$allocator@UEdgeBevelE@?3??bevelEStart@MeshComponent@@QAE?AUBevelEInfo@ObjEd@@AAV?$vector@USelection@ObjEd@@V?$allocator@USelection@ObjEd@@@std@@@std@@@Z@@7@@std@@IAE_NI@Z 00552960 f i BevelE.obj
 0002:00079a40       ?_Destroy@?$vector@UEdgeBevelE@?3??bevelEStart@MeshComponent@@QAE?AUBevelEInfo@ObjEd@@AAV?$vector@USelection@ObjEd@@V?$allocator@USelection@ObjEd@@@std@@@std@@@Z@V?$allocator@UEdgeBevelE@?3??bevelEStart@MeshComponent@@QAE?AUBevelEInfo@ObjEd@@AAV?$vector@USelection@ObjEd@@V?$allocator@USelection@ObjEd@@@std@@@std@@@Z@@7@@std@@IAEXPAUEdgeBevelE@?3??bevelEStart@MeshComponent@@QAE?AUBevelEInfo@ObjEd@@AAV?$vector@USelection@ObjEd@@V?$allocator@USelection@ObjEd@@@std@@@2@@Z@1@Z 00552a40 f i BevelE.obj
 0002:00079ab0       ?_Ufill@?$vector@UEdgeBevelE@?3??bevelEStart@MeshComponent@@QAE?AUBevelEInfo@ObjEd@@AAV?$vector@USelection@ObjEd@@V?$allocator@USelection@ObjEd@@@std@@@std@@@Z@V?$allocator@UEdgeBevelE@?3??bevelEStart@MeshComponent@@QAE?AUBevelEInfo@ObjEd@@AAV?$vector@USelection@ObjEd@@V?$allocator@USelection@ObjEd@@@std@@@std@@@Z@@7@@std@@IAEPAUEdgeBevelE@?3??bevelEStart@MeshComponent@@QAE?AUBevelEInfo@ObjEd@@AAV?$vector@USelection@ObjEd@@V?$allocator@USelection@ObjEd@@@std@@@2@@Z@PAU3?3??45@QAE?AU67@0@Z@IABU3?3??45@QAE?AU67@0@Z@@Z 00552ab0 f i BevelE.obj
 0002:00079b30       ??0?$_Container_base_aux_alloc_empty@V?$allocator@UEdgeBevelE@?3??bevelEStart@MeshComponent@@QAE?AUBevelEInfo@ObjEd@@AAV?$vector@USelection@ObjEd@@V?$allocator@USelection@ObjEd@@@std@@@std@@@Z@@std@@@std@@IAE@V?$allocator@UEdgeBevelE@?3??bevelEStart@MeshComponent@@QAE?AUBevelEInfo@ObjEd@@AAV?$vector@USelection@ObjEd@@V?$allocator@USelection@ObjEd@@@std@@@std@@@Z@@1@@Z 00552b30 f i BevelE.obj
 0002:00079ba0       ??0?$allocator@UEdgeBevelE@?3??bevelEStart@MeshComponent@@QAE?AUBevelEInfo@ObjEd@@AAV?$vector@USelection@ObjEd@@V?$allocator@USelection@ObjEd@@@std@@@std@@@Z@@std@@QAE@ABV01@@Z 00552ba0 f i BevelE.obj
 0002:00079be0       ?deallocate@?$allocator@UEdgeBevelE@?3??bevelEStart@MeshComponent@@QAE?AUBevelEInfo@ObjEd@@AAV?$vector@USelection@ObjEd@@V?$allocator@USelection@ObjEd@@@std@@@std@@@Z@@std@@QAEXPAUEdgeBevelE@?3??bevelEStart@MeshComponent@@QAE?AUBevelEInfo@ObjEd@@AAV?$vector@USelection@ObjEd@@V?$allocator@USelection@ObjEd@@@std@@@2@@Z@I@Z 00552be0 f i BevelE.obj
 0002:00079c40       ?begin@?$vector@UBevelEIntermidiateSharedNEdge@MeshComponent@@V?$allocator@UBevelEIntermidiateSharedNEdge@MeshComponent@@@std@@@std@@QAE?AV?$_Vector_iterator@UBevelEIntermidiateSharedNEdge@MeshComponent@@V?$allocator@UBevelEIntermidiateSharedNEdge@MeshComponent@@@std@@@2@XZ 00552c40 f i BevelE.obj
 0002:00079cd0       ?max_size@?$vector@UBevelEIntermidiateSharedNEdge@MeshComponent@@V?$allocator@UBevelEIntermidiateSharedNEdge@MeshComponent@@@std@@@std@@QBEIXZ 00552cd0 f i BevelE.obj
 0002:00079d30       ?_Destroy@?$vector@UBevelEIntermidiateSharedNEdge@MeshComponent@@V?$allocator@UBevelEIntermidiateSharedNEdge@MeshComponent@@@std@@@std@@IAEXPAUBevelEIntermidiateSharedNEdge@MeshComponent@@0@Z 00552d30 f i BevelE.obj
 0002:00079da0       ?_Insert_n@?$vector@UBevelEIntermidiateSharedNEdge@MeshComponent@@V?$allocator@UBevelEIntermidiateSharedNEdge@MeshComponent@@@std@@@std@@IAEXV?$_Vector_const_iterator@UBevelEIntermidiateSharedNEdge@MeshComponent@@V?$allocator@UBevelEIntermidiateSharedNEdge@MeshComponent@@@std@@@2@IABUBevelEIntermidiateSharedNEdge@MeshComponent@@@Z 00552da0 f i BevelE.obj
 0002:0007a340       ?_Xlen@?$vector@UBevelEIntermidiateSharedNEdge@MeshComponent@@V?$allocator@UBevelEIntermidiateSharedNEdge@MeshComponent@@@std@@@std@@KAXXZ 00553340 f i BevelE.obj
 0002:0007a430       ??0?$_Container_base_aux_alloc_empty@V?$allocator@UBevelEIntermidiateSharedNEdge@MeshComponent@@@std@@@std@@IAE@V?$allocator@UBevelEIntermidiateSharedNEdge@MeshComponent@@@1@@Z 00553430 f i BevelE.obj
 0002:0007a4a0       ??0?$allocator@UBevelEIntermidiateSharedNEdge@MeshComponent@@@std@@QAE@ABV01@@Z 005534a0 f i BevelE.obj
 0002:0007a4e0       ?deallocate@?$allocator@UBevelEIntermidiateSharedNEdge@MeshComponent@@@std@@QAEXPAUBevelEIntermidiateSharedNEdge@MeshComponent@@I@Z 005534e0 f i BevelE.obj
 0002:0007a540       ?allocate@?$allocator@UBevelEIntermidiateSharedNEdge@MeshComponent@@@std@@QAEPAUBevelEIntermidiateSharedNEdge@MeshComponent@@I@Z 00553540 f i BevelE.obj
 0002:0007a5a0       ?_Buy@?$vector@UBevelESharedNEdgeGroup@MeshComponent@@V?$allocator@UBevelESharedNEdgeGroup@MeshComponent@@@std@@@std@@IAE_NI@Z 005535a0 f i BevelE.obj
 0002:0007a680       ?_Destroy@?$vector@UBevelESharedNEdgeGroup@MeshComponent@@V?$allocator@UBevelESharedNEdgeGroup@MeshComponent@@@std@@@std@@IAEXPAUBevelESharedNEdgeGroup@MeshComponent@@0@Z 00553680 f i BevelE.obj
 0002:0007a6f0       ?_Ufill@?$vector@UBevelESharedNEdgeGroup@MeshComponent@@V?$allocator@UBevelESharedNEdgeGroup@MeshComponent@@@std@@@std@@IAEPAUBevelESharedNEdgeGroup@MeshComponent@@PAU34@IABU34@@Z 005536f0 f i BevelE.obj
 0002:0007a770       ??0?$_Container_base_aux_alloc_empty@V?$allocator@UBevelESharedNEdgeGroup@MeshComponent@@@std@@@std@@IAE@V?$allocator@UBevelESharedNEdgeGroup@MeshComponent@@@1@@Z 00553770 f i BevelE.obj
 0002:0007a7e0       ??0?$allocator@UBevelESharedNEdgeGroup@MeshComponent@@@std@@QAE@ABV01@@Z 005537e0 f i BevelE.obj
 0002:0007a820       ?deallocate@?$allocator@UBevelESharedNEdgeGroup@MeshComponent@@@std@@QAEXPAUBevelESharedNEdgeGroup@MeshComponent@@I@Z 00553820 f i BevelE.obj
 0002:0007a880       ?begin@?$vector@V?$vector@PAVHE_edge@@V?$allocator@PAVHE_edge@@@std@@@std@@V?$allocator@V?$vector@PAVHE_edge@@V?$allocator@PAVHE_edge@@@std@@@std@@@2@@std@@QAE?AV?$_Vector_iterator@V?$vector@PAVHE_edge@@V?$allocator@PAVHE_edge@@@std@@@std@@V?$allocator@V?$vector@PAVHE_edge@@V?$allocator@PAVHE_edge@@@std@@@std@@@2@@2@XZ 00553880 f i BevelE.obj
 0002:0007a910       ?end@?$vector@V?$vector@PAVHE_edge@@V?$allocator@PAVHE_edge@@@std@@@std@@V?$allocator@V?$vector@PAVHE_edge@@V?$allocator@PAVHE_edge@@@std@@@std@@@2@@std@@QAE?AV?$_Vector_iterator@V?$vector@PAVHE_edge@@V?$allocator@PAVHE_edge@@@std@@@std@@V?$allocator@V?$vector@PAVHE_edge@@V?$allocator@PAVHE_edge@@@std@@@std@@@2@@2@XZ 00553910 f i BevelE.obj
 0002:0007a9a0       ?max_size@?$vector@V?$vector@PAVHE_edge@@V?$allocator@PAVHE_edge@@@std@@@std@@V?$allocator@V?$vector@PAVHE_edge@@V?$allocator@PAVHE_edge@@@std@@@std@@@2@@std@@QBEIXZ 005539a0 f i BevelE.obj
 0002:0007aa00       ?erase@?$vector@V?$vector@PAVHE_edge@@V?$allocator@PAVHE_edge@@@std@@@std@@V?$allocator@V?$vector@PAVHE_edge@@V?$allocator@PAVHE_edge@@@std@@@std@@@2@@std@@QAE?AV?$_Vector_iterator@V?$vector@PAVHE_edge@@V?$allocator@PAVHE_edge@@@std@@@std@@V?$allocator@V?$vector@PAVHE_edge@@V?$allocator@PAVHE_edge@@@std@@@std@@@2@@2@V?$_Vector_const_iterator@V?$vector@PAVHE_edge@@V?$allocator@PAVHE_edge@@@std@@@std@@V?$allocator@V?$vector@PAVHE_edge@@V?$allocator@PAVHE_edge@@@std@@@std@@@2@@2@0@Z 00553a00 f i BevelE.obj
 0002:0007aca0       ?_Destroy@?$vector@V?$vector@PAVHE_edge@@V?$allocator@PAVHE_edge@@@std@@@std@@V?$allocator@V?$vector@PAVHE_edge@@V?$allocator@PAVHE_edge@@@std@@@std@@@2@@std@@IAEXPAV?$vector@PAVHE_edge@@V?$allocator@PAVHE_edge@@@std@@@2@0@Z 00553ca0 f i BevelE.obj
 0002:0007ad10       ?_Insert_n@?$vector@V?$vector@PAVHE_edge@@V?$allocator@PAVHE_edge@@@std@@@std@@V?$allocator@V?$vector@PAVHE_edge@@V?$allocator@PAVHE_edge@@@std@@@std@@@2@@std@@IAEXV?$_Vector_const_iterator@V?$vector@PAVHE_edge@@V?$allocator@PAVHE_edge@@@std@@@std@@V?$allocator@V?$vector@PAVHE_edge@@V?$allocator@PAVHE_edge@@@std@@@std@@@2@@2@IABV?$vector@PAVHE_edge@@V?$allocator@PAVHE_edge@@@std@@@2@@Z 00553d10 f i BevelE.obj
 0002:0007b2c0       ??0?$vector@PAVHE_edge@@V?$allocator@PAVHE_edge@@@std@@@std@@QAE@ABV01@@Z 005542c0 f i BevelE.obj
 0002:0007b460       ?begin@?$vector@PAVHE_edge@@V?$allocator@PAVHE_edge@@@std@@@std@@QBE?AV?$_Vector_const_iterator@PAVHE_edge@@V?$allocator@PAVHE_edge@@@std@@@2@XZ 00554460 f i BevelE.obj
 0002:0007b4f0       ?end@?$vector@PAVHE_edge@@V?$allocator@PAVHE_edge@@@std@@@std@@QBE?AV?$_Vector_const_iterator@PAVHE_edge@@V?$allocator@PAVHE_edge@@@std@@@2@XZ 005544f0 f i BevelE.obj
 0002:0007b580       ?_Xlen@?$vector@V?$vector@PAVHE_edge@@V?$allocator@PAVHE_edge@@@std@@@std@@V?$allocator@V?$vector@PAVHE_edge@@V?$allocator@PAVHE_edge@@@std@@@std@@@2@@std@@KAXXZ 00554580 f i BevelE.obj
 0002:0007b670       ??0?$_Container_base_aux_alloc_empty@V?$allocator@V?$vector@PAVHE_edge@@V?$allocator@PAVHE_edge@@@std@@@std@@@std@@@std@@IAE@V?$allocator@V?$vector@PAVHE_edge@@V?$allocator@PAVHE_edge@@@std@@@std@@@1@@Z 00554670 f i BevelE.obj
 0002:0007b6e0       ??0?$allocator@V?$vector@PAVHE_edge@@V?$allocator@PAVHE_edge@@@std@@@std@@@std@@QAE@ABV01@@Z 005546e0 f i BevelE.obj
 0002:0007b720       ?deallocate@?$allocator@V?$vector@PAVHE_edge@@V?$allocator@PAVHE_edge@@@std@@@std@@@std@@QAEXPAV?$vector@PAVHE_edge@@V?$allocator@PAVHE_edge@@@std@@@2@I@Z 00554720 f i BevelE.obj
 0002:0007b780       ?allocate@?$allocator@V?$vector@PAVHE_edge@@V?$allocator@PAVHE_edge@@@std@@@std@@@std@@QAEPAV?$vector@PAVHE_edge@@V?$allocator@PAVHE_edge@@@std@@@2@I@Z 00554780 f i BevelE.obj
 0002:0007b7e0       ??G?$_Vector_const_iterator@UD3DXVECTOR3@@V?$allocator@UD3DXVECTOR3@@@std@@@std@@QBEHABV01@@Z 005547e0 f i BevelE.obj
 0002:0007b850       ??H?$_Vector_iterator@UD3DXVECTOR3@@V?$allocator@UD3DXVECTOR3@@@std@@@std@@QBE?AV01@H@Z 00554850 f i BevelE.obj
 0002:0007b970       ??H?$_Vector_iterator@PAVHE_vert@@V?$allocator@PAVHE_vert@@@std@@@std@@QBE?AV01@H@Z 00554970 f i BevelE.obj
 0002:0007ba90       ??0?$_Vector_const_iterator@PAVHE_edge@@V?$allocator@PAVHE_edge@@@std@@@std@@QAE@PAPAVHE_edge@@PBV_Container_base_secure@1@@Z 00554a90 f i BevelE.obj
 0002:0007bbe0       ??G?$_Vector_const_iterator@PAVHE_edge@@V?$allocator@PAVHE_edge@@@std@@@std@@QBEHABV01@@Z 00554be0 f i BevelE.obj
 0002:0007bc50       ??0?$_Vector_iterator@PAVHE_edge@@V?$allocator@PAVHE_edge@@@std@@@std@@QAE@PAPAVHE_edge@@PBV_Container_base_secure@1@@Z 00554c50 f i BevelE.obj
 0002:0007bcb0       ??H?$_Vector_iterator@PAVHE_edge@@V?$allocator@PAVHE_edge@@@std@@@std@@QBE?AV01@H@Z 00554cb0 f i BevelE.obj
 0002:0007bdd0       ??0?$_Vector_iterator@UBevelEIntermidiateSharedNEdge@MeshComponent@@V?$allocator@UBevelEIntermidiateSharedNEdge@MeshComponent@@@std@@@std@@QAE@PAUBevelEIntermidiateSharedNEdge@MeshComponent@@PBV_Container_base_secure@1@@Z 00554dd0 f i BevelE.obj
 0002:0007be30       ??H?$_Vector_iterator@UBevelEIntermidiateSharedNEdge@MeshComponent@@V?$allocator@UBevelEIntermidiateSharedNEdge@MeshComponent@@@std@@@std@@QBE?AV01@H@Z 00554e30 f i BevelE.obj
 0002:0007bf50       ??G?$_Vector_const_iterator@UBevelEIntermidiateSharedNEdge@MeshComponent@@V?$allocator@UBevelEIntermidiateSharedNEdge@MeshComponent@@@std@@@std@@QBEHABV01@@Z 00554f50 f i BevelE.obj
 0002:0007bfc0       ??H?$_Vector_iterator@V?$vector@PAVHE_edge@@V?$allocator@PAVHE_edge@@@std@@@std@@V?$allocator@V?$vector@PAVHE_edge@@V?$allocator@PAVHE_edge@@@std@@@std@@@2@@std@@QBE?AV01@H@Z 00554fc0 f i BevelE.obj
 0002:0007c0e0       ??0?$_Vector_iterator@UD3DXVECTOR3@@V?$allocator@UD3DXVECTOR3@@@std@@@std@@QAE@ABV01@@Z 005550e0 f i BevelE.obj
 0002:0007c140       ??0?$_Vector_iterator@PAVHE_vert@@V?$allocator@PAVHE_vert@@@std@@@std@@QAE@ABV01@@Z 00555140 f i BevelE.obj
 0002:0007c1a0       ??0?$_Ranit@PAVHE_edge@@HPBQAV1@ABQAV1@@std@@QAE@XZ 005551a0 f i BevelE.obj
 0002:0007c200       ??0?$_Vector_iterator@PAVHE_edge@@V?$allocator@PAVHE_edge@@@std@@@std@@QAE@ABV01@@Z 00555200 f i BevelE.obj
 0002:0007c260       ??0?$_Vector_iterator@UBevelEIntermidiateSharedNEdge@MeshComponent@@V?$allocator@UBevelEIntermidiateSharedNEdge@MeshComponent@@@std@@@std@@QAE@ABV01@@Z 00555260 f i BevelE.obj
 0002:0007c2c0       ??0?$_Vector_iterator@V?$vector@PAVHE_edge@@V?$allocator@PAVHE_edge@@@std@@@std@@V?$allocator@V?$vector@PAVHE_edge@@V?$allocator@PAVHE_edge@@@std@@@std@@@2@@std@@QAE@ABV01@@Z 005552c0 f i BevelE.obj
 0002:0007c320       ??0?$_Iterator_with_base@Urandom_access_iterator_tag@std@@PAVHE_edge@@HPBQAV3@ABQAV3@V_Iterator_base@2@@std@@QAE@XZ 00555320 f i BevelE.obj
 0002:0007c380       ?_Make_iter@?$vector@PAVHE_edge@@V?$allocator@PAVHE_edge@@@std@@@std@@QBE?AV?$_Vector_iterator@PAVHE_edge@@V?$allocator@PAVHE_edge@@@std@@@2@V?$_Vector_const_iterator@PAVHE_edge@@V?$allocator@PAVHE_edge@@@std@@@2@@Z 00555380 f i BevelE.obj
 0002:0007c450       ?max_size@?$allocator@PAVHE_edge@@@std@@QBEIXZ 00555450 f i BevelE.obj
 0002:0007c4c0       ?max_size@?$vector@UEdgeBevelE@?3??bevelEStart@MeshComponent@@QAE?AUBevelEInfo@ObjEd@@AAV?$vector@USelection@ObjEd@@V?$allocator@USelection@ObjEd@@@std@@@std@@@Z@V?$allocator@UEdgeBevelE@?3??bevelEStart@MeshComponent@@QAE?AUBevelEInfo@ObjEd@@AAV?$vector@USelection@ObjEd@@V?$allocator@USelection@ObjEd@@@std@@@std@@@Z@@7@@std@@QBEIXZ 005554c0 f i BevelE.obj
 0002:0007c520       ?_Xlen@?$vector@UEdgeBevelE@?3??bevelEStart@MeshComponent@@QAE?AUBevelEInfo@ObjEd@@AAV?$vector@USelection@ObjEd@@V?$allocator@USelection@ObjEd@@@std@@@std@@@Z@V?$allocator@UEdgeBevelE@?3??bevelEStart@MeshComponent@@QAE?AUBevelEInfo@ObjEd@@AAV?$vector@USelection@ObjEd@@V?$allocator@USelection@ObjEd@@@std@@@std@@@Z@@7@@std@@KAXXZ 00555520 f i BevelE.obj
 0002:0007c610       ?allocate@?$allocator@UEdgeBevelE@?3??bevelEStart@MeshComponent@@QAE?AUBevelEInfo@ObjEd@@AAV?$vector@USelection@ObjEd@@V?$allocator@USelection@ObjEd@@@std@@@std@@@Z@@std@@QAEPAUEdgeBevelE@?3??bevelEStart@MeshComponent@@QAE?AUBevelEInfo@ObjEd@@AAV?$vector@USelection@ObjEd@@V?$allocator@USelection@ObjEd@@@std@@@2@@Z@I@Z 00555610 f i BevelE.obj
 0002:0007c670       ?max_size@?$allocator@UBevelEIntermidiateSharedNEdge@MeshComponent@@@std@@QBEIXZ 00555670 f i BevelE.obj
 0002:0007c6e0       ?max_size@?$vector@UBevelESharedNEdgeGroup@MeshComponent@@V?$allocator@UBevelESharedNEdgeGroup@MeshComponent@@@std@@@std@@QBEIXZ 005556e0 f i BevelE.obj
 0002:0007c740       ?_Xlen@?$vector@UBevelESharedNEdgeGroup@MeshComponent@@V?$allocator@UBevelESharedNEdgeGroup@MeshComponent@@@std@@@std@@KAXXZ 00555740 f i BevelE.obj
 0002:0007c830       ?allocate@?$allocator@UBevelESharedNEdgeGroup@MeshComponent@@@std@@QAEPAUBevelESharedNEdgeGroup@MeshComponent@@I@Z 00555830 f i BevelE.obj
 0002:0007c890       ?capacity@?$vector@V?$vector@PAVHE_edge@@V?$allocator@PAVHE_edge@@@std@@@std@@V?$allocator@V?$vector@PAVHE_edge@@V?$allocator@PAVHE_edge@@@std@@@std@@@2@@std@@QBEIXZ 00555890 f i BevelE.obj
 0002:0007c910       ?_Make_iter@?$vector@V?$vector@PAVHE_edge@@V?$allocator@PAVHE_edge@@@std@@@std@@V?$allocator@V?$vector@PAVHE_edge@@V?$allocator@PAVHE_edge@@@std@@@std@@@2@@std@@QBE?AV?$_Vector_iterator@V?$vector@PAVHE_edge@@V?$allocator@PAVHE_edge@@@std@@@std@@V?$allocator@V?$vector@PAVHE_edge@@V?$allocator@PAVHE_edge@@@std@@@std@@@2@@2@V?$_Vector_const_iterator@V?$vector@PAVHE_edge@@V?$allocator@PAVHE_edge@@@std@@@std@@V?$allocator@V?$vector@PAVHE_edge@@V?$allocator@PAVHE_edge@@@std@@@std@@@2@@2@@Z 00555910 f i BevelE.obj
 0002:0007c9e0       ?_Ufill@?$vector@V?$vector@PAVHE_edge@@V?$allocator@PAVHE_edge@@@std@@@std@@V?$allocator@V?$vector@PAVHE_edge@@V?$allocator@PAVHE_edge@@@std@@@std@@@2@@std@@IAEPAV?$vector@PAVHE_edge@@V?$allocator@PAVHE_edge@@@std@@@2@PAV32@IABV32@@Z 005559e0 f i BevelE.obj
 0002:0007ca60       ?_Orphan_range@?$vector@V?$vector@PAVHE_edge@@V?$allocator@PAVHE_edge@@@std@@@std@@V?$allocator@V?$vector@PAVHE_edge@@V?$allocator@PAVHE_edge@@@std@@@std@@@2@@std@@IBEXPAV?$vector@PAVHE_edge@@V?$allocator@PAVHE_edge@@@std@@@2@0@Z 00555a60 f i BevelE.obj
 0002:0007cb70       ?max_size@?$allocator@V?$vector@PAVHE_edge@@V?$allocator@PAVHE_edge@@@std@@@std@@@std@@QBEIXZ 00555b70 f i BevelE.obj
 0002:0007cbe0       ??Y?$_Vector_iterator@UD3DXVECTOR3@@V?$allocator@UD3DXVECTOR3@@@std@@@std@@QAEAAV01@H@Z 00555be0 f i BevelE.obj
 0002:0007cc40       ??Y?$_Vector_iterator@PAVHE_vert@@V?$allocator@PAVHE_vert@@@std@@@std@@QAEAAV01@H@Z 00555c40 f i BevelE.obj
 0002:0007cca0       ??9?$_Vector_const_iterator@PAVHE_edge@@V?$allocator@PAVHE_edge@@@std@@@std@@QBE_NABV01@@Z 00555ca0 f i BevelE.obj
 0002:0007cd10       ??M?$_Vector_const_iterator@PAVHE_edge@@V?$allocator@PAVHE_edge@@@std@@@std@@QBE_NABV01@@Z 00555d10 f i BevelE.obj
 0002:0007cd80       ?_Compat@?$_Vector_const_iterator@PAVHE_edge@@V?$allocator@PAVHE_edge@@@std@@@std@@QBEXABV12@@Z 00555d80 f i BevelE.obj
 0002:0007ce80       ??Y?$_Vector_iterator@PAVHE_edge@@V?$allocator@PAVHE_edge@@@std@@@std@@QAEAAV01@H@Z 00555e80 f i BevelE.obj
 0002:0007cee0       ??Y?$_Vector_iterator@UBevelEIntermidiateSharedNEdge@MeshComponent@@V?$allocator@UBevelEIntermidiateSharedNEdge@MeshComponent@@@std@@@std@@QAEAAV01@H@Z 00555ee0 f i BevelE.obj
 0002:0007cf40       ??0?$_Vector_const_iterator@UBevelEIntermidiateSharedNEdge@MeshComponent@@V?$allocator@UBevelEIntermidiateSharedNEdge@MeshComponent@@@std@@@std@@QAE@PAUBevelEIntermidiateSharedNEdge@MeshComponent@@PBV_Container_base_secure@1@@Z 00555f40 f i BevelE.obj
 0002:0007d090       ?_Compat@?$_Vector_const_iterator@UBevelEIntermidiateSharedNEdge@MeshComponent@@V?$allocator@UBevelEIntermidiateSharedNEdge@MeshComponent@@@std@@@std@@QBEXABV12@@Z 00556090 f i BevelE.obj
 0002:0007d190       ??0?$_Vector_iterator@V?$vector@PAVHE_edge@@V?$allocator@PAVHE_edge@@@std@@@std@@V?$allocator@V?$vector@PAVHE_edge@@V?$allocator@PAVHE_edge@@@std@@@std@@@2@@std@@QAE@PAV?$vector@PAVHE_edge@@V?$allocator@PAVHE_edge@@@std@@@1@PBV_Container_base_secure@1@@Z 00556190 f i BevelE.obj
 0002:0007d1f0       ??Y?$_Vector_iterator@V?$vector@PAVHE_edge@@V?$allocator@PAVHE_edge@@@std@@@std@@V?$allocator@V?$vector@PAVHE_edge@@V?$allocator@PAVHE_edge@@@std@@@std@@@2@@std@@QAEAAV01@H@Z 005561f0 f i BevelE.obj
 0002:0007d250       ??9?$_Vector_const_iterator@V?$vector@PAVHE_edge@@V?$allocator@PAVHE_edge@@@std@@@std@@V?$allocator@V?$vector@PAVHE_edge@@V?$allocator@PAVHE_edge@@@std@@@std@@@2@@std@@QBE_NABV01@@Z 00556250 f i BevelE.obj
 0002:0007d2c0       ??M?$_Vector_const_iterator@V?$vector@PAVHE_edge@@V?$allocator@PAVHE_edge@@@std@@@std@@V?$allocator@V?$vector@PAVHE_edge@@V?$allocator@PAVHE_edge@@@std@@@std@@@2@@std@@QBE_NABV01@@Z 005562c0 f i BevelE.obj
 0002:0007d330       ??0?$_Ranit@UBevelEIntermidiateSharedNEdge@MeshComponent@@HPBU12@ABU12@@std@@QAE@XZ 00556330 f i BevelE.obj
 0002:0007d390       ??0?$_Iterator_with_base@Urandom_access_iterator_tag@std@@UBevelEIntermidiateSharedNEdge@MeshComponent@@HPBU34@ABU34@V_Iterator_base@2@@std@@QAE@XZ 00556390 f i BevelE.obj
 0002:0007d3f0       ?max_size@?$allocator@UEdgeBevelE@?3??bevelEStart@MeshComponent@@QAE?AUBevelEInfo@ObjEd@@AAV?$vector@USelection@ObjEd@@V?$allocator@USelection@ObjEd@@@std@@@std@@@Z@@std@@QBEIXZ 005563f0 f i BevelE.obj
 0002:0007d460       ?max_size@?$allocator@UBevelESharedNEdgeGroup@MeshComponent@@@std@@QBEIXZ 00556460 f i BevelE.obj
 0002:0007d4d0       ??Y?$_Vector_const_iterator@UD3DXVECTOR3@@V?$allocator@UD3DXVECTOR3@@@std@@@std@@QAEAAV01@H@Z 005564d0 f i BevelE.obj
 0002:0007d670       ??Y?$_Vector_const_iterator@PAVHE_vert@@V?$allocator@PAVHE_vert@@@std@@@std@@QAEAAV01@H@Z 00556670 f i BevelE.obj
 0002:0007d810       ??Y?$_Vector_const_iterator@PAVHE_edge@@V?$allocator@PAVHE_edge@@@std@@@std@@QAEAAV01@H@Z 00556810 f i BevelE.obj
 0002:0007d9b0       ??8?$_Vector_const_iterator@PAVHE_edge@@V?$allocator@PAVHE_edge@@@std@@@std@@QBE_NABV01@@Z 005569b0 f i BevelE.obj
 0002:0007da20       ??Y?$_Vector_const_iterator@UBevelEIntermidiateSharedNEdge@MeshComponent@@V?$allocator@UBevelEIntermidiateSharedNEdge@MeshComponent@@@std@@@std@@QAEAAV01@H@Z 00556a20 f i BevelE.obj
 0002:0007dbc0       ??0?$_Vector_const_iterator@V?$vector@PAVHE_edge@@V?$allocator@PAVHE_edge@@@std@@@std@@V?$allocator@V?$vector@PAVHE_edge@@V?$allocator@PAVHE_edge@@@std@@@std@@@2@@std@@QAE@PAV?$vector@PAVHE_edge@@V?$allocator@PAVHE_edge@@@std@@@1@PBV_Container_base_secure@1@@Z 00556bc0 f i BevelE.obj
 0002:0007dd10       ??Y?$_Vector_const_iterator@V?$vector@PAVHE_edge@@V?$allocator@PAVHE_edge@@@std@@@std@@V?$allocator@V?$vector@PAVHE_edge@@V?$allocator@PAVHE_edge@@@std@@@std@@@2@@std@@QAEAAV01@H@Z 00556d10 f i BevelE.obj
 0002:0007deb0       ??8?$_Vector_const_iterator@V?$vector@PAVHE_edge@@V?$allocator@PAVHE_edge@@@std@@@std@@V?$allocator@V?$vector@PAVHE_edge@@V?$allocator@PAVHE_edge@@@std@@@std@@@2@@std@@QBE_NABV01@@Z 00556eb0 f i BevelE.obj
 0002:0007df20       ?_Compat@?$_Vector_const_iterator@V?$vector@PAVHE_edge@@V?$allocator@PAVHE_edge@@@std@@@std@@V?$allocator@V?$vector@PAVHE_edge@@V?$allocator@PAVHE_edge@@@std@@@std@@@2@@std@@QBEXABV12@@Z 00556f20 f i BevelE.obj
 0002:0007e020       ??0?$_Ranit@V?$vector@PAVHE_edge@@V?$allocator@PAVHE_edge@@@std@@@std@@HPBV12@ABV12@@std@@QAE@XZ 00557020 f i BevelE.obj
 0002:0007e080       ??0?$_Iterator_with_base@Urandom_access_iterator_tag@std@@V?$vector@PAVHE_edge@@V?$allocator@PAVHE_edge@@@std@@@2@HPBV32@ABV32@V_Iterator_base@2@@std@@QAE@XZ 00557080 f i BevelE.obj
 0002:0007e0e0       ??$_Ucopy@V?$_Vector_const_iterator@PAVHE_edge@@V?$allocator@PAVHE_edge@@@std@@@std@@@?$vector@PAVHE_edge@@V?$allocator@PAVHE_edge@@@std@@@std@@IAEPAPAVHE_edge@@V?$_Vector_const_iterator@PAVHE_edge@@V?$allocator@PAVHE_edge@@@std@@@1@0PAPAV2@@Z 005570e0 f i BevelE.obj
 0002:0007e220       ??$unchecked_uninitialized_fill_n@PAUD3DXVECTOR3@@IU1@V?$allocator@UD3DXVECTOR3@@@std@@@stdext@@YAXPAUD3DXVECTOR3@@IABU1@AAV?$allocator@UD3DXVECTOR3@@@std@@@Z 00557220 f i BevelE.obj
 0002:0007e2c0       ??$unchecked_uninitialized_fill_n@PAPAVHE_vert@@IPAV1@V?$allocator@PAVHE_vert@@@std@@@stdext@@YAXPAPAVHE_vert@@IABQAV1@AAV?$allocator@PAVHE_vert@@@std@@@Z 005572c0 f i BevelE.obj
 0002:0007e360       ??$unchecked_uninitialized_fill_n@PAPAVHE_edge@@IPAV1@V?$allocator@PAVHE_edge@@@std@@@stdext@@YAXPAPAVHE_edge@@IABQAV1@AAV?$allocator@PAVHE_edge@@@std@@@Z 00557360 f i BevelE.obj
 0002:0007e400       ??$unchecked_uninitialized_fill_n@PAUBevelEIntermidiateSharedNEdge@MeshComponent@@IU12@V?$allocator@UBevelEIntermidiateSharedNEdge@MeshComponent@@@std@@@stdext@@YAXPAUBevelEIntermidiateSharedNEdge@MeshComponent@@IABU12@AAV?$allocator@UBevelEIntermidiateSharedNEdge@MeshComponent@@@std@@@Z 00557400 f i BevelE.obj
 0002:0007e4a0       ??$unchecked_uninitialized_fill_n@PAHIHV?$allocator@H@std@@@stdext@@YAXPAHIABHAAV?$allocator@H@std@@@Z 005574a0 f i BevelE.obj
 0002:0007e540       ??$_Umove@PAUD3DXVECTOR3@@@?$vector@UD3DXVECTOR3@@V?$allocator@UD3DXVECTOR3@@@std@@@std@@IAEPAUD3DXVECTOR3@@PAU2@00@Z 00557540 f i BevelE.obj
 0002:0007e5b0       ??$fill@PAUD3DXVECTOR3@@U1@@std@@YAXPAUD3DXVECTOR3@@0ABU1@@Z 005575b0 f i BevelE.obj
 0002:0007e620       ??$_Unchecked_move_backward@PAUD3DXVECTOR3@@PAU1@@stdext@@YAPAUD3DXVECTOR3@@PAU1@00@Z 00557620 f i BevelE.obj
 0002:0007e6f0       ??$_Umove@PAPAVHE_vert@@@?$vector@PAVHE_vert@@V?$allocator@PAVHE_vert@@@std@@@std@@IAEPAPAVHE_vert@@PAPAV2@00@Z 005576f0 f i BevelE.obj
 0002:0007e760       ??$fill@PAPAVHE_vert@@PAV1@@std@@YAXPAPAVHE_vert@@0ABQAV1@@Z 00557760 f i BevelE.obj
 0002:0007e7d0       ??$_Unchecked_move_backward@PAPAVHE_vert@@PAPAV1@@stdext@@YAPAPAVHE_vert@@PAPAV1@00@Z 005577d0 f i BevelE.obj
 0002:0007e8a0       ??$unchecked_copy@PAPAVHE_edge@@PAPAV1@@stdext@@YAPAPAVHE_edge@@PAPAV1@00@Z 005578a0 f i BevelE.obj
 0002:0007e970       ??$_Destroy_range@V?$allocator@PAVHE_edge@@@std@@@std@@YAXPAPAVHE_edge@@0AAV?$allocator@PAVHE_edge@@@0@@Z 00557970 f i BevelE.obj
 0002:0007e9f0       ??$_Umove@PAPAVHE_edge@@@?$vector@PAVHE_edge@@V?$allocator@PAVHE_edge@@@std@@@std@@IAEPAPAVHE_edge@@PAPAV2@00@Z 005579f0 f i BevelE.obj
 0002:0007ea60       ??$fill@PAPAVHE_edge@@PAV1@@std@@YAXPAPAVHE_edge@@0ABQAV1@@Z 00557a60 f i BevelE.obj
 0002:0007ead0       ??$_Unchecked_move_backward@PAPAVHE_edge@@PAPAV1@@stdext@@YAPAPAVHE_edge@@PAPAV1@00@Z 00557ad0 f i BevelE.obj
 0002:0007eba0       ??$_Allocate@PAVHE_edge@@@std@@YAPAPAVHE_edge@@IPAPAV1@@Z 00557ba0 f i BevelE.obj
 0002:0007ec40       ??$_Destroy_range@V?$allocator@V?$vector@HV?$allocator@H@std@@@std@@@std@@@std@@YAXPAV?$vector@HV?$allocator@H@std@@@0@0AAV?$allocator@V?$vector@HV?$allocator@H@std@@@std@@@0@@Z 00557c40 f i BevelE.obj
 0002:0007ecc0       ??$_Destroy_range@V?$allocator@UEdgeBevelE@?3??bevelEStart@MeshComponent@@QAE?AUBevelEInfo@ObjEd@@AAV?$vector@USelection@ObjEd@@V?$allocator@USelection@ObjEd@@@std@@@std@@@Z@@std@@@std@@YAXPAUEdgeBevelE@?3??bevelEStart@MeshComponent@@QAE?AUBevelEInfo@ObjEd@@AAV?$vector@USelection@ObjEd@@V?$allocator@USelection@ObjEd@@@std@@@0@@Z@1AAV?$allocator@UEdgeBevelE@?3??bevelEStart@MeshComponent@@QAE?AUBevelEInfo@ObjEd@@AAV?$vector@USelection@ObjEd@@V?$allocator@USelection@ObjEd@@@std@@@std@@@Z@@0@@Z 00557cc0 f i BevelE.obj
 0002:0007ed40       ??$unchecked_uninitialized_fill_n@PAUEdgeBevelE@?3??bevelEStart@MeshComponent@@QAE?AUBevelEInfo@ObjEd@@AAV?$vector@USelection@ObjEd@@V?$allocator@USelection@ObjEd@@@std@@@std@@@Z@IU1?3??23@QAE?AU45@0@Z@V?$allocator@UEdgeBevelE@?3??bevelEStart@MeshComponent@@QAE?AUBevelEInfo@ObjEd@@AAV?$vector@USelection@ObjEd@@V?$allocator@USelection@ObjEd@@@std@@@std@@@Z@@7@@stdext@@YAXPAUEdgeBevelE@?3??bevelEStart@MeshComponent@@QAE?AUBevelEInfo@ObjEd@@AAV?$vector@USelection@ObjEd@@V?$allocator@USelection@ObjEd@@@std@@@std@@@Z@IABU1?3??23@QAE?AU45@0@Z@AAV?$allocator@UEdgeBevelE@?3??bevelEStart@MeshComponent@@QAE?AUBevelEInfo@ObjEd@@AAV?$vector@USelection@ObjEd@@V?$allocator@USelection@ObjEd@@@std@@@std@@@Z@@7@@Z 00557d40 f i BevelE.obj
 0002:0007ede0       ??$_Destroy_range@V?$allocator@UBevelEIntermidiateSharedNEdge@MeshComponent@@@std@@@std@@YAXPAUBevelEIntermidiateSharedNEdge@MeshComponent@@0AAV?$allocator@UBevelEIntermidiateSharedNEdge@MeshComponent@@@0@@Z 00557de0 f i BevelE.obj
 0002:0007ee60       ??$_Umove@PAUBevelEIntermidiateSharedNEdge@MeshComponent@@@?$vector@UBevelEIntermidiateSharedNEdge@MeshComponent@@V?$allocator@UBevelEIntermidiateSharedNEdge@MeshComponent@@@std@@@std@@IAEPAUBevelEIntermidiateSharedNEdge@MeshComponent@@PAU23@00@Z 00557e60 f i BevelE.obj
 0002:0007eed0       ??$fill@PAUBevelEIntermidiateSharedNEdge@MeshComponent@@U12@@std@@YAXPAUBevelEIntermidiateSharedNEdge@MeshComponent@@0ABU12@@Z 00557ed0 f i BevelE.obj
 0002:0007ef40       ??$_Unchecked_move_backward@PAUBevelEIntermidiateSharedNEdge@MeshComponent@@PAU12@@stdext@@YAPAUBevelEIntermidiateSharedNEdge@MeshComponent@@PAU12@00@Z 00557f40 f i BevelE.obj
 0002:0007f010       ??$_Allocate@UBevelEIntermidiateSharedNEdge@MeshComponent@@@std@@YAPAUBevelEIntermidiateSharedNEdge@MeshComponent@@IPAU12@@Z 00558010 f i BevelE.obj
 0002:0007f0b0       ??$_Destroy_range@V?$allocator@UBevelESharedNEdgeGroup@MeshComponent@@@std@@@std@@YAXPAUBevelESharedNEdgeGroup@MeshComponent@@0AAV?$allocator@UBevelESharedNEdgeGroup@MeshComponent@@@0@@Z 005580b0 f i BevelE.obj
 0002:0007f130       ??$unchecked_uninitialized_fill_n@PAUBevelESharedNEdgeGroup@MeshComponent@@IU12@V?$allocator@UBevelESharedNEdgeGroup@MeshComponent@@@std@@@stdext@@YAXPAUBevelESharedNEdgeGroup@MeshComponent@@IABU12@AAV?$allocator@UBevelESharedNEdgeGroup@MeshComponent@@@std@@@Z 00558130 f i BevelE.obj
 0002:0007f1d0       ??$unchecked_copy@PAV?$vector@PAVHE_edge@@V?$allocator@PAVHE_edge@@@std@@@std@@PAV12@@stdext@@YAPAV?$vector@PAVHE_edge@@V?$allocator@PAVHE_edge@@@std@@@std@@PAV12@00@Z 005581d0 f i BevelE.obj
 0002:0007f2a0       ??$_Destroy_range@V?$allocator@V?$vector@PAVHE_edge@@V?$allocator@PAVHE_edge@@@std@@@std@@@std@@@std@@YAXPAV?$vector@PAVHE_edge@@V?$allocator@PAVHE_edge@@@std@@@0@0AAV?$allocator@V?$vector@PAVHE_edge@@V?$allocator@PAVHE_edge@@@std@@@std@@@0@@Z 005582a0 f i BevelE.obj
 0002:0007f320       ??$_Umove@PAV?$vector@PAVHE_edge@@V?$allocator@PAVHE_edge@@@std@@@std@@@?$vector@V?$vector@PAVHE_edge@@V?$allocator@PAVHE_edge@@@std@@@std@@V?$allocator@V?$vector@PAVHE_edge@@V?$allocator@PAVHE_edge@@@std@@@std@@@2@@std@@IAEPAV?$vector@PAVHE_edge@@V?$allocator@PAVHE_edge@@@std@@@1@PAV21@00@Z 00558320 f i BevelE.obj
 0002:0007f390       ??$fill@PAV?$vector@PAVHE_edge@@V?$allocator@PAVHE_edge@@@std@@@std@@V12@@std@@YAXPAV?$vector@PAVHE_edge@@V?$allocator@PAVHE_edge@@@std@@@0@0ABV10@@Z 00558390 f i BevelE.obj
 0002:0007f400       ??$_Unchecked_move_backward@PAV?$vector@PAVHE_edge@@V?$allocator@PAVHE_edge@@@std@@@std@@PAV12@@stdext@@YAPAV?$vector@PAVHE_edge@@V?$allocator@PAVHE_edge@@@std@@@std@@PAV12@00@Z 00558400 f i BevelE.obj
 0002:0007f4d0       ??$_Allocate@V?$vector@PAVHE_edge@@V?$allocator@PAVHE_edge@@@std@@@std@@@std@@YAPAV?$vector@PAVHE_edge@@V?$allocator@PAVHE_edge@@@std@@@0@IPAV10@@Z 005584d0 f i BevelE.obj
 0002:0007f570       ??$_Allocate@UEdgeBevelE@?3??bevelEStart@MeshComponent@@QAE?AUBevelEInfo@ObjEd@@AAV?$vector@USelection@ObjEd@@V?$allocator@USelection@ObjEd@@@std@@@std@@@Z@@std@@YAPAUEdgeBevelE@?3??bevelEStart@MeshComponent@@QAE?AUBevelEInfo@ObjEd@@AAV?$vector@USelection@ObjEd@@V?$allocator@USelection@ObjEd@@@std@@@0@@Z@IPAU1?3??23@QAE?AU45@0@Z@@Z 00558570 f i BevelE.obj
 0002:0007f610       ??$_Allocate@UBevelESharedNEdgeGroup@MeshComponent@@@std@@YAPAUBevelESharedNEdgeGroup@MeshComponent@@IPAU12@@Z 00558610 f i BevelE.obj
 0002:0007f6b0       ??$unchecked_uninitialized_fill_n@PAV?$vector@PAVHE_edge@@V?$allocator@PAVHE_edge@@@std@@@std@@IV12@V?$allocator@V?$vector@PAVHE_edge@@V?$allocator@PAVHE_edge@@@std@@@std@@@2@@stdext@@YAXPAV?$vector@PAVHE_edge@@V?$allocator@PAVHE_edge@@@std@@@std@@IABV12@AAV?$allocator@V?$vector@PAVHE_edge@@V?$allocator@PAVHE_edge@@@std@@@std@@@2@@Z 005586b0 f i BevelE.obj
 0002:0007f750       ??$unchecked_uninitialized_copy@V?$_Vector_const_iterator@PAVHE_edge@@V?$allocator@PAVHE_edge@@@std@@@std@@PAPAVHE_edge@@V?$allocator@PAVHE_edge@@@2@@stdext@@YAPAPAVHE_edge@@V?$_Vector_const_iterator@PAVHE_edge@@V?$allocator@PAVHE_edge@@@std@@@std@@0PAPAV1@AAV?$allocator@PAVHE_edge@@@3@@Z 00558750 f i BevelE.obj
 0002:0007f8c0       ??$_Uninit_fill_n@PAUD3DXVECTOR3@@IU1@V?$allocator@UD3DXVECTOR3@@@std@@@std@@YAXPAUD3DXVECTOR3@@IABU1@AAV?$allocator@UD3DXVECTOR3@@@0@U_Nonscalar_ptr_iterator_tag@0@U_Range_checked_iterator_tag@0@@Z 005588c0 f i BevelE.obj
 0002:0007f9d0       ??$_Uninit_fill_n@PAPAVHE_vert@@IPAV1@V?$allocator@PAVHE_vert@@@std@@@std@@YAXPAPAVHE_vert@@IABQAV1@AAV?$allocator@PAVHE_vert@@@0@U_Scalar_ptr_iterator_tag@0@U_Range_checked_iterator_tag@0@@Z 005589d0 f i BevelE.obj
 0002:0007fa30       ??$_Ptr_cat@PAPAVHE_edge@@PAPAV1@@std@@YA?AU_Scalar_ptr_iterator_tag@0@AAPAPAVHE_edge@@0@Z 00558a30 f i BevelE.obj
 0002:0007faa0       ??$_Uninit_fill_n@PAPAVHE_edge@@IPAV1@V?$allocator@PAVHE_edge@@@std@@@std@@YAXPAPAVHE_edge@@IABQAV1@AAV?$allocator@PAVHE_edge@@@0@U_Scalar_ptr_iterator_tag@0@U_Range_checked_iterator_tag@0@@Z 00558aa0 f i BevelE.obj
 0002:0007fb00       ??$_Ptr_cat@PAUBevelEIntermidiateSharedNEdge@MeshComponent@@PAU12@@std@@YA?AU_Nonscalar_ptr_iterator_tag@0@AAPAUBevelEIntermidiateSharedNEdge@MeshComponent@@0@Z 00558b00 f i BevelE.obj
 0002:0007fb70       ??$_Uninit_fill_n@PAUBevelEIntermidiateSharedNEdge@MeshComponent@@IU12@V?$allocator@UBevelEIntermidiateSharedNEdge@MeshComponent@@@std@@@std@@YAXPAUBevelEIntermidiateSharedNEdge@MeshComponent@@IABU12@AAV?$allocator@UBevelEIntermidiateSharedNEdge@MeshComponent@@@0@U_Nonscalar_ptr_iterator_tag@0@U_Range_checked_iterator_tag@0@@Z 00558b70 f i BevelE.obj
 0002:0007fc80       ??$_Uninit_fill_n@PAHIHV?$allocator@H@std@@@std@@YAXPAHIABHAAV?$allocator@H@0@U_Scalar_ptr_iterator_tag@0@U_Range_checked_iterator_tag@0@@Z 00558c80 f i BevelE.obj
 0002:0007fce0       ??$_Unchecked_uninitialized_move@PAUD3DXVECTOR3@@PAU1@V?$allocator@UD3DXVECTOR3@@@std@@@stdext@@YAPAUD3DXVECTOR3@@PAU1@00AAV?$allocator@UD3DXVECTOR3@@@std@@@Z 00558ce0 f i BevelE.obj
 0002:0007fd90       ??$_Fill@PAUD3DXVECTOR3@@U1@@std@@YAXPAUD3DXVECTOR3@@0ABU1@@Z 00558d90 f i BevelE.obj
 0002:0007fe30       ??$_Move_cat@PAUD3DXVECTOR3@@@std@@YA?AU_Undefined_move_tag@0@ABQAUD3DXVECTOR3@@@Z 00558e30 f i BevelE.obj
 0002:0007fea0       ??$_Move_backward_opt@PAUD3DXVECTOR3@@PAU1@Urandom_access_iterator_tag@std@@U_Undefined_move_tag@3@@std@@YAPAUD3DXVECTOR3@@PAU1@00Urandom_access_iterator_tag@0@U_Undefined_move_tag@0@U_Range_checked_iterator_tag@0@@Z 00558ea0 f i BevelE.obj
 0002:0007ff40       ??$_Unchecked_uninitialized_move@PAPAVHE_vert@@PAPAV1@V?$allocator@PAVHE_vert@@@std@@@stdext@@YAPAPAVHE_vert@@PAPAV1@00AAV?$allocator@PAVHE_vert@@@std@@@Z 00558f40 f i BevelE.obj
 0002:0007fff0       ??$_Fill@PAPAVHE_vert@@PAV1@@std@@YAXPAPAVHE_vert@@0ABQAV1@@Z 00558ff0 f i BevelE.obj
 0002:00080080       ??$_Move_cat@PAPAVHE_vert@@@std@@YA?AU_Undefined_move_tag@0@ABQAPAVHE_vert@@@Z 00559080 f i BevelE.obj
 0002:000800f0       ??$_Move_backward_opt@PAPAVHE_vert@@PAPAV1@Urandom_access_iterator_tag@std@@U_Undefined_move_tag@3@@std@@YAPAPAVHE_vert@@PAPAV1@00Urandom_access_iterator_tag@0@U_Undefined_move_tag@0@U_Range_checked_iterator_tag@0@@Z 005590f0 f i BevelE.obj
 0002:00080190       ??$_Checked_base@PAPAVHE_edge@@@std@@YAPAPAVHE_edge@@AAPAPAV1@@Z 00559190 f i BevelE.obj
 0002:00080220       ??$_Iter_random@PAPAVHE_edge@@PAPAV1@@std@@YA?AUrandom_access_iterator_tag@0@ABQAPAVHE_edge@@0@Z 00559220 f i BevelE.obj
 0002:00080290       ??$_Copy_opt@PAPAVHE_edge@@PAPAV1@Urandom_access_iterator_tag@std@@@std@@YAPAPAVHE_edge@@PAPAV1@00Urandom_access_iterator_tag@0@U_Scalar_ptr_iterator_tag@0@U_Range_checked_iterator_tag@0@@Z 00559290 f i BevelE.obj
 0002:00080370       ??$_Destroy_range@V?$allocator@PAVHE_edge@@@std@@@std@@YAXPAPAVHE_edge@@0AAV?$allocator@PAVHE_edge@@@0@U_Scalar_ptr_iterator_tag@0@@Z 00559370 f i BevelE.obj
 0002:000803a0       ??$_Unchecked_uninitialized_move@PAPAVHE_edge@@PAPAV1@V?$allocator@PAVHE_edge@@@std@@@stdext@@YAPAPAVHE_edge@@PAPAV1@00AAV?$allocator@PAVHE_edge@@@std@@@Z 005593a0 f i BevelE.obj
 0002:00080450       ??$_Fill@PAPAVHE_edge@@PAV1@@std@@YAXPAPAVHE_edge@@0ABQAV1@@Z 00559450 f i BevelE.obj
 0002:000804e0       ??$_Move_cat@PAPAVHE_edge@@@std@@YA?AU_Undefined_move_tag@0@ABQAPAVHE_edge@@@Z 005594e0 f i BevelE.obj
 0002:00080550       ??$_Move_backward_opt@PAPAVHE_edge@@PAPAV1@Urandom_access_iterator_tag@std@@U_Undefined_move_tag@3@@std@@YAPAPAVHE_edge@@PAPAV1@00Urandom_access_iterator_tag@0@U_Undefined_move_tag@0@U_Range_checked_iterator_tag@0@@Z 00559550 f i BevelE.obj
 0002:000805f0       ??$_Ptr_cat@PAV?$vector@HV?$allocator@H@std@@@std@@PAV12@@std@@YA?AU_Nonscalar_ptr_iterator_tag@0@AAPAV?$vector@HV?$allocator@H@std@@@0@0@Z 005595f0 f i BevelE.obj
 0002:00080660       ??$_Destroy_range@V?$allocator@V?$vector@HV?$allocator@H@std@@@std@@@std@@@std@@YAXPAV?$vector@HV?$allocator@H@std@@@0@0AAV?$allocator@V?$vector@HV?$allocator@H@std@@@std@@@0@U_Nonscalar_ptr_iterator_tag@0@@Z 00559660 f i BevelE.obj
 0002:000806d0       ??$_Ptr_cat@PAUEdgeBevelE@?3??bevelEStart@MeshComponent@@QAE?AUBevelEInfo@ObjEd@@AAV?$vector@USelection@ObjEd@@V?$allocator@USelection@ObjEd@@@std@@@std@@@Z@PAU1?3??23@QAE?AU45@0@Z@@std@@YA?AU_Nonscalar_ptr_iterator_tag@0@AAPAUEdgeBevelE@?3??bevelEStart@MeshComponent@@QAE?AUBevelEInfo@ObjEd@@AAV?$vector@USelection@ObjEd@@V?$allocator@USelection@ObjEd@@@std@@@0@@Z@1@Z 005596d0 f i BevelE.obj
 0002:00080740       ??$_Destroy_range@V?$allocator@UEdgeBevelE@?3??bevelEStart@MeshComponent@@QAE?AUBevelEInfo@ObjEd@@AAV?$vector@USelection@ObjEd@@V?$allocator@USelection@ObjEd@@@std@@@std@@@Z@@std@@@std@@YAXPAUEdgeBevelE@?3??bevelEStart@MeshComponent@@QAE?AUBevelEInfo@ObjEd@@AAV?$vector@USelection@ObjEd@@V?$allocator@USelection@ObjEd@@@std@@@0@@Z@1AAV?$allocator@UEdgeBevelE@?3??bevelEStart@MeshComponent@@QAE?AUBevelEInfo@ObjEd@@AAV?$vector@USelection@ObjEd@@V?$allocator@USelection@ObjEd@@@std@@@std@@@Z@@0@U_Nonscalar_ptr_iterator_tag@0@@Z 00559740 f i BevelE.obj
 0002:000807b0       ??$_Uninit_fill_n@PAUEdgeBevelE@?3??bevelEStart@MeshComponent@@QAE?AUBevelEInfo@ObjEd@@AAV?$vector@USelection@ObjEd@@V?$allocator@USelection@ObjEd@@@std@@@std@@@Z@IU1?3??23@QAE?AU45@0@Z@V?$allocator@UEdgeBevelE@?3??bevelEStart@MeshComponent@@QAE?AUBevelEInfo@ObjEd@@AAV?$vector@USelection@ObjEd@@V?$allocator@USelection@ObjEd@@@std@@@std@@@Z@@7@@std@@YAXPAUEdgeBevelE@?3??bevelEStart@MeshComponent@@QAE?AUBevelEInfo@ObjEd@@AAV?$vector@USelection@ObjEd@@V?$allocator@USelection@ObjEd@@@std@@@0@@Z@IABU1?3??23@QAE?AU45@0@Z@AAV?$allocator@UEdgeBevelE@?3??bevelEStart@MeshComponent@@QAE?AUBevelEInfo@ObjEd@@AAV?$vector@USelection@ObjEd@@V?$allocator@USelection@ObjEd@@@std@@@std@@@Z@@0@U_Nonscalar_ptr_iterator_tag@0@U_Range_checked_iterator_tag@0@@Z 005597b0 f i BevelE.obj
 0002:000808c0       ??$_Destroy_range@V?$allocator@UBevelEIntermidiateSharedNEdge@MeshComponent@@@std@@@std@@YAXPAUBevelEIntermidiateSharedNEdge@MeshComponent@@0AAV?$allocator@UBevelEIntermidiateSharedNEdge@MeshComponent@@@0@U_Nonscalar_ptr_iterator_tag@0@@Z 005598c0 f i BevelE.obj
 0002:00080930       ??$_Unchecked_uninitialized_move@PAUBevelEIntermidiateSharedNEdge@MeshComponent@@PAU12@V?$allocator@UBevelEIntermidiateSharedNEdge@MeshComponent@@@std@@@stdext@@YAPAUBevelEIntermidiateSharedNEdge@MeshComponent@@PAU12@00AAV?$allocator@UBevelEIntermidiateSharedNEdge@MeshComponent@@@std@@@Z 00559930 f i BevelE.obj
 0002:000809e0       ??$_Checked_base@PAUBevelEIntermidiateSharedNEdge@MeshComponent@@@std@@YAPAUBevelEIntermidiateSharedNEdge@MeshComponent@@AAPAU12@@Z 005599e0 f i BevelE.obj
 0002:00080a70       ??$_Fill@PAUBevelEIntermidiateSharedNEdge@MeshComponent@@U12@@std@@YAXPAUBevelEIntermidiateSharedNEdge@MeshComponent@@0ABU12@@Z 00559a70 f i BevelE.obj
 0002:00080b00       ??$_Iter_random@PAUBevelEIntermidiateSharedNEdge@MeshComponent@@PAU12@@std@@YA?AUrandom_access_iterator_tag@0@ABQAUBevelEIntermidiateSharedNEdge@MeshComponent@@0@Z 00559b00 f i BevelE.obj
 0002:00080b70       ??$_Move_cat@PAUBevelEIntermidiateSharedNEdge@MeshComponent@@@std@@YA?AU_Undefined_move_tag@0@ABQAUBevelEIntermidiateSharedNEdge@MeshComponent@@@Z 00559b70 f i BevelE.obj
 0002:00080be0       ??$_Move_backward_opt@PAUBevelEIntermidiateSharedNEdge@MeshComponent@@PAU12@Urandom_access_iterator_tag@std@@U_Undefined_move_tag@4@@std@@YAPAUBevelEIntermidiateSharedNEdge@MeshComponent@@PAU12@00Urandom_access_iterator_tag@0@U_Undefined_move_tag@0@U_Range_checked_iterator_tag@0@@Z 00559be0 f i BevelE.obj
 0002:00080c80       ??$_Ptr_cat@PAUBevelESharedNEdgeGroup@MeshComponent@@PAU12@@std@@YA?AU_Nonscalar_ptr_iterator_tag@0@AAPAUBevelESharedNEdgeGroup@MeshComponent@@0@Z 00559c80 f i BevelE.obj
 0002:00080cf0       ??$_Destroy_range@V?$allocator@UBevelESharedNEdgeGroup@MeshComponent@@@std@@@std@@YAXPAUBevelESharedNEdgeGroup@MeshComponent@@0AAV?$allocator@UBevelESharedNEdgeGroup@MeshComponent@@@0@U_Nonscalar_ptr_iterator_tag@0@@Z 00559cf0 f i BevelE.obj
 0002:00080d60       ??$_Uninit_fill_n@PAUBevelESharedNEdgeGroup@MeshComponent@@IU12@V?$allocator@UBevelESharedNEdgeGroup@MeshComponent@@@std@@@std@@YAXPAUBevelESharedNEdgeGroup@MeshComponent@@IABU12@AAV?$allocator@UBevelESharedNEdgeGroup@MeshComponent@@@0@U_Nonscalar_ptr_iterator_tag@0@U_Range_checked_iterator_tag@0@@Z 00559d60 f i BevelE.obj
 0002:00080e70       ??$_Checked_base@PAV?$vector@PAVHE_edge@@V?$allocator@PAVHE_edge@@@std@@@std@@@std@@YAPAV?$vector@PAVHE_edge@@V?$allocator@PAVHE_edge@@@std@@@0@AAPAV10@@Z 00559e70 f i BevelE.obj
 0002:00080f00       ??$_Iter_random@PAV?$vector@PAVHE_edge@@V?$allocator@PAVHE_edge@@@std@@@std@@PAV12@@std@@YA?AUrandom_access_iterator_tag@0@ABQAV?$vector@PAVHE_edge@@V?$allocator@PAVHE_edge@@@std@@@0@0@Z 00559f00 f i BevelE.obj
 0002:00080f70       ??$_Ptr_cat@PAV?$vector@PAVHE_edge@@V?$allocator@PAVHE_edge@@@std@@@std@@PAV12@@std@@YA?AU_Nonscalar_ptr_iterator_tag@0@AAPAV?$vector@PAVHE_edge@@V?$allocator@PAVHE_edge@@@std@@@0@0@Z 00559f70 f i BevelE.obj
 0002:00080fe0       ??$_Copy_opt@PAV?$vector@PAVHE_edge@@V?$allocator@PAVHE_edge@@@std@@@std@@PAV12@@std@@YAPAV?$vector@PAVHE_edge@@V?$allocator@PAVHE_edge@@@std@@@0@PAV10@00Urandom_access_iterator_tag@0@U_Nonscalar_ptr_iterator_tag@0@U_Range_checked_iterator_tag@0@@Z 00559fe0 f i BevelE.obj
 0002:000810a0       ??$_Destroy_range@V?$allocator@V?$vector@PAVHE_edge@@V?$allocator@PAVHE_edge@@@std@@@std@@@std@@@std@@YAXPAV?$vector@PAVHE_edge@@V?$allocator@PAVHE_edge@@@std@@@0@0AAV?$allocator@V?$vector@PAVHE_edge@@V?$allocator@PAVHE_edge@@@std@@@std@@@0@U_Nonscalar_ptr_iterator_tag@0@@Z 0055a0a0 f i BevelE.obj
 0002:00081110       ??$_Unchecked_uninitialized_move@PAV?$vector@PAVHE_edge@@V?$allocator@PAVHE_edge@@@std@@@std@@PAV12@V?$allocator@V?$vector@PAVHE_edge@@V?$allocator@PAVHE_edge@@@std@@@std@@@2@@stdext@@YAPAV?$vector@PAVHE_edge@@V?$allocator@PAVHE_edge@@@std@@@std@@PAV12@00AAV?$allocator@V?$vector@PAVHE_edge@@V?$allocator@PAVHE_edge@@@std@@@std@@@2@@Z 0055a110 f i BevelE.obj
 0002:000811c0       ??$_Fill@PAV?$vector@PAVHE_edge@@V?$allocator@PAVHE_edge@@@std@@@std@@V12@@std@@YAXPAV?$vector@PAVHE_edge@@V?$allocator@PAVHE_edge@@@std@@@0@0ABV10@@Z 0055a1c0 f i BevelE.obj
 0002:00081250       ??$_Move_cat@PAV?$vector@PAVHE_edge@@V?$allocator@PAVHE_edge@@@std@@@std@@@std@@YA?AU_Swap_move_tag@0@ABQAV?$vector@PAVHE_edge@@V?$allocator@PAVHE_edge@@@std@@@0@@Z 0055a250 f i BevelE.obj
 0002:000812c0       ??$_Move_backward_opt@PAV?$vector@PAVHE_edge@@V?$allocator@PAVHE_edge@@@std@@@std@@PAV12@@std@@YAPAV?$vector@PAVHE_edge@@V?$allocator@PAVHE_edge@@@std@@@0@PAV10@00Urandom_access_iterator_tag@0@U_Swap_move_tag@0@U_Range_checked_iterator_tag@0@@Z 0055a2c0 f i BevelE.obj
 0002:00081370       ??$_Uninit_fill_n@PAV?$vector@PAVHE_edge@@V?$allocator@PAVHE_edge@@@std@@@std@@IV12@V?$allocator@V?$vector@PAVHE_edge@@V?$allocator@PAVHE_edge@@@std@@@std@@@2@@std@@YAXPAV?$vector@PAVHE_edge@@V?$allocator@PAVHE_edge@@@std@@@0@IABV10@AAV?$allocator@V?$vector@PAVHE_edge@@V?$allocator@PAVHE_edge@@@std@@@std@@@0@U_Nonscalar_ptr_iterator_tag@0@U_Range_checked_iterator_tag@0@@Z 0055a370 f i BevelE.obj
 0002:00081480       ??4?$vector@PAVHE_edge@@V?$allocator@PAVHE_edge@@@std@@@std@@QAEAAV01@ABV01@@Z 0055a480 f i BevelE.obj
 0002:000816b0       ?destroy@?$allocator@V?$vector@HV?$allocator@H@std@@@std@@@std@@QAEXPAV?$vector@HV?$allocator@H@std@@@2@@Z 0055a6b0 f i BevelE.obj
 0002:00081710       ?construct@?$allocator@UEdgeBevelE@?3??bevelEStart@MeshComponent@@QAE?AUBevelEInfo@ObjEd@@AAV?$vector@USelection@ObjEd@@V?$allocator@USelection@ObjEd@@@std@@@std@@@Z@@std@@QAEXPAUEdgeBevelE@?3??bevelEStart@MeshComponent@@QAE?AUBevelEInfo@ObjEd@@AAV?$vector@USelection@ObjEd@@V?$allocator@USelection@ObjEd@@@std@@@2@@Z@ABU3?3??45@QAE?AU67@0@Z@@Z 0055a710 f i BevelE.obj
 0002:00081770       ?destroy@?$allocator@UEdgeBevelE@?3??bevelEStart@MeshComponent@@QAE?AUBevelEInfo@ObjEd@@AAV?$vector@USelection@ObjEd@@V?$allocator@USelection@ObjEd@@@std@@@std@@@Z@@std@@QAEXPAUEdgeBevelE@?3??bevelEStart@MeshComponent@@QAE?AUBevelEInfo@ObjEd@@AAV?$vector@USelection@ObjEd@@V?$allocator@USelection@ObjEd@@@std@@@2@@Z@@Z 0055a770 f i BevelE.obj
 0002:000817d0       ?construct@?$allocator@UBevelEIntermidiateSharedNEdge@MeshComponent@@@std@@QAEXPAUBevelEIntermidiateSharedNEdge@MeshComponent@@ABU34@@Z 0055a7d0 f i BevelE.obj
 0002:00081830       ?destroy@?$allocator@UBevelEIntermidiateSharedNEdge@MeshComponent@@@std@@QAEXPAUBevelEIntermidiateSharedNEdge@MeshComponent@@@Z 0055a830 f i BevelE.obj
 0002:00081890       ?construct@?$allocator@UBevelESharedNEdgeGroup@MeshComponent@@@std@@QAEXPAUBevelESharedNEdgeGroup@MeshComponent@@ABU34@@Z 0055a890 f i BevelE.obj
 0002:000818f0       ?destroy@?$allocator@UBevelESharedNEdgeGroup@MeshComponent@@@std@@QAEXPAUBevelESharedNEdgeGroup@MeshComponent@@@Z 0055a8f0 f i BevelE.obj
 0002:00081950       ?construct@?$allocator@V?$vector@PAVHE_edge@@V?$allocator@PAVHE_edge@@@std@@@std@@@std@@QAEXPAV?$vector@PAVHE_edge@@V?$allocator@PAVHE_edge@@@std@@@2@ABV32@@Z 0055a950 f i BevelE.obj
 0002:000819b0       ?destroy@?$allocator@V?$vector@PAVHE_edge@@V?$allocator@PAVHE_edge@@@std@@@std@@@std@@QAEXPAV?$vector@PAVHE_edge@@V?$allocator@PAVHE_edge@@@std@@@2@@Z 0055a9b0 f i BevelE.obj
 0002:00081a10       ?clear@?$vector@PAVHE_edge@@V?$allocator@PAVHE_edge@@@std@@@std@@QAEXXZ 0055aa10 f i BevelE.obj
 0002:00081ba0       ??$_Checked_base@V?$_Vector_const_iterator@PAVHE_edge@@V?$allocator@PAVHE_edge@@@std@@@std@@@std@@YA?AV?$_Vector_const_iterator@PAVHE_edge@@V?$allocator@PAVHE_edge@@@std@@@0@AAV10@@Z 0055aba0 f i BevelE.obj
 0002:00081c60       ??$_Ptr_cat@V?$_Vector_const_iterator@PAVHE_edge@@V?$allocator@PAVHE_edge@@@std@@@std@@PAPAVHE_edge@@@std@@YA?AU_Scalar_ptr_iterator_tag@0@AAV?$_Vector_const_iterator@PAVHE_edge@@V?$allocator@PAVHE_edge@@@std@@@0@AAPAPAVHE_edge@@@Z 0055ac60 f i BevelE.obj
 0002:00081cd0       ??$_Uninit_copy@V?$_Vector_const_iterator@PAVHE_edge@@V?$allocator@PAVHE_edge@@@std@@@std@@PAPAVHE_edge@@V?$allocator@PAVHE_edge@@@2@@std@@YAPAPAVHE_edge@@V?$_Vector_const_iterator@PAVHE_edge@@V?$allocator@PAVHE_edge@@@std@@@0@0PAPAV1@AAV?$allocator@PAVHE_edge@@@0@U_Scalar_ptr_iterator_tag@0@U_Range_checked_iterator_tag@0@@Z 0055acd0 f i BevelE.obj
 0002:00081e70       ??$unchecked_fill_n@PAPAVHE_vert@@IPAV1@@stdext@@YAXPAPAVHE_vert@@IABQAV1@@Z 0055ae70 f i BevelE.obj
 0002:00081f00       ??$unchecked_fill_n@PAPAVHE_edge@@IPAV1@@stdext@@YAXPAPAVHE_edge@@IABQAV1@@Z 0055af00 f i BevelE.obj
 0002:00081f90       ??$unchecked_fill_n@PAHIH@stdext@@YAXPAHIABH@Z 0055af90 f i BevelE.obj
 0002:00082020       ??$_Uninit_move@PAUD3DXVECTOR3@@PAU1@V?$allocator@UD3DXVECTOR3@@@std@@U_Undefined_move_tag@3@@std@@YAPAUD3DXVECTOR3@@PAU1@00AAV?$allocator@UD3DXVECTOR3@@@0@U_Undefined_move_tag@0@U_Range_checked_iterator_tag@0@@Z 0055b020 f i BevelE.obj
 0002:00082080       ??$_Copy_backward_opt@PAUD3DXVECTOR3@@PAU1@@std@@YAPAUD3DXVECTOR3@@PAU1@00Urandom_access_iterator_tag@0@U_Nonscalar_ptr_iterator_tag@0@U_Range_checked_iterator_tag@0@@Z 0055b080 f i BevelE.obj
 0002:00082140       ??$_Uninit_move@PAPAVHE_vert@@PAPAV1@V?$allocator@PAVHE_vert@@@std@@U_Undefined_move_tag@3@@std@@YAPAPAVHE_vert@@PAPAV1@00AAV?$allocator@PAVHE_vert@@@0@U_Undefined_move_tag@0@U_Range_checked_iterator_tag@0@@Z 0055b140 f i BevelE.obj
 0002:000821a0       ??$_Copy_backward_opt@PAPAVHE_vert@@PAPAV1@Urandom_access_iterator_tag@std@@@std@@YAPAPAVHE_vert@@PAPAV1@00Urandom_access_iterator_tag@0@U_Scalar_ptr_iterator_tag@0@U_Range_checked_iterator_tag@0@@Z 0055b1a0 f i BevelE.obj
 0002:00082290       ??$_Checked_base@PAPAVHE_edge@@@std@@YAPAPAVHE_edge@@AAPAPAV1@U_Unchanged_checked_iterator_base_type_tag@0@@Z 0055b290 f i BevelE.obj
 0002:000822d0       ??$_Debug_range@PAPAVHE_edge@@@std@@YAXPAPAVHE_edge@@0PB_WI@Z 0055b2d0 f i BevelE.obj
 0002:00082350       ??$_Debug_pointer@PAVHE_edge@@@std@@YAXPAPAVHE_edge@@PB_WI@Z 0055b350 f i BevelE.obj
 0002:000823c0       ??$_Uninit_move@PAPAVHE_edge@@PAPAV1@V?$allocator@PAVHE_edge@@@std@@U_Undefined_move_tag@3@@std@@YAPAPAVHE_edge@@PAPAV1@00AAV?$allocator@PAVHE_edge@@@0@U_Undefined_move_tag@0@U_Range_checked_iterator_tag@0@@Z 0055b3c0 f i BevelE.obj
 0002:00082420       ??$_Copy_backward_opt@PAPAVHE_edge@@PAPAV1@Urandom_access_iterator_tag@std@@@std@@YAPAPAVHE_edge@@PAPAV1@00Urandom_access_iterator_tag@0@U_Scalar_ptr_iterator_tag@0@U_Range_checked_iterator_tag@0@@Z 0055b420 f i BevelE.obj
 0002:00082510       ??$_Uninit_move@PAUBevelEIntermidiateSharedNEdge@MeshComponent@@PAU12@V?$allocator@UBevelEIntermidiateSharedNEdge@MeshComponent@@@std@@U_Undefined_move_tag@4@@std@@YAPAUBevelEIntermidiateSharedNEdge@MeshComponent@@PAU12@00AAV?$allocator@UBevelEIntermidiateSharedNEdge@MeshComponent@@@0@U_Undefined_move_tag@0@U_Range_checked_iterator_tag@0@@Z 0055b510 f i BevelE.obj
 0002:00082570       ??$_Checked_base@PAUBevelEIntermidiateSharedNEdge@MeshComponent@@@std@@YAPAUBevelEIntermidiateSharedNEdge@MeshComponent@@AAPAU12@U_Unchanged_checked_iterator_base_type_tag@0@@Z 0055b570 f i BevelE.obj
 0002:000825b0       ??$_Debug_range@PAUBevelEIntermidiateSharedNEdge@MeshComponent@@@std@@YAXPAUBevelEIntermidiateSharedNEdge@MeshComponent@@0PB_WI@Z 0055b5b0 f i BevelE.obj
 0002:00082630       ??$_Copy_backward_opt@PAUBevelEIntermidiateSharedNEdge@MeshComponent@@PAU12@@std@@YAPAUBevelEIntermidiateSharedNEdge@MeshComponent@@PAU12@00Urandom_access_iterator_tag@0@U_Nonscalar_ptr_iterator_tag@0@U_Range_checked_iterator_tag@0@@Z 0055b630 f i BevelE.obj
 0002:000826f0       ??$_Checked_base@PAV?$vector@PAVHE_edge@@V?$allocator@PAVHE_edge@@@std@@@std@@@std@@YAPAV?$vector@PAVHE_edge@@V?$allocator@PAVHE_edge@@@std@@@0@AAPAV10@U_Unchanged_checked_iterator_base_type_tag@0@@Z 0055b6f0 f i BevelE.obj
 0002:00082730       ??$_Copy_opt@PAV?$vector@PAVHE_edge@@V?$allocator@PAVHE_edge@@@std@@@std@@PAV12@Uforward_iterator_tag@2@@std@@YAPAV?$vector@PAVHE_edge@@V?$allocator@PAVHE_edge@@@std@@@0@PAV10@00Uforward_iterator_tag@0@U_Nonscalar_ptr_iterator_tag@0@U_Range_checked_iterator_tag@0@@Z 0055b730 f i BevelE.obj
 0002:000827d0       ??$_Uninit_move@PAV?$vector@PAVHE_edge@@V?$allocator@PAVHE_edge@@@std@@@std@@PAV12@V?$allocator@V?$vector@PAVHE_edge@@V?$allocator@PAVHE_edge@@@std@@@std@@@2@@std@@YAPAV?$vector@PAVHE_edge@@V?$allocator@PAVHE_edge@@@std@@@0@PAV10@00AAV?$allocator@V?$vector@PAVHE_edge@@V?$allocator@PAVHE_edge@@@std@@@std@@@0@U_Swap_move_tag@0@U_Range_checked_iterator_tag@0@@Z 0055b7d0 f i BevelE.obj
 0002:000829a0       ??$_Debug_range@PAV?$vector@PAVHE_edge@@V?$allocator@PAVHE_edge@@@std@@@std@@@std@@YAXPAV?$vector@PAVHE_edge@@V?$allocator@PAVHE_edge@@@std@@@0@0PB_WI@Z 0055b9a0 f i BevelE.obj
 0002:00082a20       ??$_Move_backward_opt@PAV?$vector@PAVHE_edge@@V?$allocator@PAVHE_edge@@@std@@@std@@PAV12@Uforward_iterator_tag@2@@std@@YAPAV?$vector@PAVHE_edge@@V?$allocator@PAVHE_edge@@@std@@@0@PAV10@00Uforward_iterator_tag@0@U_Swap_move_tag@0@U_Range_checked_iterator_tag@0@@Z 0055ba20 f i BevelE.obj
 0002:00082ac0       ??$_Ucopy@PAPAVHE_edge@@@?$vector@PAVHE_edge@@V?$allocator@PAVHE_edge@@@std@@@std@@IAEPAPAVHE_edge@@PAPAV2@00@Z 0055bac0 f i BevelE.obj
 0002:00082b30       ??$_Destroy@V?$vector@HV?$allocator@H@std@@@std@@@std@@YAXPAV?$vector@HV?$allocator@H@std@@@0@@Z 0055bb30 f i BevelE.obj
 0002:00082b80       ??$_Construct@UEdgeBevelE@?3??bevelEStart@MeshComponent@@QAE?AUBevelEInfo@ObjEd@@AAV?$vector@USelection@ObjEd@@V?$allocator@USelection@ObjEd@@@std@@@std@@@Z@U1?3??23@QAE?AU45@0@Z@@std@@YAXPAUEdgeBevelE@?3??bevelEStart@MeshComponent@@QAE?AUBevelEInfo@ObjEd@@AAV?$vector@USelection@ObjEd@@V?$allocator@USelection@ObjEd@@@std@@@0@@Z@ABU1?3??23@QAE?AU45@0@Z@@Z 0055bb80 f i BevelE.obj
 0002:00082c30       ??$_Destroy@UEdgeBevelE@?3??bevelEStart@MeshComponent@@QAE?AUBevelEInfo@ObjEd@@AAV?$vector@USelection@ObjEd@@V?$allocator@USelection@ObjEd@@@std@@@std@@@Z@@std@@YAXPAUEdgeBevelE@?3??bevelEStart@MeshComponent@@QAE?AUBevelEInfo@ObjEd@@AAV?$vector@USelection@ObjEd@@V?$allocator@USelection@ObjEd@@@std@@@0@@Z@@Z 0055bc30 f i BevelE.obj
 0002:00082c60       ??$_Construct@UBevelEIntermidiateSharedNEdge@MeshComponent@@U12@@std@@YAXPAUBevelEIntermidiateSharedNEdge@MeshComponent@@ABU12@@Z 0055bc60 f i BevelE.obj
 0002:00082d00       ??$_Destroy@UBevelEIntermidiateSharedNEdge@MeshComponent@@@std@@YAXPAUBevelEIntermidiateSharedNEdge@MeshComponent@@@Z 0055bd00 f i BevelE.obj
 0002:00082d30       ??$_Construct@UBevelESharedNEdgeGroup@MeshComponent@@U12@@std@@YAXPAUBevelESharedNEdgeGroup@MeshComponent@@ABU12@@Z 0055bd30 f i BevelE.obj
 0002:00082dd0       ??$_Destroy@UBevelESharedNEdgeGroup@MeshComponent@@@std@@YAXPAUBevelESharedNEdgeGroup@MeshComponent@@@Z 0055bdd0 f i BevelE.obj
 0002:00082e00       ??$_Construct@V?$vector@PAVHE_edge@@V?$allocator@PAVHE_edge@@@std@@@std@@V12@@std@@YAXPAV?$vector@PAVHE_edge@@V?$allocator@PAVHE_edge@@@std@@@0@ABV10@@Z 0055be00 f i BevelE.obj
 0002:00082ef0       ??$_Destroy@V?$vector@PAVHE_edge@@V?$allocator@PAVHE_edge@@@std@@@std@@@std@@YAXPAV?$vector@PAVHE_edge@@V?$allocator@PAVHE_edge@@@std@@@0@@Z 0055bef0 f i BevelE.obj
 0002:00082f40       ??_G?$vector@HV?$allocator@H@std@@@std@@QAEPAXI@Z 0055bf40 f i BevelE.obj
 0002:00082fb0       ??_G?$vector@PAVHE_edge@@V?$allocator@PAVHE_edge@@@std@@@std@@QAEPAXI@Z 0055bfb0 f i BevelE.obj
 0002:00083020       ??D?$_Vector_const_iterator@PAVHE_edge@@V?$allocator@PAVHE_edge@@@std@@@std@@QBEABQAVHE_edge@@XZ 0055c020 f i BevelE.obj
 0002:00083130       ??$_Checked_base@V?$_Vector_const_iterator@PAVHE_edge@@V?$allocator@PAVHE_edge@@@std@@@std@@@std@@YA?AV?$_Vector_const_iterator@PAVHE_edge@@V?$allocator@PAVHE_edge@@@std@@@0@AAV10@U_Unchanged_checked_iterator_base_type_tag@0@@Z 0055c130 f i BevelE.obj
 0002:000831a0       ??$_Debug_range@V?$_Vector_const_iterator@PAVHE_edge@@V?$allocator@PAVHE_edge@@@std@@@std@@@std@@YAXV?$_Vector_const_iterator@PAVHE_edge@@V?$allocator@PAVHE_edge@@@std@@@0@0PB_WI@Z 0055c1a0 f i BevelE.obj
 0002:000832d0       ??$_Fill_n@PAPAVHE_vert@@IPAV1@@std@@YAXPAPAVHE_vert@@IABQAV1@Urandom_access_iterator_tag@0@U_Range_checked_iterator_tag@0@@Z 0055c2d0 f i BevelE.obj
 0002:00083360       ??$_Iter_cat@PAPAVHE_edge@@@std@@YA?AUrandom_access_iterator_tag@0@ABQAPAVHE_edge@@@Z 0055c360 f i BevelE.obj
 0002:000833d0       ??$_Fill_n@PAPAVHE_edge@@IPAV1@@std@@YAXPAPAVHE_edge@@IABQAV1@Urandom_access_iterator_tag@0@U_Range_checked_iterator_tag@0@@Z 0055c3d0 f i BevelE.obj
 0002:00083460       ??$_Fill_n@PAHIH@std@@YAXPAHIABHUrandom_access_iterator_tag@0@U_Range_checked_iterator_tag@0@@Z 0055c460 f i BevelE.obj
 0002:000834f0       ??$_Copy_backward_opt@PAUD3DXVECTOR3@@PAU1@Uforward_iterator_tag@std@@@std@@YAPAUD3DXVECTOR3@@PAU1@00Uforward_iterator_tag@0@U_Nonscalar_ptr_iterator_tag@0@U_Range_checked_iterator_tag@0@@Z 0055c4f0 f i BevelE.obj
 0002:000835a0       ??$_Debug_range2@PAPAVHE_edge@@@std@@YAXPAPAVHE_edge@@0PB_WIUrandom_access_iterator_tag@0@@Z 0055c5a0 f i BevelE.obj
 0002:00083650       ??$unchecked_uninitialized_copy@PAPAVHE_edge@@PAPAV1@V?$allocator@PAVHE_edge@@@std@@@stdext@@YAPAPAVHE_edge@@PAPAV1@00AAV?$allocator@PAVHE_edge@@@std@@@Z 0055c650 f i BevelE.obj
 0002:00083700       ??$unchecked_uninitialized_copy@PAUBevelEIntermidiateSharedNEdge@MeshComponent@@PAU12@V?$allocator@UBevelEIntermidiateSharedNEdge@MeshComponent@@@std@@@stdext@@YAPAUBevelEIntermidiateSharedNEdge@MeshComponent@@PAU12@00AAV?$allocator@UBevelEIntermidiateSharedNEdge@MeshComponent@@@std@@@Z 0055c700 f i BevelE.obj
 0002:000837b0       ??$_Iter_cat@PAUBevelEIntermidiateSharedNEdge@MeshComponent@@@std@@YA?AUrandom_access_iterator_tag@0@ABQAUBevelEIntermidiateSharedNEdge@MeshComponent@@@Z 0055c7b0 f i BevelE.obj
 0002:00083820       ??$_Debug_range2@PAUBevelEIntermidiateSharedNEdge@MeshComponent@@@std@@YAXPAUBevelEIntermidiateSharedNEdge@MeshComponent@@0PB_WIUrandom_access_iterator_tag@0@@Z 0055c820 f i BevelE.obj
 0002:000838d0       ??$_Copy_backward_opt@PAUBevelEIntermidiateSharedNEdge@MeshComponent@@PAU12@Uforward_iterator_tag@std@@@std@@YAPAUBevelEIntermidiateSharedNEdge@MeshComponent@@PAU12@00Uforward_iterator_tag@0@U_Nonscalar_ptr_iterator_tag@0@U_Range_checked_iterator_tag@0@@Z 0055c8d0 f i BevelE.obj
 0002:00083970       ??$_Debug_pointer@V?$vector@PAVHE_edge@@V?$allocator@PAVHE_edge@@@std@@@std@@@std@@YAXPAV?$vector@PAVHE_edge@@V?$allocator@PAVHE_edge@@@std@@@0@PB_WI@Z 0055c970 f i BevelE.obj
 0002:000839e0       ??$swap@PAVHE_edge@@V?$allocator@PAVHE_edge@@@std@@@std@@YAXAAV?$vector@PAVHE_edge@@V?$allocator@PAVHE_edge@@@std@@@0@0@Z 0055c9e0 f i BevelE.obj
 0002:00083a30       ??$_Iter_cat@PAV?$vector@PAVHE_edge@@V?$allocator@PAVHE_edge@@@std@@@std@@@std@@YA?AUrandom_access_iterator_tag@0@ABQAV?$vector@PAVHE_edge@@V?$allocator@PAVHE_edge@@@std@@@0@@Z 0055ca30 f i BevelE.obj
 0002:00083aa0       ??$_Debug_range2@PAV?$vector@PAVHE_edge@@V?$allocator@PAVHE_edge@@@std@@@std@@@std@@YAXPAV?$vector@PAVHE_edge@@V?$allocator@PAVHE_edge@@@std@@@0@0PB_WIUrandom_access_iterator_tag@0@@Z 0055caa0 f i BevelE.obj
 0002:00083b50       ?swap@?$vector@PAVHE_edge@@V?$allocator@PAVHE_edge@@@std@@@std@@QAEXAAV12@@Z 0055cb50 f i BevelE.obj
 0002:00083d30       ??$_Iter_cat@V?$_Vector_const_iterator@PAVHE_edge@@V?$allocator@PAVHE_edge@@@std@@@std@@@std@@YA?AUrandom_access_iterator_tag@0@ABV?$_Vector_const_iterator@PAVHE_edge@@V?$allocator@PAVHE_edge@@@std@@@0@@Z 0055cd30 f i BevelE.obj
 0002:00083da0       ??$_Debug_range2@V?$_Vector_const_iterator@PAVHE_edge@@V?$allocator@PAVHE_edge@@@std@@@std@@@std@@YAXV?$_Vector_const_iterator@PAVHE_edge@@V?$allocator@PAVHE_edge@@@std@@@0@0PB_WIUrandom_access_iterator_tag@0@@Z 0055cda0 f i BevelE.obj
 0002:00083ed0       ??$_Fill_n@PAPAVHE_vert@@IPAV1@@std@@YAXPAPAVHE_vert@@IABQAV1@U_Range_checked_iterator_tag@0@@Z 0055ced0 f i BevelE.obj
 0002:00083f30       ??$_Fill_n@PAPAVHE_edge@@IPAV1@@std@@YAXPAPAVHE_edge@@IABQAV1@U_Range_checked_iterator_tag@0@@Z 0055cf30 f i BevelE.obj
 0002:00083f90       ??$_Fill_n@PAHIH@std@@YAXPAHIABHU_Range_checked_iterator_tag@0@@Z 0055cf90 f i BevelE.obj
 0002:00083ff0       ??$_Uninit_copy@PAPAVHE_edge@@PAPAV1@V?$allocator@PAVHE_edge@@@std@@@std@@YAPAPAVHE_edge@@PAPAV1@00AAV?$allocator@PAVHE_edge@@@0@U_Scalar_ptr_iterator_tag@0@U_Range_checked_iterator_tag@0@@Z 0055cff0 f i BevelE.obj
 0002:000840d0       ??$_Uninit_copy@PAUBevelEIntermidiateSharedNEdge@MeshComponent@@PAU12@V?$allocator@UBevelEIntermidiateSharedNEdge@MeshComponent@@@std@@@std@@YAPAUBevelEIntermidiateSharedNEdge@MeshComponent@@PAU12@00AAV?$allocator@UBevelEIntermidiateSharedNEdge@MeshComponent@@@0@U_Nonscalar_ptr_iterator_tag@0@U_Range_checked_iterator_tag@0@@Z 0055d0d0 f i BevelE.obj
 0002:00084220       ??$_Debug_pointer@UBevelEIntermidiateSharedNEdge@MeshComponent@@@std@@YAXPAUBevelEIntermidiateSharedNEdge@MeshComponent@@PB_WI@Z 0055d220 f i BevelE.obj
 0002:00084290       ??$?8PAVHE_edge@@PAV0@@std@@YA_NABV?$allocator@PAVHE_edge@@@0@0@Z 0055d290 f i BevelE.obj
 0002:000842c0       ??$swap@PAPAVHE_edge@@@std@@YAXAAPAPAVHE_edge@@0@Z 0055d2c0 f i BevelE.obj
 0002:00084320       ??$_Debug_pointer@V?$_Vector_const_iterator@PAVHE_edge@@V?$allocator@PAVHE_edge@@@std@@@std@@@std@@YAXAAV?$_Vector_const_iterator@PAVHE_edge@@V?$allocator@PAVHE_edge@@@std@@@0@PB_WI@Z 0055d320 f i BevelE.obj
 0002:00084350       ?bevelVStart@MeshComponent@@QAE?AUBevelVInfo@ObjEd@@H@Z 0055d350 f   BevelV.obj
 0002:00084a10       ?bevelV@MeshComponent@@QAEXHAAUBevelVInfo@ObjEd@@@Z 0055da10 f   BevelV.obj
 0002:00084bd0       ?resize@?$vector@UD3DXVECTOR3@@V?$allocator@UD3DXVECTOR3@@@std@@@std@@QAEXI@Z 0055dbd0 f i BevelV.obj
 0002:00084c50       ??1?$vector@PAVHE_face@@V?$allocator@PAVHE_face@@@std@@@std@@QAE@XZ 0055dc50 f i BevelV.obj
 0002:00084cf0       ??A?$vector@PAVHE_face@@V?$allocator@PAVHE_face@@@std@@@std@@QAEAAPAVHE_face@@I@Z 0055dcf0 f i BevelV.obj
 0002:00084e70       ??1?$_Vector_val@PAVHE_face@@V?$allocator@PAVHE_face@@@std@@@std@@QAE@XZ 0055de70 f i BevelV.obj
 0002:00084ec0       ?resize@?$vector@UD3DXVECTOR3@@V?$allocator@UD3DXVECTOR3@@@std@@@std@@QAEXIUD3DXVECTOR3@@@Z 0055dec0 f i BevelV.obj
 0002:00085160       ?size@?$vector@PAVHE_face@@V?$allocator@PAVHE_face@@@std@@@std@@QBEIXZ 0055e160 f i BevelV.obj
 0002:000851b0       ?_Tidy@?$vector@PAVHE_face@@V?$allocator@PAVHE_face@@@std@@@std@@IAEXXZ 0055e1b0 f i BevelV.obj
 0002:00085290       ??1?$_Container_base_aux_alloc_empty@V?$allocator@PAVHE_face@@@std@@@std@@IAE@XZ 0055e290 f i BevelV.obj
 0002:000852f0       ?_Destroy@?$vector@PAVHE_face@@V?$allocator@PAVHE_face@@@std@@@std@@IAEXPAPAVHE_face@@0@Z 0055e2f0 f i BevelV.obj
 0002:00085360       ?deallocate@?$allocator@PAVHE_face@@@std@@QAEXPAPAVHE_face@@I@Z 0055e360 f i BevelV.obj
 0002:000853c0       ??$_Destroy_range@V?$allocator@PAVHE_face@@@std@@@std@@YAXPAPAVHE_face@@0AAV?$allocator@PAVHE_face@@@0@@Z 0055e3c0 f i BevelV.obj
 0002:00085440       ??$_Ptr_cat@PAPAVHE_face@@PAPAV1@@std@@YA?AU_Scalar_ptr_iterator_tag@0@AAPAPAVHE_face@@0@Z 0055e440 f i BevelV.obj
 0002:000854b0       ??$_Destroy_range@V?$allocator@PAVHE_face@@@std@@@std@@YAXPAPAVHE_face@@0AAV?$allocator@PAVHE_face@@@0@U_Scalar_ptr_iterator_tag@0@@Z 0055e4b0 f i BevelV.obj
 0002:000854e0       ?createCubePrimitive@MeshComponent@@QAEXXZ 0055e4e0 f   CubePrim.obj
 0002:00086040       ??0editableobject@@QAE@XZ  0055f040 f   editableobject.obj
 0002:000860d0       ??0editableobject@@QAE@HAAV?$basic_string@DU?$char_traits@D@std@@V?$allocator@D@2@@std@@@Z 0055f0d0 f   editableobject.obj
 0002:000861d0       ?name@editableobject@@QAE?AV?$basic_string@DU?$char_traits@D@std@@V?$allocator@D@2@@std@@XZ 0055f1d0 f   editableobject.obj
 0002:00086260       ?setName@editableobject@@QAEXABV?$basic_string@DU?$char_traits@D@std@@V?$allocator@D@2@@std@@@Z 0055f260 f   editableobject.obj
 0002:000862d0       ?setHighlighted@editableobject@@QAEXAB_N@Z 0055f2d0 f   editableobject.obj
 0002:00086320       ?isHighlighted@editableobject@@QAE_NXZ 0055f320 f   editableobject.obj
 0002:00086360       ?getId@editableobject@@QAEHXZ 0055f360 f   editableobject.obj
 0002:000863a0       ?extrudeFace@MeshComponent@@AAE?AV?$vector@PAVHE_vert@@V?$allocator@PAVHE_vert@@@std@@@std@@H@Z 0055f3a0 f   Extrusion.obj
 0002:00086cb0       ?extrudeStart@MeshComponent@@QAE?AUExtrudeInfo@ObjEd@@HABUExtrudeOptions@Options@@@Z 0055fcb0 f   Extrusion.obj
 0002:000870c0       ?extrude@MeshComponent@@QAEXHAAUExtrudeInfo@ObjEd@@@Z 005600c0 f   Extrusion.obj
 0002:000872b0       ??0?$vector@UD3DXVECTOR3@@V?$allocator@UD3DXVECTOR3@@@std@@@std@@QAE@I@Z 005602b0 f i Extrusion.obj
 0002:00087380       ?resize@?$vector@V?$vector@PAVHE_vert@@V?$allocator@PAVHE_vert@@@std@@@std@@V?$allocator@V?$vector@PAVHE_vert@@V?$allocator@PAVHE_vert@@@std@@@std@@@2@@std@@QAEXI@Z 00560380 f i Extrusion.obj
 0002:00087400       ??A?$vector@V?$vector@PAVHE_vert@@V?$allocator@PAVHE_vert@@@std@@@std@@V?$allocator@V?$vector@PAVHE_vert@@V?$allocator@PAVHE_vert@@@std@@@std@@@2@@std@@QAEAAV?$vector@PAVHE_vert@@V?$allocator@PAVHE_vert@@@std@@@1@I@Z 00560400 f i Extrusion.obj
 0002:00087580       ??0?$vector@PAVHE_face@@V?$allocator@PAVHE_face@@@std@@@std@@QAE@I@Z 00560580 f i Extrusion.obj
 0002:00087650       ?_Construct_n@?$vector@UD3DXVECTOR3@@V?$allocator@UD3DXVECTOR3@@@std@@@std@@QAEXIABUD3DXVECTOR3@@@Z 00560650 f i Extrusion.obj
 0002:00087760       ?resize@?$vector@V?$vector@PAVHE_vert@@V?$allocator@PAVHE_vert@@@std@@@std@@V?$allocator@V?$vector@PAVHE_vert@@V?$allocator@PAVHE_vert@@@std@@@std@@@2@@std@@QAEXIV?$vector@PAVHE_vert@@V?$allocator@PAVHE_vert@@@std@@@2@@Z 00560760 f i Extrusion.obj
 0002:00087a00       ?_Construct_n@?$vector@PAVHE_face@@V?$allocator@PAVHE_face@@@std@@@std@@QAEXIABQAVHE_face@@@Z 00560a00 f i Extrusion.obj
 0002:00087b10       ?_Buy@?$vector@PAVHE_face@@V?$allocator@PAVHE_face@@@std@@@std@@IAE_NI@Z 00560b10 f i Extrusion.obj
 0002:00087bf0       ?_Ufill@?$vector@PAVHE_face@@V?$allocator@PAVHE_face@@@std@@@std@@IAEPAPAVHE_face@@PAPAV3@IABQAV3@@Z 00560bf0 f i Extrusion.obj
 0002:00087c70       ??0?$_Vector_val@PAVHE_face@@V?$allocator@PAVHE_face@@@std@@@std@@IAE@V?$allocator@PAVHE_face@@@1@@Z 00560c70 f i Extrusion.obj
 0002:00087cf0       ??0?$allocator@PAVHE_face@@@std@@QAE@XZ 00560cf0 f i Extrusion.obj
 0002:00087d30       ??0?$allocator@PAVHE_face@@@std@@QAE@ABV01@@Z 00560d30 f i Extrusion.obj
 0002:00087d70       ?_Insert_n@?$vector@V?$vector@PAVHE_vert@@V?$allocator@PAVHE_vert@@@std@@@std@@V?$allocator@V?$vector@PAVHE_vert@@V?$allocator@PAVHE_vert@@@std@@@std@@@2@@std@@IAEXV?$_Vector_const_iterator@V?$vector@PAVHE_vert@@V?$allocator@PAVHE_vert@@@std@@@std@@V?$allocator@V?$vector@PAVHE_vert@@V?$allocator@PAVHE_vert@@@std@@@std@@@2@@2@IABV?$vector@PAVHE_vert@@V?$allocator@PAVHE_vert@@@std@@@2@@Z 00560d70 f i Extrusion.obj
 0002:00088320       ?max_size@?$vector@PAVHE_face@@V?$allocator@PAVHE_face@@@std@@@std@@QBEIXZ 00561320 f i Extrusion.obj
 0002:00088380       ?_Xlen@?$vector@PAVHE_face@@V?$allocator@PAVHE_face@@@std@@@std@@KAXXZ 00561380 f i Extrusion.obj
 0002:00088470       ??0?$_Container_base_aux_alloc_empty@V?$allocator@PAVHE_face@@@std@@@std@@IAE@V?$allocator@PAVHE_face@@@1@@Z 00561470 f i Extrusion.obj
 0002:000884e0       ?allocate@?$allocator@PAVHE_face@@@std@@QAEPAPAVHE_face@@I@Z 005614e0 f i Extrusion.obj
 0002:00088540       ??H?$_Vector_iterator@V?$vector@PAVHE_vert@@V?$allocator@PAVHE_vert@@@std@@@std@@V?$allocator@V?$vector@PAVHE_vert@@V?$allocator@PAVHE_vert@@@std@@@std@@@2@@std@@QBE?AV01@H@Z 00561540 f i Extrusion.obj
 0002:00088660       ??0?$_Vector_iterator@V?$vector@PAVHE_vert@@V?$allocator@PAVHE_vert@@@std@@@std@@V?$allocator@V?$vector@PAVHE_vert@@V?$allocator@PAVHE_vert@@@std@@@std@@@2@@std@@QAE@ABV01@@Z 00561660 f i Extrusion.obj
 0002:000886c0       ?_Ufill@?$vector@V?$vector@PAVHE_vert@@V?$allocator@PAVHE_vert@@@std@@@std@@V?$allocator@V?$vector@PAVHE_vert@@V?$allocator@PAVHE_vert@@@std@@@std@@@2@@std@@IAEPAV?$vector@PAVHE_vert@@V?$allocator@PAVHE_vert@@@std@@@2@PAV32@IABV32@@Z 005616c0 f i Extrusion.obj
 0002:00088740       ?max_size@?$allocator@PAVHE_face@@@std@@QBEIXZ 00561740 f i Extrusion.obj
 0002:000887b0       ??Y?$_Vector_iterator@V?$vector@PAVHE_vert@@V?$allocator@PAVHE_vert@@@std@@@std@@V?$allocator@V?$vector@PAVHE_vert@@V?$allocator@PAVHE_vert@@@std@@@std@@@2@@std@@QAEAAV01@H@Z 005617b0 f i Extrusion.obj
 0002:00088810       ??Y?$_Vector_const_iterator@V?$vector@PAVHE_vert@@V?$allocator@PAVHE_vert@@@std@@@std@@V?$allocator@V?$vector@PAVHE_vert@@V?$allocator@PAVHE_vert@@@std@@@std@@@2@@std@@QAEAAV01@H@Z 00561810 f i Extrusion.obj
 0002:000889b0       ??$unchecked_uninitialized_fill_n@PAPAVHE_face@@IPAV1@V?$allocator@PAVHE_face@@@std@@@stdext@@YAXPAPAVHE_face@@IABQAV1@AAV?$allocator@PAVHE_face@@@std@@@Z 005619b0 f i Extrusion.obj
 0002:00088a50       ??$_Umove@PAV?$vector@PAVHE_vert@@V?$allocator@PAVHE_vert@@@std@@@std@@@?$vector@V?$vector@PAVHE_vert@@V?$allocator@PAVHE_vert@@@std@@@std@@V?$allocator@V?$vector@PAVHE_vert@@V?$allocator@PAVHE_vert@@@std@@@std@@@2@@std@@IAEPAV?$vector@PAVHE_vert@@V?$allocator@PAVHE_vert@@@std@@@1@PAV21@00@Z 00561a50 f i Extrusion.obj
 0002:00088ac0       ??$fill@PAV?$vector@PAVHE_vert@@V?$allocator@PAVHE_vert@@@std@@@std@@V12@@std@@YAXPAV?$vector@PAVHE_vert@@V?$allocator@PAVHE_vert@@@std@@@0@0ABV10@@Z 00561ac0 f i Extrusion.obj
 0002:00088b30       ??$_Unchecked_move_backward@PAV?$vector@PAVHE_vert@@V?$allocator@PAVHE_vert@@@std@@@std@@PAV12@@stdext@@YAPAV?$vector@PAVHE_vert@@V?$allocator@PAVHE_vert@@@std@@@std@@PAV12@00@Z 00561b30 f i Extrusion.obj
 0002:00088c00       ??$_Allocate@PAVHE_face@@@std@@YAPAPAVHE_face@@IPAPAV1@@Z 00561c00 f i Extrusion.obj
 0002:00088ca0       ??$unchecked_uninitialized_fill_n@PAV?$vector@PAVHE_vert@@V?$allocator@PAVHE_vert@@@std@@@std@@IV12@V?$allocator@V?$vector@PAVHE_vert@@V?$allocator@PAVHE_vert@@@std@@@std@@@2@@stdext@@YAXPAV?$vector@PAVHE_vert@@V?$allocator@PAVHE_vert@@@std@@@std@@IABV12@AAV?$allocator@V?$vector@PAVHE_vert@@V?$allocator@PAVHE_vert@@@std@@@std@@@2@@Z 00561ca0 f i Extrusion.obj
 0002:00088d40       ??$_Uninit_fill_n@PAPAVHE_face@@IPAV1@V?$allocator@PAVHE_face@@@std@@@std@@YAXPAPAVHE_face@@IABQAV1@AAV?$allocator@PAVHE_face@@@0@U_Scalar_ptr_iterator_tag@0@U_Range_checked_iterator_tag@0@@Z 00561d40 f i Extrusion.obj
 0002:00088da0       ??$_Unchecked_uninitialized_move@PAV?$vector@PAVHE_vert@@V?$allocator@PAVHE_vert@@@std@@@std@@PAV12@V?$allocator@V?$vector@PAVHE_vert@@V?$allocator@PAVHE_vert@@@std@@@std@@@2@@stdext@@YAPAV?$vector@PAVHE_vert@@V?$allocator@PAVHE_vert@@@std@@@std@@PAV12@00AAV?$allocator@V?$vector@PAVHE_vert@@V?$allocator@PAVHE_vert@@@std@@@std@@@2@@Z 00561da0 f i Extrusion.obj
 0002:00088e50       ??$_Fill@PAV?$vector@PAVHE_vert@@V?$allocator@PAVHE_vert@@@std@@@std@@V12@@std@@YAXPAV?$vector@PAVHE_vert@@V?$allocator@PAVHE_vert@@@std@@@0@0ABV10@@Z 00561e50 f i Extrusion.obj
 0002:00088ee0       ??$_Move_cat@PAV?$vector@PAVHE_vert@@V?$allocator@PAVHE_vert@@@std@@@std@@@std@@YA?AU_Swap_move_tag@0@ABQAV?$vector@PAVHE_vert@@V?$allocator@PAVHE_vert@@@std@@@0@@Z 00561ee0 f i Extrusion.obj
 0002:00088f50       ??$_Move_backward_opt@PAV?$vector@PAVHE_vert@@V?$allocator@PAVHE_vert@@@std@@@std@@PAV12@@std@@YAPAV?$vector@PAVHE_vert@@V?$allocator@PAVHE_vert@@@std@@@0@PAV10@00Urandom_access_iterator_tag@0@U_Swap_move_tag@0@U_Range_checked_iterator_tag@0@@Z 00561f50 f i Extrusion.obj
 0002:00089000       ??$_Uninit_fill_n@PAV?$vector@PAVHE_vert@@V?$allocator@PAVHE_vert@@@std@@@std@@IV12@V?$allocator@V?$vector@PAVHE_vert@@V?$allocator@PAVHE_vert@@@std@@@std@@@2@@std@@YAXPAV?$vector@PAVHE_vert@@V?$allocator@PAVHE_vert@@@std@@@0@IABV10@AAV?$allocator@V?$vector@PAVHE_vert@@V?$allocator@PAVHE_vert@@@std@@@std@@@0@U_Nonscalar_ptr_iterator_tag@0@U_Range_checked_iterator_tag@0@@Z 00562000 f i Extrusion.obj
 0002:00089110       ??$unchecked_fill_n@PAPAVHE_face@@IPAV1@@stdext@@YAXPAPAVHE_face@@IABQAV1@@Z 00562110 f i Extrusion.obj
 0002:000891a0       ??$_Uninit_move@PAV?$vector@PAVHE_vert@@V?$allocator@PAVHE_vert@@@std@@@std@@PAV12@V?$allocator@V?$vector@PAVHE_vert@@V?$allocator@PAVHE_vert@@@std@@@std@@@2@@std@@YAPAV?$vector@PAVHE_vert@@V?$allocator@PAVHE_vert@@@std@@@0@PAV10@00AAV?$allocator@V?$vector@PAVHE_vert@@V?$allocator@PAVHE_vert@@@std@@@std@@@0@U_Swap_move_tag@0@U_Range_checked_iterator_tag@0@@Z 005621a0 f i Extrusion.obj
 0002:00089370       ??$_Move_backward_opt@PAV?$vector@PAVHE_vert@@V?$allocator@PAVHE_vert@@@std@@@std@@PAV12@Uforward_iterator_tag@2@@std@@YAPAV?$vector@PAVHE_vert@@V?$allocator@PAVHE_vert@@@std@@@0@PAV10@00Uforward_iterator_tag@0@U_Swap_move_tag@0@U_Range_checked_iterator_tag@0@@Z 00562370 f i Extrusion.obj
 0002:00089410       ??$_Iter_cat@PAPAVHE_face@@@std@@YA?AUrandom_access_iterator_tag@0@ABQAPAVHE_face@@@Z 00562410 f i Extrusion.obj
 0002:00089480       ??$_Fill_n@PAPAVHE_face@@IPAV1@@std@@YAXPAPAVHE_face@@IABQAV1@Urandom_access_iterator_tag@0@U_Range_checked_iterator_tag@0@@Z 00562480 f i Extrusion.obj
 0002:00089510       ??$_Checked_base@PAPAVHE_face@@@std@@YAPAPAVHE_face@@AAPAPAV1@@Z 00562510 f i Extrusion.obj
 0002:000895a0       ??$_Checked_base@PAPAVHE_face@@@std@@YAPAPAVHE_face@@AAPAPAV1@U_Unchanged_checked_iterator_base_type_tag@0@@Z 005625a0 f i Extrusion.obj
 0002:000895e0       ??$swap@PAVHE_vert@@V?$allocator@PAVHE_vert@@@std@@@std@@YAXAAV?$vector@PAVHE_vert@@V?$allocator@PAVHE_vert@@@std@@@0@0@Z 005625e0 f i Extrusion.obj
 0002:00089630       ?swap@?$vector@PAVHE_vert@@V?$allocator@PAVHE_vert@@@std@@@std@@QAEXAAV12@@Z 00562630 f i Extrusion.obj
 0002:00089810       ??$_Fill_n@PAPAVHE_face@@IPAV1@@std@@YAXPAPAVHE_face@@IABQAV1@U_Range_checked_iterator_tag@0@@Z 00562810 f i Extrusion.obj
 0002:00089870       ??$?8PAVHE_vert@@PAV0@@std@@YA_NABV?$allocator@PAVHE_vert@@@0@0@Z 00562870 f i Extrusion.obj
 0002:000898a0       ??$swap@PAPAVHE_vert@@@std@@YAXAAPAPAVHE_vert@@0@Z 005628a0 f i Extrusion.obj
 0002:00089900       ?extrudeInnerStart@MeshComponent@@QAE?AUExtrudeInnerInfo@ObjEd@@HABUExtInnerOptions@Options@@@Z 00562900 f   ExtrusionInner.obj
 0002:00089e10       ?extrudeInner@MeshComponent@@QAEXHAAUExtrudeInnerInfo@ObjEd@@@Z 00562e10 f   ExtrusionInner.obj
 0002:0008a060       ?extrudeMatrixStart@MeshComponent@@QAE?AUExtrudeMatrixInfo@ObjEd@@HABUExtMatrixOptions@Options@@@Z 00563060 f   ExtrusionMatrix.obj
 0002:0008a170       ?extrudeMatrix@MeshComponent@@QAEXHAAUExtrudeMatrixInfo@ObjEd@@@Z 00563170 f   ExtrusionMatrix.obj
 0002:0008a1b0       ??0Face@@QAE@AAV?$vector@HV?$allocator@H@std@@@std@@0@Z 005631b0 f   Face.obj
 0002:0008a280       ?nVertices@Face@@QBEHXZ    00563280 f   Face.obj
 0002:0008a2d0       ?vId@Face@@QBEHH@Z         005632d0 f   Face.obj
 0002:0008a330       ?nDecompositionTriangles@Face@@QBEHXZ 00563330 f   Face.obj
 0002:0008a390       ?decompTriangle@Face@@QBE?AUTriangleDecomposition@1@H@Z 00563390 f   Face.obj
 0002:0008a440       ?nEdges@Face@@QBEHXZ       00563440 f   Face.obj
 0002:0008a4a0       ?eId@Face@@QBEHH@Z         005634a0 f   Face.obj
 0002:0008a500       ?convertHalfEdgesToFullEdges@Face@@QAEXABV?$vector@HV?$allocator@H@std@@@std@@@Z 00563500 f   Face.obj
 0002:0008a5b0       ??0HE_face@@QAE@ABV0@@Z    005635b0 f   HE_face.obj
 0002:0008a610       ?setEdge@HE_face@@QAEXPBVHE_edge@@@Z 00563610 f   HE_face.obj
 0002:0008a660       ?vertices@HE_face@@QBE?AV?$vector@PAVHE_vert@@V?$allocator@PAVHE_vert@@@std@@@std@@XZ 00563660 f   HE_face.obj
 0002:0008a7b0       ?edges@HE_face@@QBE?AV?$vector@PAVHE_edge@@V?$allocator@PAVHE_edge@@@std@@@std@@XZ 005637b0 f   HE_face.obj
 0002:0008a910       ?edgeChain@HE_face@@QBE?AV?$vector@PAVHE_edge@@V?$allocator@PAVHE_edge@@@std@@@std@@PBVHE_vert@@0@Z 00563910 f   HE_face.obj
 0002:0008ab10       ?edgeIncidentToVertex@HE_face@@QBEPAVHE_edge@@PAVHE_vert@@@Z 00563b10 f   HE_face.obj
 0002:0008ac80       ??0HE_vert@@QAE@ABV0@@Z    00563c80 f   HE_vert.obj
 0002:0008ad10       ??0HE_vert@@QAE@ABVVertexObj@@H@Z 00563d10 f   HE_vert.obj
 0002:0008ad90       ?setEdge@HE_vert@@QAEXPBVHE_edge@@@Z 00563d90 f   HE_vert.obj
 0002:0008ade0       ?modifyVertex@HE_vert@@QAEXABVVertexObj@@@Z 00563de0 f   HE_vert.obj
 0002:0008ae40       ?edges@HE_vert@@QBE?AV?$vector@PAVHE_edge@@V?$allocator@PAVHE_edge@@@std@@@std@@XZ 00563e40 f   HE_vert.obj
 0002:0008af90       ?edgesSorted@HE_vert@@QBE?AV?$vector@PAVHE_edge@@V?$allocator@PAVHE_edge@@@std@@@std@@PAVHE_edge@@@Z 00563f90 f   HE_vert.obj
 0002:0008b0f0       ?edgesClockWise@HE_vert@@QBE?AV?$vector@PAVHE_edge@@V?$allocator@PAVHE_edge@@@std@@@std@@XZ 005640f0 f   HE_vert.obj
 0002:0008b240       ?faces@HE_vert@@QBE?AV?$vector@PAVHE_face@@V?$allocator@PAVHE_face@@@std@@@std@@XZ 00564240 f   HE_vert.obj
 0002:0008b3a0       ??0?$vector@PAVHE_face@@V?$allocator@PAVHE_face@@@std@@@std@@QAE@XZ 005643a0 f i HE_vert.obj
 0002:0008b460       ??0?$vector@PAVHE_face@@V?$allocator@PAVHE_face@@@std@@@std@@QAE@ABV01@@Z 00564460 f i HE_vert.obj
 0002:0008b600       ?push_back@?$vector@PAVHE_face@@V?$allocator@PAVHE_face@@@std@@@std@@QAEXABQAVHE_face@@@Z 00564600 f i HE_vert.obj
 0002:0008b770       ??1?$_Vector_const_iterator@PAVHE_face@@V?$allocator@PAVHE_face@@@std@@@std@@QAE@XZ 00564770 f i HE_vert.obj
 0002:0008b7c0       ??1?$_Vector_iterator@PAVHE_face@@V?$allocator@PAVHE_face@@@std@@@std@@QAE@XZ 005647c0 f i HE_vert.obj
 0002:0008b810       ??0?$_Vector_const_iterator@PAVHE_face@@V?$allocator@PAVHE_face@@@std@@@std@@QAE@ABV01@@Z 00564810 f i HE_vert.obj
 0002:0008b880       ??1?$_Ranit@PAVHE_face@@HPBQAV1@ABQAV1@@std@@QAE@XZ 00564880 f i HE_vert.obj
 0002:0008b8d0       ??0?$_Ranit@PAVHE_face@@HPBQAV1@ABQAV1@@std@@QAE@ABU01@@Z 005648d0 f i HE_vert.obj
 0002:0008b930       ??1?$_Iterator_with_base@Urandom_access_iterator_tag@std@@PAVHE_face@@HPBQAV3@ABQAV3@V_Iterator_base@2@@std@@QAE@XZ 00564930 f i HE_vert.obj
 0002:0008b980       ??0?$_Iterator_with_base@Urandom_access_iterator_tag@std@@PAVHE_face@@HPBQAV3@ABQAV3@V_Iterator_base@2@@std@@QAE@ABU01@@Z 00564980 f i HE_vert.obj
 0002:0008b9e0       ?capacity@?$vector@PAVHE_face@@V?$allocator@PAVHE_face@@@std@@@std@@QBEIXZ 005649e0 f i HE_vert.obj
 0002:0008ba50       ?begin@?$vector@PAVHE_face@@V?$allocator@PAVHE_face@@@std@@@std@@QBE?AV?$_Vector_const_iterator@PAVHE_face@@V?$allocator@PAVHE_face@@@std@@@2@XZ 00564a50 f i HE_vert.obj
 0002:0008bae0       ?end@?$vector@PAVHE_face@@V?$allocator@PAVHE_face@@@std@@@std@@QAE?AV?$_Vector_iterator@PAVHE_face@@V?$allocator@PAVHE_face@@@std@@@2@XZ 00564ae0 f i HE_vert.obj
 0002:0008bb70       ?end@?$vector@PAVHE_face@@V?$allocator@PAVHE_face@@@std@@@std@@QBE?AV?$_Vector_const_iterator@PAVHE_face@@V?$allocator@PAVHE_face@@@std@@@2@XZ 00564b70 f i HE_vert.obj
 0002:0008bc00       ?insert@?$vector@PAVHE_face@@V?$allocator@PAVHE_face@@@std@@@std@@QAE?AV?$_Vector_iterator@PAVHE_face@@V?$allocator@PAVHE_face@@@std@@@2@V?$_Vector_const_iterator@PAVHE_face@@V?$allocator@PAVHE_face@@@std@@@2@ABQAVHE_face@@@Z 00564c00 f i HE_vert.obj
 0002:0008be00       ?_Orphan_range@?$vector@PAVHE_face@@V?$allocator@PAVHE_face@@@std@@@std@@IBEXPAPAVHE_face@@0@Z 00564e00 f i HE_vert.obj
 0002:0008bf10       ?begin@?$vector@PAVHE_face@@V?$allocator@PAVHE_face@@@std@@@std@@QAE?AV?$_Vector_iterator@PAVHE_face@@V?$allocator@PAVHE_face@@@std@@@2@XZ 00564f10 f i HE_vert.obj
 0002:0008bfa0       ?_Insert_n@?$vector@PAVHE_face@@V?$allocator@PAVHE_face@@@std@@@std@@IAEXV?$_Vector_const_iterator@PAVHE_face@@V?$allocator@PAVHE_face@@@std@@@2@IABQAVHE_face@@@Z 00564fa0 f i HE_vert.obj
 0002:0008c500       ??0?$_Vector_const_iterator@PAVHE_face@@V?$allocator@PAVHE_face@@@std@@@std@@QAE@PAPAVHE_face@@PBV_Container_base_secure@1@@Z 00565500 f i HE_vert.obj
 0002:0008c640       ??G?$_Vector_const_iterator@PAVHE_face@@V?$allocator@PAVHE_face@@@std@@@std@@QBEHABV01@@Z 00565640 f i HE_vert.obj
 0002:0008c6b0       ??0?$_Vector_iterator@PAVHE_face@@V?$allocator@PAVHE_face@@@std@@@std@@QAE@PAPAVHE_face@@PBV_Container_base_secure@1@@Z 005656b0 f i HE_vert.obj
 0002:0008c710       ??H?$_Vector_iterator@PAVHE_face@@V?$allocator@PAVHE_face@@@std@@@std@@QBE?AV01@H@Z 00565710 f i HE_vert.obj
 0002:0008c830       ??0?$_Ranit@PAVHE_face@@HPBQAV1@ABQAV1@@std@@QAE@XZ 00565830 f i HE_vert.obj
 0002:0008c890       ??0?$_Vector_iterator@PAVHE_face@@V?$allocator@PAVHE_face@@@std@@@std@@QAE@ABV01@@Z 00565890 f i HE_vert.obj
 0002:0008c8f0       ??0?$_Iterator_with_base@Urandom_access_iterator_tag@std@@PAVHE_face@@HPBQAV3@ABQAV3@V_Iterator_base@2@@std@@QAE@XZ 005658f0 f i HE_vert.obj
 0002:0008c950       ?_Compat@?$_Vector_const_iterator@PAVHE_face@@V?$allocator@PAVHE_face@@@std@@@std@@QBEXABV12@@Z 00565950 f i HE_vert.obj
 0002:0008ca50       ??Y?$_Vector_iterator@PAVHE_face@@V?$allocator@PAVHE_face@@@std@@@std@@QAEAAV01@H@Z 00565a50 f i HE_vert.obj
 0002:0008cab0       ??Y?$_Vector_const_iterator@PAVHE_face@@V?$allocator@PAVHE_face@@@std@@@std@@QAEAAV01@H@Z 00565ab0 f i HE_vert.obj
 0002:0008cc40       ??$_Ucopy@V?$_Vector_const_iterator@PAVHE_face@@V?$allocator@PAVHE_face@@@std@@@std@@@?$vector@PAVHE_face@@V?$allocator@PAVHE_face@@@std@@@std@@IAEPAPAVHE_face@@V?$_Vector_const_iterator@PAVHE_face@@V?$allocator@PAVHE_face@@@std@@@1@0PAPAV2@@Z 00565c40 f i HE_vert.obj
 0002:0008cd80       ??$_Umove@PAPAVHE_face@@@?$vector@PAVHE_face@@V?$allocator@PAVHE_face@@@std@@@std@@IAEPAPAVHE_face@@PAPAV2@00@Z 00565d80 f i HE_vert.obj
 0002:0008cdf0       ??$fill@PAPAVHE_face@@PAV1@@std@@YAXPAPAVHE_face@@0ABQAV1@@Z 00565df0 f i HE_vert.obj
 0002:0008ce60       ??$_Unchecked_move_backward@PAPAVHE_face@@PAPAV1@@stdext@@YAPAPAVHE_face@@PAPAV1@00@Z 00565e60 f i HE_vert.obj
 0002:0008cf30       ??$unchecked_uninitialized_copy@V?$_Vector_const_iterator@PAVHE_face@@V?$allocator@PAVHE_face@@@std@@@std@@PAPAVHE_face@@V?$allocator@PAVHE_face@@@2@@stdext@@YAPAPAVHE_face@@V?$_Vector_const_iterator@PAVHE_face@@V?$allocator@PAVHE_face@@@std@@@std@@0PAPAV1@AAV?$allocator@PAVHE_face@@@3@@Z 00565f30 f i HE_vert.obj
 0002:0008d0a0       ??$_Unchecked_uninitialized_move@PAPAVHE_face@@PAPAV1@V?$allocator@PAVHE_face@@@std@@@stdext@@YAPAPAVHE_face@@PAPAV1@00AAV?$allocator@PAVHE_face@@@std@@@Z 005660a0 f i HE_vert.obj
 0002:0008d150       ??$_Fill@PAPAVHE_face@@PAV1@@std@@YAXPAPAVHE_face@@0ABQAV1@@Z 00566150 f i HE_vert.obj
 0002:0008d1e0       ??$_Iter_random@PAPAVHE_face@@PAPAV1@@std@@YA?AUrandom_access_iterator_tag@0@ABQAPAVHE_face@@0@Z 005661e0 f i HE_vert.obj
 0002:0008d250       ??$_Move_cat@PAPAVHE_face@@@std@@YA?AU_Undefined_move_tag@0@ABQAPAVHE_face@@@Z 00566250 f i HE_vert.obj
 0002:0008d2c0       ??$_Move_backward_opt@PAPAVHE_face@@PAPAV1@Urandom_access_iterator_tag@std@@U_Undefined_move_tag@3@@std@@YAPAPAVHE_face@@PAPAV1@00Urandom_access_iterator_tag@0@U_Undefined_move_tag@0@U_Range_checked_iterator_tag@0@@Z 005662c0 f i HE_vert.obj
 0002:0008d360       ??$_Checked_base@V?$_Vector_const_iterator@PAVHE_face@@V?$allocator@PAVHE_face@@@std@@@std@@@std@@YA?AV?$_Vector_const_iterator@PAVHE_face@@V?$allocator@PAVHE_face@@@std@@@0@AAV10@@Z 00566360 f i HE_vert.obj
 0002:0008d420       ??$_Ptr_cat@V?$_Vector_const_iterator@PAVHE_face@@V?$allocator@PAVHE_face@@@std@@@std@@PAPAVHE_face@@@std@@YA?AU_Scalar_ptr_iterator_tag@0@AAV?$_Vector_const_iterator@PAVHE_face@@V?$allocator@PAVHE_face@@@std@@@0@AAPAPAVHE_face@@@Z 00566420 f i HE_vert.obj
 0002:0008d490       ??$_Uninit_copy@V?$_Vector_const_iterator@PAVHE_face@@V?$allocator@PAVHE_face@@@std@@@std@@PAPAVHE_face@@V?$allocator@PAVHE_face@@@2@@std@@YAPAPAVHE_face@@V?$_Vector_const_iterator@PAVHE_face@@V?$allocator@PAVHE_face@@@std@@@0@0PAPAV1@AAV?$allocator@PAVHE_face@@@0@U_Scalar_ptr_iterator_tag@0@U_Range_checked_iterator_tag@0@@Z 00566490 f i HE_vert.obj
 0002:0008d630       ??$_Uninit_move@PAPAVHE_face@@PAPAV1@V?$allocator@PAVHE_face@@@std@@U_Undefined_move_tag@3@@std@@YAPAPAVHE_face@@PAPAV1@00AAV?$allocator@PAVHE_face@@@0@U_Undefined_move_tag@0@U_Range_checked_iterator_tag@0@@Z 00566630 f i HE_vert.obj
 0002:0008d690       ??$_Debug_range@PAPAVHE_face@@@std@@YAXPAPAVHE_face@@0PB_WI@Z 00566690 f i HE_vert.obj
 0002:0008d710       ??$_Copy_backward_opt@PAPAVHE_face@@PAPAV1@Urandom_access_iterator_tag@std@@@std@@YAPAPAVHE_face@@PAPAV1@00Urandom_access_iterator_tag@0@U_Scalar_ptr_iterator_tag@0@U_Range_checked_iterator_tag@0@@Z 00566710 f i HE_vert.obj
 0002:0008d800       ??D?$_Vector_const_iterator@PAVHE_face@@V?$allocator@PAVHE_face@@@std@@@std@@QBEABQAVHE_face@@XZ 00566800 f i HE_vert.obj
 0002:0008d910       ??$_Checked_base@V?$_Vector_const_iterator@PAVHE_face@@V?$allocator@PAVHE_face@@@std@@@std@@@std@@YA?AV?$_Vector_const_iterator@PAVHE_face@@V?$allocator@PAVHE_face@@@std@@@0@AAV10@U_Unchanged_checked_iterator_base_type_tag@0@@Z 00566910 f i HE_vert.obj
 0002:0008d980       ??$_Debug_range@V?$_Vector_const_iterator@PAVHE_face@@V?$allocator@PAVHE_face@@@std@@@std@@@std@@YAXV?$_Vector_const_iterator@PAVHE_face@@V?$allocator@PAVHE_face@@@std@@@0@0PB_WI@Z 00566980 f i HE_vert.obj
 0002:0008dab0       ??$_Debug_pointer@PAVHE_face@@@std@@YAXPAPAVHE_face@@PB_WI@Z 00566ab0 f i HE_vert.obj
 0002:0008db20       ??$unchecked_uninitialized_copy@PAPAVHE_face@@PAPAV1@V?$allocator@PAVHE_face@@@std@@@stdext@@YAPAPAVHE_face@@PAPAV1@00AAV?$allocator@PAVHE_face@@@std@@@Z 00566b20 f i HE_vert.obj
 0002:0008dbd0       ??$_Debug_range2@PAPAVHE_face@@@std@@YAXPAPAVHE_face@@0PB_WIUrandom_access_iterator_tag@0@@Z 00566bd0 f i HE_vert.obj
 0002:0008dc80       ??$_Iter_cat@V?$_Vector_const_iterator@PAVHE_face@@V?$allocator@PAVHE_face@@@std@@@std@@@std@@YA?AUrandom_access_iterator_tag@0@ABV?$_Vector_const_iterator@PAVHE_face@@V?$allocator@PAVHE_face@@@std@@@0@@Z 00566c80 f i HE_vert.obj
 0002:0008dcf0       ??$_Debug_range2@V?$_Vector_const_iterator@PAVHE_face@@V?$allocator@PAVHE_face@@@std@@@std@@@std@@YAXV?$_Vector_const_iterator@PAVHE_face@@V?$allocator@PAVHE_face@@@std@@@0@0PB_WIUrandom_access_iterator_tag@0@@Z 00566cf0 f i HE_vert.obj
 0002:0008de20       ??$_Uninit_copy@PAPAVHE_face@@PAPAV1@V?$allocator@PAVHE_face@@@std@@@std@@YAPAPAVHE_face@@PAPAV1@00AAV?$allocator@PAVHE_face@@@0@U_Scalar_ptr_iterator_tag@0@U_Range_checked_iterator_tag@0@@Z 00566e20 f i HE_vert.obj
 0002:0008df00       ??9?$_Vector_const_iterator@PAVHE_face@@V?$allocator@PAVHE_face@@@std@@@std@@QBE_NABV01@@Z 00566f00 f i HE_vert.obj
 0002:0008df70       ??M?$_Vector_const_iterator@PAVHE_face@@V?$allocator@PAVHE_face@@@std@@@std@@QBE_NABV01@@Z 00566f70 f i HE_vert.obj
 0002:0008dfe0       ??8?$_Vector_const_iterator@PAVHE_face@@V?$allocator@PAVHE_face@@@std@@@std@@QBE_NABV01@@Z 00566fe0 f i HE_vert.obj
 0002:0008e050       ??$_Debug_pointer@V?$_Vector_const_iterator@PAVHE_face@@V?$allocator@PAVHE_face@@@std@@@std@@@std@@YAXAAV?$_Vector_const_iterator@PAVHE_face@@V?$allocator@PAVHE_face@@@std@@@0@PB_WI@Z 00567050 f i HE_vert.obj
 0002:0008e080       ?knifeEdgeNotInBorders@MeshComponent@@ABE_NABUKniveLineInfo@ObjEd@@H@Z 00567080 f   KniveLine.obj
 0002:0008e100       ?kniveLine@MeshComponent@@QAE?AVOpKnifeLine@OpInfo@@AAUKniveLineInfo@ObjEd@@AAUD3DXMATRIX@@UD3DXVECTOR3@@@Z 00567100 f   KniveLine.obj
 0002:0008f190       ??0OpKnifeLine@OpInfo@@QAE@ABV01@@Z 00568190 f i KniveLine.obj
 0002:0008f270       ??0OpKnifeLine@OpInfo@@QAE@ABUKniveLineInfo@ObjEd@@ABV?$vector@UEdgeIntersection@ObjEd@@V?$allocator@UEdgeIntersection@ObjEd@@@std@@@std@@H@Z 00568270 f i KniveLine.obj
 0002:0008f350       ??0OpKnifeLine@OpInfo@@QAE@ABUKniveLineInfo@ObjEd@@H@Z 00568350 f i KniveLine.obj
 0002:0008f3d0       ??4Face@@QAEAAV0@ABV0@@Z   005683d0 f i KniveLine.obj
 0002:0008f440       ?kniveLine@MeshComponent@@QAEXABVOpKnifeLine@OpInfo@@@Z 00568440 f   KniveLine.obj
 0002:0008f4e0       ?kniveLineCutOneFace@MeshComponent@@AAEXABVOpKnifeLine@OpInfo@@@Z 005684e0 f   KniveLine.obj
 0002:0008f950       ?kniveLineCutManyFaces@MeshComponent@@AAEXABVOpKnifeLine@OpInfo@@@Z 00568950 f   KniveLine.obj
 0002:00090490       ??1?$_Iterator@$00@?$list@UFacesOfEdge@@V?$allocator@UFacesOfEdge@@@std@@@std@@QAE@XZ 00569490 f i KniveLine.obj
 0002:000904e0       ??0?$_Const_iterator@$00@?$list@UFacesOfEdge@@V?$allocator@UFacesOfEdge@@@std@@@std@@QAE@ABV012@@Z 005694e0 f i KniveLine.obj
 0002:00090550       ??1?$_Const_iterator@$00@?$list@UFacesOfEdge@@V?$allocator@UFacesOfEdge@@@std@@@std@@QAE@XZ 00569550 f i KniveLine.obj
 0002:000905a0       ??0?$_Bidit@UFacesOfEdge@@HPBU1@ABU1@@std@@QAE@ABU01@@Z 005695a0 f i KniveLine.obj
 0002:00090600       ??1?$_Bidit@UFacesOfEdge@@HPBU1@ABU1@@std@@QAE@XZ 00569600 f i KniveLine.obj
 0002:00090650       ??0?$_Iterator_with_base@Ubidirectional_iterator_tag@std@@UFacesOfEdge@@HPBU3@ABU3@V_Iterator_base@2@@std@@QAE@ABU01@@Z 00569650 f i KniveLine.obj
 0002:000906b0       ??1?$_Iterator_with_base@Ubidirectional_iterator_tag@std@@UFacesOfEdge@@HPBU3@ABU3@V_Iterator_base@2@@std@@QAE@XZ 005696b0 f i KniveLine.obj
 0002:00090700       ?knifeEdgeContainsFace@MeshComponent@@ABE_NHABV?$vector@HV?$allocator@H@std@@@std@@AAH@Z 00569700 f   KniveLine.obj
 0002:00090820       ?resize@?$vector@HV?$allocator@H@std@@@std@@QAEXI@Z 00569820 f i KniveLine.obj
 0002:00090880       ?push_back@?$vector@HV?$allocator@H@std@@@std@@QAEXABH@Z 00569880 f i KniveLine.obj
 0002:000909f0       ??0?$vector@UEdgeIntersection@ObjEd@@V?$allocator@UEdgeIntersection@ObjEd@@@std@@@std@@QAE@I@Z 005699f0 f i KniveLine.obj
 0002:00090ac0       ?empty@?$vector@UEdgeIntersection@ObjEd@@V?$allocator@UEdgeIntersection@ObjEd@@@std@@@std@@QBE_NXZ 00569ac0 f i KniveLine.obj
 0002:00090b20       ??A?$vector@UEdgeIntersection@ObjEd@@V?$allocator@UEdgeIntersection@ObjEd@@@std@@@std@@QBEABUEdgeIntersection@ObjEd@@I@Z 00569b20 f i KniveLine.obj
 0002:00090ca0       ??A?$vector@UEdgeIntersection@ObjEd@@V?$allocator@UEdgeIntersection@ObjEd@@@std@@@std@@QAEAAUEdgeIntersection@ObjEd@@I@Z 00569ca0 f i KniveLine.obj
 0002:00090e20       ??0?$vector@VFace@@V?$allocator@VFace@@@std@@@std@@QAE@I@Z 00569e20 f i KniveLine.obj
 0002:00090f20       ??0Face@@QAE@XZ            00569f20 f i KniveLine.obj
 0002:00090fd0       ??A?$vector@VFace@@V?$allocator@VFace@@@std@@@std@@QAEAAVFace@@I@Z 00569fd0 f i KniveLine.obj
 0002:00091150       ??0?$vector@VVertexObj@@V?$allocator@VVertexObj@@@std@@@std@@QAE@I@Z 0056a150 f i KniveLine.obj
 0002:00091220       ??1?$vector@VVertexObj@@V?$allocator@VVertexObj@@@std@@@std@@QAE@XZ 0056a220 f i KniveLine.obj
 0002:000912c0       ??A?$vector@VVertexObj@@V?$allocator@VVertexObj@@@std@@@std@@QAEAAVVertexObj@@I@Z 0056a2c0 f i KniveLine.obj
 0002:00091440       ??0?$list@UFacesOfEdge@@V?$allocator@UFacesOfEdge@@@std@@@std@@QAE@XZ 0056a440 f i KniveLine.obj
 0002:00091510       ??1?$list@UFacesOfEdge@@V?$allocator@UFacesOfEdge@@@std@@@std@@QAE@XZ 0056a510 f i KniveLine.obj
 0002:000915b0       ?begin@?$list@UFacesOfEdge@@V?$allocator@UFacesOfEdge@@@std@@@std@@QAE?AV?$_Iterator@$00@12@XZ 0056a5b0 f i KniveLine.obj
 0002:00091640       ?end@?$list@UFacesOfEdge@@V?$allocator@UFacesOfEdge@@@std@@@std@@QAE?AV?$_Iterator@$00@12@XZ 0056a640 f i KniveLine.obj
 0002:000916d0       ?size@?$list@UFacesOfEdge@@V?$allocator@UFacesOfEdge@@@std@@@std@@QBEIXZ 0056a6d0 f i KniveLine.obj
 0002:00091710       ?push_back@?$list@UFacesOfEdge@@V?$allocator@UFacesOfEdge@@@std@@@std@@QAEXABUFacesOfEdge@@@Z 0056a710 f i KniveLine.obj
 0002:00091810       ?erase@?$list@UFacesOfEdge@@V?$allocator@UFacesOfEdge@@@std@@@std@@QAE?AV?$_Iterator@$00@12@V?$_Const_iterator@$00@12@@Z 0056a810 f i KniveLine.obj
 0002:00091a60       ??D?$_Iterator@$00@?$list@UFacesOfEdge@@V?$allocator@UFacesOfEdge@@@std@@@std@@QBEAAUFacesOfEdge@@XZ 0056aa60 f i KniveLine.obj
 0002:00091ab0       ??0EdgeIntersection@ObjEd@@QAE@XZ 0056aab0 f i KniveLine.obj
 0002:00091b10       ??1?$_Vector_val@VVertexObj@@V?$allocator@VVertexObj@@@std@@@std@@QAE@XZ 0056ab10 f i KniveLine.obj
 0002:00091b60       ??1?$_List_val@UFacesOfEdge@@V?$allocator@UFacesOfEdge@@@std@@@std@@QAE@XZ 0056ab60 f i KniveLine.obj
 0002:00091bb0       ??1?$_List_ptr@UFacesOfEdge@@V?$allocator@UFacesOfEdge@@@std@@@std@@QAE@XZ 0056abb0 f i KniveLine.obj
 0002:00091c00       ??1?$_List_nod@UFacesOfEdge@@V?$allocator@UFacesOfEdge@@@std@@@std@@QAE@XZ 0056ac00 f i KniveLine.obj
 0002:00091c50       ?resize@?$vector@HV?$allocator@H@std@@@std@@QAEXIH@Z 0056ac50 f i KniveLine.obj
 0002:00091ef0       ?insert@?$vector@HV?$allocator@H@std@@@std@@QAE?AV?$_Vector_iterator@HV?$allocator@H@std@@@2@V?$_Vector_const_iterator@HV?$allocator@H@std@@@2@ABH@Z 0056aef0 f i KniveLine.obj
 0002:000920f0       ?_Construct_n@?$vector@UEdgeIntersection@ObjEd@@V?$allocator@UEdgeIntersection@ObjEd@@@std@@@std@@QAEXIABUEdgeIntersection@ObjEd@@@Z 0056b0f0 f i KniveLine.obj
 0002:00092200       ?_Construct_n@?$vector@VFace@@V?$allocator@VFace@@@std@@@std@@QAEXIABVFace@@@Z 0056b200 f i KniveLine.obj
 0002:00092310       ??0?$_Vector_val@VFace@@V?$allocator@VFace@@@std@@@std@@IAE@V?$allocator@VFace@@@1@@Z 0056b310 f i KniveLine.obj
 0002:00092390       ??0?$allocator@VFace@@@std@@QAE@XZ 0056b390 f i KniveLine.obj
 0002:000923d0       ?_Construct_n@?$vector@VVertexObj@@V?$allocator@VVertexObj@@@std@@@std@@QAEXIABVVertexObj@@@Z 0056b3d0 f i KniveLine.obj
 0002:000924e0       ?size@?$vector@VVertexObj@@V?$allocator@VVertexObj@@@std@@@std@@QBEIXZ 0056b4e0 f i KniveLine.obj
 0002:00092530       ?_Tidy@?$vector@VVertexObj@@V?$allocator@VVertexObj@@@std@@@std@@IAEXXZ 0056b530 f i KniveLine.obj
 0002:00092610       ??0?$_Vector_val@VVertexObj@@V?$allocator@VVertexObj@@@std@@@std@@IAE@V?$allocator@VVertexObj@@@1@@Z 0056b610 f i KniveLine.obj
 0002:00092690       ??1?$_Container_base_aux_alloc_empty@V?$allocator@VVertexObj@@@std@@@std@@IAE@XZ 0056b690 f i KniveLine.obj
 0002:000926f0       ??0?$allocator@VVertexObj@@@std@@QAE@XZ 0056b6f0 f i KniveLine.obj
 0002:00092730       ?_Nextnode@?$list@UFacesOfEdge@@V?$allocator@UFacesOfEdge@@@std@@@std@@KAAAPAU_Node@?$_List_nod@UFacesOfEdge@@V?$allocator@UFacesOfEdge@@@std@@@2@PAU342@@Z 0056b730 f i KniveLine.obj
 0002:00092770       ?_Prevnode@?$list@UFacesOfEdge@@V?$allocator@UFacesOfEdge@@@std@@@std@@KAAAPAU_Node@?$_List_nod@UFacesOfEdge@@V?$allocator@UFacesOfEdge@@@std@@@2@PAU342@@Z 0056b770 f i KniveLine.obj
 0002:000927b0       ?_Make_iter@?$list@UFacesOfEdge@@V?$allocator@UFacesOfEdge@@@std@@@std@@QBE?AV?$_Iterator@$00@12@V?$_Const_iterator@$00@12@@Z 0056b7b0 f i KniveLine.obj
 0002:00092880       ?_Insert@?$list@UFacesOfEdge@@V?$allocator@UFacesOfEdge@@@std@@@std@@QAEXV?$_Const_iterator@$00@12@ABUFacesOfEdge@@@Z 0056b880 f i KniveLine.obj
 0002:000929d0       ?_Buynode@?$list@UFacesOfEdge@@V?$allocator@UFacesOfEdge@@@std@@@std@@IAEPAU_Node@?$_List_nod@UFacesOfEdge@@V?$allocator@UFacesOfEdge@@@std@@@2@XZ 0056b9d0 f i KniveLine.obj
 0002:00092b90       ?_Tidy@?$list@UFacesOfEdge@@V?$allocator@UFacesOfEdge@@@std@@@std@@IAEXXZ 0056bb90 f i KniveLine.obj
 0002:00092c50       ?_Orphan_ptr@?$list@UFacesOfEdge@@V?$allocator@UFacesOfEdge@@@std@@@std@@IBEXAAV12@PAU_Node@?$_List_nod@UFacesOfEdge@@V?$allocator@UFacesOfEdge@@@std@@@2@@Z 0056bc50 f i KniveLine.obj
 0002:00092d70       ??0?$_List_val@UFacesOfEdge@@V?$allocator@UFacesOfEdge@@@std@@@std@@QAE@V?$allocator@UFacesOfEdge@@@1@@Z 0056bd70 f i KniveLine.obj
 0002:00092df0       ??1?$_Container_base_aux_alloc_empty@V?$allocator@UFacesOfEdge@@@std@@@std@@IAE@XZ 0056bdf0 f i KniveLine.obj
 0002:00092e50       ??0?$allocator@UFacesOfEdge@@@std@@QAE@XZ 0056be50 f i KniveLine.obj
 0002:00092e90       ?deallocate@?$allocator@U_Node@?$_List_nod@UFacesOfEdge@@V?$allocator@UFacesOfEdge@@@std@@@std@@@std@@QAEXPAU_Node@?$_List_nod@UFacesOfEdge@@V?$allocator@UFacesOfEdge@@@std@@@2@I@Z 0056be90 f i KniveLine.obj
 0002:00092ef0       ?destroy@?$allocator@U_Node@?$_List_nod@UFacesOfEdge@@V?$allocator@UFacesOfEdge@@@std@@@std@@@std@@QAEXPAU_Node@?$_List_nod@UFacesOfEdge@@V?$allocator@UFacesOfEdge@@@std@@@2@@Z 0056bef0 f i KniveLine.obj
 0002:00092f50       ??0?$_Iterator@$00@?$list@UFacesOfEdge@@V?$allocator@UFacesOfEdge@@@std@@@std@@QAE@PAU_Node@?$_List_nod@UFacesOfEdge@@V?$allocator@UFacesOfEdge@@@std@@@2@PBV12@@Z 0056bf50 f i KniveLine.obj
 0002:00092fb0       ??D?$_Const_iterator@$00@?$list@UFacesOfEdge@@V?$allocator@UFacesOfEdge@@@std@@@std@@QBEABUFacesOfEdge@@XZ 0056bfb0 f i KniveLine.obj
 0002:000930e0       ??E?$_Const_iterator@$00@?$list@UFacesOfEdge@@V?$allocator@UFacesOfEdge@@@std@@@std@@QAE?AV012@H@Z 0056c0e0 f i KniveLine.obj
 0002:00093200       ?_Mynode@?$_Const_iterator@$00@?$list@UFacesOfEdge@@V?$allocator@UFacesOfEdge@@@std@@@std@@QBEPAU_Node@?$_List_nod@UFacesOfEdge@@V?$allocator@UFacesOfEdge@@@std@@@3@XZ 0056c200 f i KniveLine.obj
 0002:00093240       ?_Insert_n@?$vector@HV?$allocator@H@std@@@std@@IAEXV?$_Vector_const_iterator@HV?$allocator@H@std@@@2@IABH@Z 0056c240 f i KniveLine.obj
 0002:000937a0       ?_Ufill@?$vector@UEdgeIntersection@ObjEd@@V?$allocator@UEdgeIntersection@ObjEd@@@std@@@std@@IAEPAUEdgeIntersection@ObjEd@@PAU34@IABU34@@Z 0056c7a0 f i KniveLine.obj
 0002:00093820       ?_Buy@?$vector@VFace@@V?$allocator@VFace@@@std@@@std@@IAE_NI@Z 0056c820 f i KniveLine.obj
 0002:00093900       ?_Ufill@?$vector@VFace@@V?$allocator@VFace@@@std@@@std@@IAEPAVFace@@PAV3@IABV3@@Z 0056c900 f i KniveLine.obj
 0002:00093980       ??0?$_Container_base_aux_alloc_empty@V?$allocator@VFace@@@std@@@std@@IAE@V?$allocator@VFace@@@1@@Z 0056c980 f i KniveLine.obj
 0002:000939f0       ??0?$allocator@VFace@@@std@@QAE@ABV01@@Z 0056c9f0 f i KniveLine.obj
 0002:00093a30       ?_Buy@?$vector@VVertexObj@@V?$allocator@VVertexObj@@@std@@@std@@IAE_NI@Z 0056ca30 f i KniveLine.obj
 0002:00093b10       ?_Destroy@?$vector@VVertexObj@@V?$allocator@VVertexObj@@@std@@@std@@IAEXPAVVertexObj@@0@Z 0056cb10 f i KniveLine.obj
 0002:00093b80       ?_Ufill@?$vector@VVertexObj@@V?$allocator@VVertexObj@@@std@@@std@@IAEPAVVertexObj@@PAV3@IABV3@@Z 0056cb80 f i KniveLine.obj
 0002:00093c00       ??0?$_Container_base_aux_alloc_empty@V?$allocator@VVertexObj@@@std@@@std@@IAE@V?$allocator@VVertexObj@@@1@@Z 0056cc00 f i KniveLine.obj
 0002:00093c70       ??0?$allocator@VVertexObj@@@std@@QAE@ABV01@@Z 0056cc70 f i KniveLine.obj
 0002:00093cb0       ?deallocate@?$allocator@VVertexObj@@@std@@QAEXPAVVertexObj@@I@Z 0056ccb0 f i KniveLine.obj
 0002:00093d10       ??H?$_Vector_iterator@HV?$allocator@H@std@@@std@@QBE?AV01@H@Z 0056cd10 f i KniveLine.obj
 0002:00093e30       ?_Myval@?$list@UFacesOfEdge@@V?$allocator@UFacesOfEdge@@@std@@@std@@KAAAUFacesOfEdge@@PAU_Node@?$_List_nod@UFacesOfEdge@@V?$allocator@UFacesOfEdge@@@std@@@2@@Z 0056ce30 f i KniveLine.obj
 0002:00093e70       ?clear@?$list@UFacesOfEdge@@V?$allocator@UFacesOfEdge@@@std@@@std@@QAEXXZ 0056ce70 f i KniveLine.obj
 0002:00093f80       ?_Buynode@?$list@UFacesOfEdge@@V?$allocator@UFacesOfEdge@@@std@@@std@@IAEPAU_Node@?$_List_nod@UFacesOfEdge@@V?$allocator@UFacesOfEdge@@@std@@@2@PAU342@0ABUFacesOfEdge@@@Z 0056cf80 f i KniveLine.obj
 0002:00094160       ?_Incsize@?$list@UFacesOfEdge@@V?$allocator@UFacesOfEdge@@@std@@@std@@IAEXI@Z 0056d160 f i KniveLine.obj
 0002:00094280       ??0?$_List_ptr@UFacesOfEdge@@V?$allocator@UFacesOfEdge@@@std@@@std@@IAE@V?$allocator@UFacesOfEdge@@@1@@Z 0056d280 f i KniveLine.obj
 0002:00094300       ??0?$allocator@UFacesOfEdge@@@std@@QAE@ABV01@@Z 0056d300 f i KniveLine.obj
 0002:00094340       ?allocate@?$allocator@U_Node@?$_List_nod@UFacesOfEdge@@V?$allocator@UFacesOfEdge@@@std@@@std@@@std@@QAEPAU_Node@?$_List_nod@UFacesOfEdge@@V?$allocator@UFacesOfEdge@@@std@@@2@I@Z 0056d340 f i KniveLine.obj
 0002:000943a0       ?construct@?$allocator@PAU_Node@?$_List_nod@UFacesOfEdge@@V?$allocator@UFacesOfEdge@@@std@@@std@@@std@@QAEXPAPAU_Node@?$_List_nod@UFacesOfEdge@@V?$allocator@UFacesOfEdge@@@std@@@2@ABQAU342@@Z 0056d3a0 f i KniveLine.obj
 0002:00094400       ?destroy@?$allocator@PAU_Node@?$_List_nod@UFacesOfEdge@@V?$allocator@UFacesOfEdge@@@std@@@std@@@std@@QAEXPAPAU_Node@?$_List_nod@UFacesOfEdge@@V?$allocator@UFacesOfEdge@@@std@@@2@@Z 0056d400 f i KniveLine.obj
 0002:00094460       ??0?$_Const_iterator@$00@?$list@UFacesOfEdge@@V?$allocator@UFacesOfEdge@@@std@@@std@@QAE@PAU_Node@?$_List_nod@UFacesOfEdge@@V?$allocator@UFacesOfEdge@@@std@@@2@PBV12@@Z 0056d460 f i KniveLine.obj
 0002:00094520       ??E?$_Const_iterator@$00@?$list@UFacesOfEdge@@V?$allocator@UFacesOfEdge@@@std@@@std@@QAEAAV012@XZ 0056d520 f i KniveLine.obj
 0002:00094660       ??0?$_Vector_iterator@HV?$allocator@H@std@@@std@@QAE@ABV01@@Z 0056d660 f i KniveLine.obj
 0002:000946c0       ??0?$_Bidit@UFacesOfEdge@@HPBU1@ABU1@@std@@QAE@XZ 0056d6c0 f i KniveLine.obj
 0002:00094720       ??0?$_Iterator_with_base@Ubidirectional_iterator_tag@std@@UFacesOfEdge@@HPBU3@ABU3@V_Iterator_base@2@@std@@QAE@XZ 0056d720 f i KniveLine.obj
 0002:00094780       ?max_size@?$vector@VFace@@V?$allocator@VFace@@@std@@@std@@QBEIXZ 0056d780 f i KniveLine.obj
 0002:000947e0       ?_Xlen@?$vector@VFace@@V?$allocator@VFace@@@std@@@std@@KAXXZ 0056d7e0 f i KniveLine.obj
 0002:000948d0       ?allocate@?$allocator@VFace@@@std@@QAEPAVFace@@I@Z 0056d8d0 f i KniveLine.obj
 0002:00094930       ?max_size@?$vector@VVertexObj@@V?$allocator@VVertexObj@@@std@@@std@@QBEIXZ 0056d930 f i KniveLine.obj
 0002:00094990       ?_Xlen@?$vector@VVertexObj@@V?$allocator@VVertexObj@@@std@@@std@@KAXXZ 0056d990 f i KniveLine.obj
 0002:00094a80       ?allocate@?$allocator@VVertexObj@@@std@@QAEPAVVertexObj@@I@Z 0056da80 f i KniveLine.obj
 0002:00094ae0       ??Y?$_Vector_iterator@HV?$allocator@H@std@@@std@@QAEAAV01@H@Z 0056dae0 f i KniveLine.obj
 0002:00094b40       ?max_size@?$list@UFacesOfEdge@@V?$allocator@UFacesOfEdge@@@std@@@std@@QBEIXZ 0056db40 f i KniveLine.obj
 0002:00094ba0       ??0?$_List_nod@UFacesOfEdge@@V?$allocator@UFacesOfEdge@@@std@@@std@@IAE@V?$allocator@UFacesOfEdge@@@1@@Z 0056dba0 f i KniveLine.obj
 0002:00094c20       ?construct@?$allocator@UFacesOfEdge@@@std@@QAEXPAUFacesOfEdge@@ABU3@@Z 0056dc20 f i KniveLine.obj
 0002:00094c80       ?max_size@?$allocator@VFace@@@std@@QBEIXZ 0056dc80 f i KniveLine.obj
 0002:00094cf0       ?max_size@?$allocator@VVertexObj@@@std@@QBEIXZ 0056dcf0 f i KniveLine.obj
 0002:00094d60       ??Y?$_Vector_const_iterator@HV?$allocator@H@std@@@std@@QAEAAV01@H@Z 0056dd60 f i KniveLine.obj
 0002:00094f00       ??0?$_Container_base_aux_alloc_empty@V?$allocator@UFacesOfEdge@@@std@@@std@@IAE@V?$allocator@UFacesOfEdge@@@1@@Z 0056df00 f i KniveLine.obj
 0002:00094f70       ?max_size@?$allocator@UFacesOfEdge@@@std@@QBEIXZ 0056df70 f i KniveLine.obj
 0002:00094fe0       ??$find@V?$_Vector_iterator@HV?$allocator@H@std@@@std@@H@std@@YA?AV?$_Vector_iterator@HV?$allocator@H@std@@@0@V10@0ABH@Z 0056dfe0 f i KniveLine.obj
 0002:00095170       ??$count@V?$_Vector_iterator@HV?$allocator@H@std@@@std@@H@std@@YAHV?$_Vector_iterator@HV?$allocator@H@std@@@0@0ABH@Z 0056e170 f i KniveLine.obj
 0002:000952a0       ??$find_if@V?$_Iterator@$00@?$list@UFacesOfEdge@@V?$allocator@UFacesOfEdge@@@std@@@std@@VFacesOfEdgeSearch@@@std@@YA?AV?$_Iterator@$00@?$list@UFacesOfEdge@@V?$allocator@UFacesOfEdge@@@std@@@0@V120@0VFacesOfEdgeSearch@@@Z 0056e2a0 f i KniveLine.obj
 0002:00095430       ??$reverse@V?$_Vector_iterator@HV?$allocator@H@std@@@std@@@std@@YAXV?$_Vector_iterator@HV?$allocator@H@std@@@0@0@Z 0056e430 f i KniveLine.obj
 0002:00095560       ??$reverse@V?$_Vector_iterator@UD3DXVECTOR3@@V?$allocator@UD3DXVECTOR3@@@std@@@std@@@std@@YAXV?$_Vector_iterator@UD3DXVECTOR3@@V?$allocator@UD3DXVECTOR3@@@std@@@0@0@Z 0056e560 f i KniveLine.obj
 0002:00095690       ??$_Destroy@U_Node@?$_List_nod@UFacesOfEdge@@V?$allocator@UFacesOfEdge@@@std@@@std@@@std@@YAXPAU_Node@?$_List_nod@UFacesOfEdge@@V?$allocator@UFacesOfEdge@@@std@@@0@@Z 0056e690 f i KniveLine.obj
 0002:000956c0       ??$fill@PAHH@std@@YAXPAH0ABH@Z 0056e6c0 f i KniveLine.obj
 0002:00095730       ??$_Unchecked_move_backward@PAHPAH@stdext@@YAPAHPAH00@Z 0056e730 f i KniveLine.obj
 0002:00095800       ??$unchecked_uninitialized_fill_n@PAUEdgeIntersection@ObjEd@@IU12@V?$allocator@UEdgeIntersection@ObjEd@@@std@@@stdext@@YAXPAUEdgeIntersection@ObjEd@@IABU12@AAV?$allocator@UEdgeIntersection@ObjEd@@@std@@@Z 0056e800 f i KniveLine.obj
 0002:000958a0       ??$unchecked_uninitialized_fill_n@PAVFace@@IV1@V?$allocator@VFace@@@std@@@stdext@@YAXPAVFace@@IABV1@AAV?$allocator@VFace@@@std@@@Z 0056e8a0 f i KniveLine.obj
 0002:00095940       ??$_Destroy_range@V?$allocator@VVertexObj@@@std@@@std@@YAXPAVVertexObj@@0AAV?$allocator@VVertexObj@@@0@@Z 0056e940 f i KniveLine.obj
 0002:000959c0       ??$unchecked_uninitialized_fill_n@PAVVertexObj@@IV1@V?$allocator@VVertexObj@@@std@@@stdext@@YAXPAVVertexObj@@IABV1@AAV?$allocator@VVertexObj@@@std@@@Z 0056e9c0 f i KniveLine.obj
 0002:00095a60       ??$?0UFacesOfEdge@@@?$allocator@PAU_Node@?$_List_nod@UFacesOfEdge@@V?$allocator@UFacesOfEdge@@@std@@@std@@@std@@QAE@ABV?$allocator@UFacesOfEdge@@@1@@Z 0056ea60 f i KniveLine.obj
 0002:00095aa0       ??$_Allocate@U_Node@?$_List_nod@UFacesOfEdge@@V?$allocator@UFacesOfEdge@@@std@@@std@@@std@@YAPAU_Node@?$_List_nod@UFacesOfEdge@@V?$allocator@UFacesOfEdge@@@std@@@0@IPAU120@@Z 0056eaa0 f i KniveLine.obj
 0002:00095b40       ??$_Construct@PAU_Node@?$_List_nod@UFacesOfEdge@@V?$allocator@UFacesOfEdge@@@std@@@std@@PAU123@@std@@YAXPAPAU_Node@?$_List_nod@UFacesOfEdge@@V?$allocator@UFacesOfEdge@@@std@@@0@ABQAU120@@Z 0056eb40 f i KniveLine.obj
 0002:00095be0       ??$_Destroy@PAU_Node@?$_List_nod@UFacesOfEdge@@V?$allocator@UFacesOfEdge@@@std@@@std@@@std@@YAXPAPAU_Node@?$_List_nod@UFacesOfEdge@@V?$allocator@UFacesOfEdge@@@std@@@0@@Z 0056ebe0 f i KniveLine.obj
 0002:00095c10       ??$_Allocate@VFace@@@std@@YAPAVFace@@IPAV1@@Z 0056ec10 f i KniveLine.obj
 0002:00095cb0       ??$_Allocate@VVertexObj@@@std@@YAPAVVertexObj@@IPAV1@@Z 0056ecb0 f i KniveLine.obj
 0002:00095d50       ??$?0UFacesOfEdge@@@?$allocator@U_Node@?$_List_nod@UFacesOfEdge@@V?$allocator@UFacesOfEdge@@@std@@@std@@@std@@QAE@ABV?$allocator@UFacesOfEdge@@@1@@Z 0056ed50 f i KniveLine.obj
 0002:00095d90       ??$_Construct@UFacesOfEdge@@U1@@std@@YAXPAUFacesOfEdge@@ABU1@@Z 0056ed90 f i KniveLine.obj
 0002:00095e30       ??1?$_Iterator@$0A@@?$list@UFacesOfEdge@@V?$allocator@UFacesOfEdge@@@std@@@std@@QAE@XZ 0056ee30 f i KniveLine.obj
 0002:00095e80       ??0?$_Iterator@$00@?$list@UFacesOfEdge@@V?$allocator@UFacesOfEdge@@@std@@@std@@QAE@ABV012@@Z 0056ee80 f i KniveLine.obj
 0002:00095ee0       ??1?$_Const_iterator@$0A@@?$list@UFacesOfEdge@@V?$allocator@UFacesOfEdge@@@std@@@std@@QAE@XZ 0056eee0 f i KniveLine.obj
 0002:00095f30       ??$_Checked_base@V?$_Vector_iterator@HV?$allocator@H@std@@@std@@@std@@YA?AV?$_Vector_iterator@HV?$allocator@H@std@@@0@AAV10@@Z 0056ef30 f i KniveLine.obj
 0002:00095ff0       ??$_Find@V?$_Vector_iterator@HV?$allocator@H@std@@@std@@H@std@@YA?AV?$_Vector_iterator@HV?$allocator@H@std@@@0@V10@0ABH@Z 0056eff0 f i KniveLine.obj
 0002:00096170       ??$_Checked_assign_from_base@V?$_Vector_iterator@HV?$allocator@H@std@@@std@@@std@@YAXAAV?$_Vector_iterator@HV?$allocator@H@std@@@0@ABV10@@Z 0056f170 f i KniveLine.obj
 0002:000961c0       ??$_Count@V?$_Vector_iterator@HV?$allocator@H@std@@@std@@H@std@@YAHV?$_Vector_iterator@HV?$allocator@H@std@@@0@0ABH@Z 0056f1c0 f i KniveLine.obj
 0002:00096330       ??$_Checked_base@V?$_Iterator@$00@?$list@UFacesOfEdge@@V?$allocator@UFacesOfEdge@@@std@@@std@@@std@@YA?AV?$_Iterator@$0A@@?$list@UFacesOfEdge@@V?$allocator@UFacesOfEdge@@@std@@@0@AAV?$_Iterator@$00@20@@Z 0056f330 f i KniveLine.obj
 0002:000963f0       ??$_Find_if@V?$_Iterator@$0A@@?$list@UFacesOfEdge@@V?$allocator@UFacesOfEdge@@@std@@@std@@VFacesOfEdgeSearch@@@std@@YA?AV?$_Iterator@$0A@@?$list@UFacesOfEdge@@V?$allocator@UFacesOfEdge@@@std@@@0@V120@0VFacesOfEdgeSearch@@@Z 0056f3f0 f i KniveLine.obj
 0002:00096590       ??RFacesOfEdgeSearch@@QAE_NABUFacesOfEdge@@@Z 0056f590 f i KniveLine.obj
 0002:00096600       ??$_Checked_assign_from_base@V?$_Iterator@$00@?$list@UFacesOfEdge@@V?$allocator@UFacesOfEdge@@@std@@@std@@V?$_Iterator@$0A@@23@@std@@YAXAAV?$_Iterator@$00@?$list@UFacesOfEdge@@V?$allocator@UFacesOfEdge@@@std@@@0@ABV?$_Iterator@$0A@@20@@Z 0056f600 f i KniveLine.obj
 0002:00096670       ??$_Iter_cat@V?$_Vector_iterator@HV?$allocator@H@std@@@std@@@std@@YA?AUrandom_access_iterator_tag@0@ABV?$_Vector_iterator@HV?$allocator@H@std@@@0@@Z 0056f670 f i KniveLine.obj
 0002:000966e0       ??$_Reverse@V?$_Vector_iterator@HV?$allocator@H@std@@@std@@@std@@YAXV?$_Vector_iterator@HV?$allocator@H@std@@@0@0Urandom_access_iterator_tag@0@@Z 0056f6e0 f i KniveLine.obj
 0002:00096880       ??$_Checked_base@V?$_Vector_iterator@UD3DXVECTOR3@@V?$allocator@UD3DXVECTOR3@@@std@@@std@@@std@@YA?AV?$_Vector_iterator@UD3DXVECTOR3@@V?$allocator@UD3DXVECTOR3@@@std@@@0@AAV10@@Z 0056f880 f i KniveLine.obj
 0002:00096940       ??$_Iter_cat@V?$_Vector_iterator@UD3DXVECTOR3@@V?$allocator@UD3DXVECTOR3@@@std@@@std@@@std@@YA?AUrandom_access_iterator_tag@0@ABV?$_Vector_iterator@UD3DXVECTOR3@@V?$allocator@UD3DXVECTOR3@@@std@@@0@@Z 0056f940 f i KniveLine.obj
 0002:000969b0       ??$_Reverse@V?$_Vector_iterator@UD3DXVECTOR3@@V?$allocator@UD3DXVECTOR3@@@std@@@std@@@std@@YAXV?$_Vector_iterator@UD3DXVECTOR3@@V?$allocator@UD3DXVECTOR3@@@std@@@0@0Urandom_access_iterator_tag@0@@Z 0056f9b0 f i KniveLine.obj
 0002:00096b50       ??$_Fill@PAHH@std@@YAXPAH0ABH@Z 0056fb50 f i KniveLine.obj
 0002:00096be0       ??$_Move_backward_opt@PAHPAHUrandom_access_iterator_tag@std@@U_Undefined_move_tag@2@@std@@YAPAHPAH00Urandom_access_iterator_tag@0@U_Undefined_move_tag@0@U_Range_checked_iterator_tag@0@@Z 0056fbe0 f i KniveLine.obj
 0002:00096c80       ??$_Uninit_fill_n@PAUEdgeIntersection@ObjEd@@IU12@V?$allocator@UEdgeIntersection@ObjEd@@@std@@@std@@YAXPAUEdgeIntersection@ObjEd@@IABU12@AAV?$allocator@UEdgeIntersection@ObjEd@@@0@U_Nonscalar_ptr_iterator_tag@0@U_Range_checked_iterator_tag@0@@Z 0056fc80 f i KniveLine.obj
 0002:00096d90       ??$_Uninit_fill_n@PAVFace@@IV1@V?$allocator@VFace@@@std@@@std@@YAXPAVFace@@IABV1@AAV?$allocator@VFace@@@0@U_Nonscalar_ptr_iterator_tag@0@U_Range_checked_iterator_tag@0@@Z 0056fd90 f i KniveLine.obj
 0002:00096ea0       ??$_Ptr_cat@PAVVertexObj@@PAV1@@std@@YA?AU_Nonscalar_ptr_iterator_tag@0@AAPAVVertexObj@@0@Z 0056fea0 f i KniveLine.obj
 0002:00096f10       ??$_Destroy_range@V?$allocator@VVertexObj@@@std@@@std@@YAXPAVVertexObj@@0AAV?$allocator@VVertexObj@@@0@U_Nonscalar_ptr_iterator_tag@0@@Z 0056ff10 f i KniveLine.obj
 0002:00096f80       ??$_Uninit_fill_n@PAVVertexObj@@IV1@V?$allocator@VVertexObj@@@std@@@std@@YAXPAVVertexObj@@IABV1@AAV?$allocator@VVertexObj@@@0@U_Nonscalar_ptr_iterator_tag@0@U_Range_checked_iterator_tag@0@@Z 0056ff80 f i KniveLine.obj
 0002:00097090       ??4?$_Vector_iterator@HV?$allocator@H@std@@@std@@QAEAAV01@ABV01@@Z 00570090 f i KniveLine.obj
 0002:000970f0       ??0?$_Iterator@$0A@@?$list@UFacesOfEdge@@V?$allocator@UFacesOfEdge@@@std@@@std@@QAE@ABV012@@Z 005700f0 f i KniveLine.obj
 0002:00097150       ??4?$_Vector_const_iterator@HV?$allocator@H@std@@@std@@QAEAAV01@ABV01@@Z 00570150 f i KniveLine.obj
 0002:000971c0       ??0?$_Const_iterator@$0A@@?$list@UFacesOfEdge@@V?$allocator@UFacesOfEdge@@@std@@@std@@QAE@ABV012@@Z 005701c0 f i KniveLine.obj
 0002:00097230       ??4?$_Ranit@HHPBHABH@std@@QAEAAU01@ABU01@@Z 00570230 f i KniveLine.obj
 0002:00097290       ??4?$_Iterator_with_base@Urandom_access_iterator_tag@std@@HHPBHABHV_Iterator_base@2@@std@@QAEAAU01@ABU01@@Z 00570290 f i KniveLine.obj
 0002:000972f0       ?construct@?$allocator@VFace@@@std@@QAEXPAVFace@@ABV3@@Z 005702f0 f i KniveLine.obj
 0002:00097350       ?construct@?$allocator@VVertexObj@@@std@@QAEXPAVVertexObj@@ABV3@@Z 00570350 f i KniveLine.obj
 0002:000973b0       ?destroy@?$allocator@VVertexObj@@@std@@QAEXPAVVertexObj@@@Z 005703b0 f i KniveLine.obj
 0002:00097410       ??D?$_Vector_iterator@HV?$allocator@H@std@@@std@@QBEAAHXZ 00570410 f i KniveLine.obj
 0002:00097460       ??E?$_Vector_iterator@HV?$allocator@H@std@@@std@@QAEAAV01@XZ 00570460 f i KniveLine.obj
 0002:000974c0       ??F?$_Vector_iterator@HV?$allocator@H@std@@@std@@QAEAAV01@XZ 005704c0 f i KniveLine.obj
 0002:00097520       ?_Checked_iterator_assign_from_base@?$_Iterator@$00@?$list@UFacesOfEdge@@V?$allocator@UFacesOfEdge@@@std@@@std@@QAEXV?$_Iterator@$0A@@23@@Z 00570520 f i KniveLine.obj
 0002:00097650       ?_Same_container@_Iterator_base@std@@QBE_NABV12@@Z 00570650 f i KniveLine.obj
 0002:000976a0       ??E?$_Vector_iterator@UD3DXVECTOR3@@V?$allocator@UD3DXVECTOR3@@@std@@@std@@QAEAAV01@XZ 005706a0 f i KniveLine.obj
 0002:00097700       ??F?$_Vector_iterator@UD3DXVECTOR3@@V?$allocator@UD3DXVECTOR3@@@std@@@std@@QAEAAV01@XZ 00570700 f i KniveLine.obj
 0002:00097760       ??D?$_Iterator@$0A@@?$list@UFacesOfEdge@@V?$allocator@UFacesOfEdge@@@std@@@std@@QBEAAUFacesOfEdge@@XZ 00570760 f i KniveLine.obj
 0002:000977b0       ??E?$_Iterator@$0A@@?$list@UFacesOfEdge@@V?$allocator@UFacesOfEdge@@@std@@@std@@QAEAAV012@XZ 005707b0 f i KniveLine.obj
 0002:00097810       ??9?$_Const_iterator@$0A@@?$list@UFacesOfEdge@@V?$allocator@UFacesOfEdge@@@std@@@std@@QBE_NABV012@@Z 00570810 f i KniveLine.obj
 0002:00097880       ??E?$_Vector_const_iterator@HV?$allocator@H@std@@@std@@QAEAAV01@XZ 00570880 f i KniveLine.obj
 0002:00097a20       ??F?$_Vector_const_iterator@HV?$allocator@H@std@@@std@@QAEAAV01@XZ 00570a20 f i KniveLine.obj
 0002:00097bd0       ??F?$_Vector_const_iterator@UD3DXVECTOR3@@V?$allocator@UD3DXVECTOR3@@@std@@@std@@QAEAAV01@XZ 00570bd0 f i KniveLine.obj
 0002:00097d80       ??D?$_Const_iterator@$0A@@?$list@UFacesOfEdge@@V?$allocator@UFacesOfEdge@@@std@@@std@@QBEABUFacesOfEdge@@XZ 00570d80 f i KniveLine.obj
 0002:00097ea0       ??E?$_Const_iterator@$0A@@?$list@UFacesOfEdge@@V?$allocator@UFacesOfEdge@@@std@@@std@@QAEAAV012@XZ 00570ea0 f i KniveLine.obj
 0002:00097fd0       ??8?$_Const_iterator@$0A@@?$list@UFacesOfEdge@@V?$allocator@UFacesOfEdge@@@std@@@std@@QBE_NABV012@@Z 00570fd0 f i KniveLine.obj
 0002:00098040       ?_Compat@?$_Const_iterator@$0A@@?$list@UFacesOfEdge@@V?$allocator@UFacesOfEdge@@@std@@@std@@QBEXABV123@@Z 00571040 f i KniveLine.obj
 0002:00098140       ??$_Checked_base@V?$_Vector_iterator@HV?$allocator@H@std@@@std@@@std@@YA?AV?$_Vector_iterator@HV?$allocator@H@std@@@0@AAV10@U_Unchanged_checked_iterator_base_type_tag@0@@Z 00571140 f i KniveLine.obj
 0002:000981b0       ??$_Debug_range@V?$_Vector_iterator@HV?$allocator@H@std@@@std@@@std@@YAXV?$_Vector_iterator@HV?$allocator@H@std@@@0@0PB_WI@Z 005711b0 f i KniveLine.obj
 0002:000982e0       ??$_Checked_base@V?$_Iterator@$00@?$list@UFacesOfEdge@@V?$allocator@UFacesOfEdge@@@std@@@std@@U_Different_checked_iterator_base_type_tag@3@@std@@YA?AV?$_Iterator@$0A@@?$list@UFacesOfEdge@@V?$allocator@UFacesOfEdge@@@std@@@0@AAV?$_Iterator@$00@20@U_Different_checked_iterator_base_type_tag@0@@Z 005712e0 f i KniveLine.obj
 0002:00098350       ??$_Debug_range@V?$_Iterator@$0A@@?$list@UFacesOfEdge@@V?$allocator@UFacesOfEdge@@@std@@@std@@@std@@YAXV?$_Iterator@$0A@@?$list@UFacesOfEdge@@V?$allocator@UFacesOfEdge@@@std@@@0@0PB_WI@Z 00571350 f i KniveLine.obj
 0002:00098480       ??$_Debug_pointer@VFacesOfEdgeSearch@@@std@@YAXAAVFacesOfEdgeSearch@@PB_WI@Z 00571480 f i KniveLine.obj
 0002:000984b0       ??$iter_swap@V?$_Vector_iterator@HV?$allocator@H@std@@@std@@V12@@std@@YAXV?$_Vector_iterator@HV?$allocator@H@std@@@0@0@Z 005714b0 f i KniveLine.obj
 0002:00098570       ??$_Checked_base@V?$_Vector_iterator@UD3DXVECTOR3@@V?$allocator@UD3DXVECTOR3@@@std@@@std@@@std@@YA?AV?$_Vector_iterator@UD3DXVECTOR3@@V?$allocator@UD3DXVECTOR3@@@std@@@0@AAV10@U_Unchanged_checked_iterator_base_type_tag@0@@Z 00571570 f i KniveLine.obj
 0002:000985e0       ??$_Debug_range@V?$_Vector_iterator@UD3DXVECTOR3@@V?$allocator@UD3DXVECTOR3@@@std@@@std@@@std@@YAXV?$_Vector_iterator@UD3DXVECTOR3@@V?$allocator@UD3DXVECTOR3@@@std@@@0@0PB_WI@Z 005715e0 f i KniveLine.obj
 0002:00098710       ??$iter_swap@V?$_Vector_iterator@UD3DXVECTOR3@@V?$allocator@UD3DXVECTOR3@@@std@@@std@@V12@@std@@YAXV?$_Vector_iterator@UD3DXVECTOR3@@V?$allocator@UD3DXVECTOR3@@@std@@@0@0@Z 00571710 f i KniveLine.obj
 0002:000987d0       ??$_Copy_backward_opt@PAHPAHUrandom_access_iterator_tag@std@@@std@@YAPAHPAH00Urandom_access_iterator_tag@0@U_Scalar_ptr_iterator_tag@0@U_Range_checked_iterator_tag@0@@Z 005717d0 f i KniveLine.obj
 0002:000988c0       ??$_Construct@VFace@@V1@@std@@YAXPAVFace@@ABV1@@Z 005718c0 f i KniveLine.obj
 0002:000989b0       ??$_Construct@VVertexObj@@V1@@std@@YAXPAVVertexObj@@ABV1@@Z 005719b0 f i KniveLine.obj
 0002:00098a60       ??$_Destroy@VVertexObj@@@std@@YAXPAVVertexObj@@@Z 00571a60 f i KniveLine.obj
 0002:00098a90       ??0Face@@QAE@ABV0@@Z       00571a90 f i KniveLine.obj
 0002:00098b50       ?_Checked_iterator_base@?$_Iterator@$00@?$list@UFacesOfEdge@@V?$allocator@UFacesOfEdge@@@std@@@std@@QBE?AV?$_Iterator@$0A@@23@XZ 00571b50 f i KniveLine.obj
 0002:00098c70       ??D?$_Vector_iterator@UD3DXVECTOR3@@V?$allocator@UD3DXVECTOR3@@@std@@@std@@QBEAAUD3DXVECTOR3@@XZ 00571c70 f i KniveLine.obj
 0002:00098cc0       ??0?$_Iterator@$0A@@?$list@UFacesOfEdge@@V?$allocator@UFacesOfEdge@@@std@@@std@@QAE@PAU_Node@?$_List_nod@UFacesOfEdge@@V?$allocator@UFacesOfEdge@@@std@@@2@PBV12@@Z 00571cc0 f i KniveLine.obj
 0002:00098d20       ??0?$_Const_iterator@$0A@@?$list@UFacesOfEdge@@V?$allocator@UFacesOfEdge@@@std@@@std@@QAE@PAU_Node@?$_List_nod@UFacesOfEdge@@V?$allocator@UFacesOfEdge@@@std@@@2@PBV12@@Z 00571d20 f i KniveLine.obj
 0002:00098de0       ??$_Debug_range2@V?$_Vector_iterator@HV?$allocator@H@std@@@std@@@std@@YAXV?$_Vector_iterator@HV?$allocator@H@std@@@0@0PB_WIUrandom_access_iterator_tag@0@@Z 00571de0 f i KniveLine.obj
 0002:00098f10       ??$_Iter_cat@V?$_Iterator@$0A@@?$list@UFacesOfEdge@@V?$allocator@UFacesOfEdge@@@std@@@std@@@std@@YA?AUbidirectional_iterator_tag@0@ABV?$_Iterator@$0A@@?$list@UFacesOfEdge@@V?$allocator@UFacesOfEdge@@@std@@@0@@Z 00571f10 f i KniveLine.obj
 0002:00098f80       ??$_Debug_range2@V?$_Iterator@$0A@@?$list@UFacesOfEdge@@V?$allocator@UFacesOfEdge@@@std@@@std@@@std@@YAXV?$_Iterator@$0A@@?$list@UFacesOfEdge@@V?$allocator@UFacesOfEdge@@@std@@@0@0PB_WIUinput_iterator_tag@0@@Z 00571f80 f i KniveLine.obj
 0002:00099020       ??$swap@H@std@@YAXAAH0@Z   00572020 f i KniveLine.obj
 0002:00099080       ??$_Debug_range2@V?$_Vector_iterator@UD3DXVECTOR3@@V?$allocator@UD3DXVECTOR3@@@std@@@std@@@std@@YAXV?$_Vector_iterator@UD3DXVECTOR3@@V?$allocator@UD3DXVECTOR3@@@std@@@0@0PB_WIUrandom_access_iterator_tag@0@@Z 00572080 f i KniveLine.obj
 0002:000991b0       ??$swap@UD3DXVECTOR3@@@std@@YAXAAUD3DXVECTOR3@@0@Z 005721b0 f i KniveLine.obj
 0002:00099270       ??$_Debug_pointer@V?$_Vector_iterator@HV?$allocator@H@std@@@std@@@std@@YAXAAV?$_Vector_iterator@HV?$allocator@H@std@@@0@PB_WI@Z 00572270 f i KniveLine.obj
 0002:000992a0       ??$_Debug_pointer@V?$_Vector_iterator@UD3DXVECTOR3@@V?$allocator@UD3DXVECTOR3@@@std@@@std@@@std@@YAXAAV?$_Vector_iterator@UD3DXVECTOR3@@V?$allocator@UD3DXVECTOR3@@@std@@@0@PB_WI@Z 005722a0 f i KniveLine.obj
 0002:000992d0       ??1MeshComponent@@QAE@XZ   005722d0 f   MeshComponent.obj
 0002:00099430       ??_GHE_mesh@@QAEPAXI@Z     00572430 f i MeshComponent.obj
 0002:000994a0       ??0MeshComponent@@QAE@ABVMeshComponentSerial@@@Z 005724a0 f   MeshComponent.obj
 0002:000998b0       ?nVertices@MeshComponent@@QBEHXZ 005728b0 f   MeshComponent.obj
 0002:00099910       ?nEdges@MeshComponent@@QBEHXZ 00572910 f   MeshComponent.obj
 0002:00099970       ?nFaces@MeshComponent@@QBEHXZ 00572970 f   MeshComponent.obj
 0002:000999d0       ?setMode@MeshComponent@@QAEXH@Z 005729d0 f   MeshComponent.obj
 0002:00099a20       ?vertex@MeshComponent@@QBE?AVVertexObj@@H@Z 00572a20 f   MeshComponent.obj
 0002:00099a90       ?edge@MeshComponent@@QBE?AVEdge@@H@Z 00572a90 f   MeshComponent.obj
 0002:00099b00       ?face@MeshComponent@@QBE?AVFace@@H@Z 00572b00 f   MeshComponent.obj
 0002:00099c20       ?convert@MeshComponent@@QAEPAVEditableMeshModel@@PAUID3D10Device@@UD3DXVECTOR3@@PAUColourMapping@ObjEd@@@Z 00572c20 f   MeshComponent.obj
 0002:0009ab20       ??0VertexPosCol@@QAE@XZ    00573b20 f i MeshComponent.obj
 0002:0009ab80       ??0VertexPosNorCol@@QAE@XZ 00573b80 f i MeshComponent.obj
 0002:0009abf0       ??0VertexPointPSC@@QAE@XZ  00573bf0 f i MeshComponent.obj
 0002:0009ac60       ?selectVertex@MeshComponent@@QAEXH@Z 00573c60 f   MeshComponent.obj
 0002:0009ad40       ??0MeshComponent@@QAE@H@Z  00573d40 f   MeshComponent.obj
 0002:0009aeb0       ??0HE_mesh@@QAE@XZ         00573eb0 f i MeshComponent.obj
 0002:0009af90       ??0MeshComponent@@QAE@XZ   00573f90 f   MeshComponent.obj
 0002:0009b0f0       ?isEntitySelected@MeshComponent@@QAE_NH@Z 005740f0 f   MeshComponent.obj
 0002:0009b330       ?isEntitySelected@MeshComponent@@QAE_NABUSelection@ObjEd@@@Z 00574330 f   MeshComponent.obj
 0002:0009b580       ?opTranslateVertex@MeshComponent@@QAEXHUD3DXVECTOR3@@@Z 00574580 f   MeshComponent.obj
 0002:0009b650       ?opScaleVertices@MeshComponent@@QAEXHUD3DXVECTOR3@@0@Z 00574650 f   MeshComponent.obj
 0002:0009b740       ??ZD3DXVECTOR3@@QAEAAU0@ABU0@@Z 00574740 f i MeshComponent.obj
 0002:0009b7c0       ?unselectVertices@MeshComponent@@QAEXXZ 005747c0 f   MeshComponent.obj
 0002:0009b8d0       ?selectRemoveVertex@MeshComponent@@QAE_NH@Z 005748d0 f   MeshComponent.obj
 0002:0009ba60       ?centerMassSelectedVertices@MeshComponent@@QAE?AUD3DXVECTOR3@@XZ 00574a60 f   MeshComponent.obj
 0002:0009bc70       ?unselectEdges@MeshComponent@@QAEXXZ 00574c70 f   MeshComponent.obj
 0002:0009bd80       ?selectEdge@MeshComponent@@QAEXH@Z 00574d80 f   MeshComponent.obj
 0002:0009be60       ?selectRemoveEdge@MeshComponent@@QAE_NH@Z 00574e60 f   MeshComponent.obj
 0002:0009bff0       ?modifyVertex@MeshComponent@@QAEXHABVVertexObj@@@Z 00574ff0 f   MeshComponent.obj
 0002:0009c050       ?unselectFaces@MeshComponent@@QAEXXZ 00575050 f   MeshComponent.obj
 0002:0009c160       ?selectFace@MeshComponent@@QAEXH@Z 00575160 f   MeshComponent.obj
 0002:0009c240       ?selectRemoveFace@MeshComponent@@QAE_NH@Z 00575240 f   MeshComponent.obj
 0002:0009c3d0       ?getCurrentSelection@MeshComponent@@QBE?AV?$vector@USelection@ObjEd@@V?$allocator@USelection@ObjEd@@@std@@@std@@XZ 005753d0 f   MeshComponent.obj
 0002:0009c6c0       ?centerMassSelectedEdges@MeshComponent@@QAE?AUD3DXVECTOR3@@XZ 005756c0 f   MeshComponent.obj
 0002:0009c8d0       ?centerMassSelectedFaces@MeshComponent@@QAE?AUD3DXVECTOR3@@XZ 005758d0 f   MeshComponent.obj
 0002:0009cae0       ?center@MeshComponent@@QBE?AUD3DXVECTOR3@@AAVFace@@@Z 00575ae0 f   MeshComponent.obj
 0002:0009cc30       ?facesOfEdge@MeshComponent@@QBE?AUFacesOfEdge@@H@Z 00575c30 f   MeshComponent.obj
 0002:0009cd00       ?faceContainsSelectedEntity@MeshComponent@@QBE_NHABUSelection@ObjEd@@@Z 00575d00 f   MeshComponent.obj
 0002:0009cf10       ?halfEdgeOfFace@MeshComponent@@QAEPAVHE_edge@@HH@Z 00575f10 f   MeshComponent.obj
 0002:0009d090       ?resizeSelectionVectors@MeshComponent@@AAEXXZ 00576090 f   MeshComponent.obj
 0002:0009d140       ?checkIntegrity@MeshComponent@@AAEXXZ 00576140 f   MeshComponent.obj
 0002:0009d1a0       ?facesFacingCamera@MeshComponent@@QAE?AV?$vector@VFace@@V?$allocator@VFace@@@std@@@std@@UD3DXVECTOR3@@@Z 005761a0 f   MeshComponent.obj
 0002:0009d360       ?edgesOfFacesFacingCamera@MeshComponent@@QAE?AV?$vector@HV?$allocator@H@std@@@std@@UD3DXVECTOR3@@@Z 00576360 f   MeshComponent.obj
 0002:0009d620       ?faceVisible@MeshComponent@@AAE_NABVFace@@UD3DXVECTOR3@@@Z 00576620 f   MeshComponent.obj
 0002:0009d840       ?DEBUGlistEdge@MeshComponent@@QAE?AV?$vector@HV?$allocator@H@std@@@std@@USelection@ObjEd@@@Z 00576840 f   MeshComponent.obj
 0002:0009d980       ?DEBUGlistFace@MeshComponent@@QAE?AV?$vector@HV?$allocator@H@std@@@std@@USelection@ObjEd@@@Z 00576980 f   MeshComponent.obj
 0002:0009dbd0       ?setId@MeshComponent@@QAEXH@Z 00576bd0 f   MeshComponent.obj
 0002:0009dc20       ?boundingSphere@MeshComponent@@QBE?AVBoundingSphere@Intersections@@XZ 00576c20 f   MeshComponent.obj
 0002:0009de30       ?D3DXVec3Length@@YAMPBUD3DXVECTOR3@@@Z 00576e30 f i MeshComponent.obj
 0002:0009dec0       _sqrtf                     00576ec0 f i MeshComponent.obj
 0002:0009df30       ??0BoundingSphere@Intersections@@QAE@XZ 00576f30 f i MeshComponent.obj
 0002:0009df90       ?basisOfEdge@MeshComponent@@QBE?AV?$vector@UD3DXVECTOR3@@V?$allocator@UD3DXVECTOR3@@@std@@@std@@H@Z 00576f90 f   MeshComponent.obj
 0002:0009e4f0       ?basisOfFace@MeshComponent@@QBE?AV?$vector@UD3DXVECTOR3@@V?$allocator@UD3DXVECTOR3@@@std@@@std@@H@Z 005774f0 f   MeshComponent.obj
 0002:0009e8a0       ?uniqueVerticesOfFaces@MeshComponent@@AAE?AV?$vector@HV?$allocator@H@std@@@std@@AAV?$vector@VFace@@V?$allocator@VFace@@@std@@@3@@Z 005778a0 f   MeshComponent.obj
 0002:0009eb00       ?initTex@MeshComponent@@QAEXXZ 00577b00 f   MeshComponent.obj
 0002:0009eb50       ?setTex@MeshComponent@@QAEXHH@Z 00577b50 f   MeshComponent.obj
 0002:0009ebc0       ?resizeTexIdSelection@MeshComponent@@AAEXXZ 00577bc0 f   MeshComponent.obj
 0002:0009ec90       ?facesOfEntity@MeshComponent@@QBE?AV?$vector@HV?$allocator@H@std@@@std@@ABUSelection@ObjEd@@@Z 00577c90 f   MeshComponent.obj
 0002:0009eeb0       ?facesOfEdgeList@MeshComponent@@QBE?AV?$vector@HV?$allocator@H@std@@@std@@H@Z 00577eb0 f   MeshComponent.obj
 0002:0009f050       ?faces@HE_edge@@QBE?AV?$vector@PAVHE_face@@V?$allocator@PAVHE_face@@@std@@@std@@XZ 00578050 f i MeshComponent.obj
 0002:0009f180       ?convertToDeferred@MeshComponent@@AAEPAVDeferredMeshModel@@PAUID3D10Device@@UD3DXVECTOR3@@PAUColourMapping@ObjEd@@@Z 00578180 f   MeshComponent.obj
 0002:0009f7b0       ??0VertPNT@@QAE@XZ         005787b0 f i MeshComponent.obj
 0002:0009f820       ??0?$vector@UVertexPosCol@@V?$allocator@UVertexPosCol@@@std@@@std@@QAE@XZ 00578820 f i MeshComponent.obj
 0002:0009f8e0       ??1?$vector@UVertexPosCol@@V?$allocator@UVertexPosCol@@@std@@@std@@QAE@XZ 005788e0 f i MeshComponent.obj
 0002:0009f980       ?push_back@?$vector@UVertexPosCol@@V?$allocator@UVertexPosCol@@@std@@@std@@QAEXABUVertexPosCol@@@Z 00578980 f i MeshComponent.obj
 0002:0009faf0       ??0?$vector@VFace@@V?$allocator@VFace@@@std@@@std@@QAE@XZ 00578af0 f i MeshComponent.obj
 0002:0009fbb0       ??0?$vector@VFace@@V?$allocator@VFace@@@std@@@std@@QAE@ABV01@@Z 00578bb0 f i MeshComponent.obj
 0002:0009fd50       ?push_back@?$vector@VFace@@V?$allocator@VFace@@@std@@@std@@QAEXABVFace@@@Z 00578d50 f i MeshComponent.obj
 0002:0009fec0       ??0?$vector@UVertexPosNorCol@@V?$allocator@UVertexPosNorCol@@@std@@@std@@QAE@XZ 00578ec0 f i MeshComponent.obj
 0002:0009ff80       ??1?$vector@UVertexPosNorCol@@V?$allocator@UVertexPosNorCol@@@std@@@std@@QAE@XZ 00578f80 f i MeshComponent.obj
 0002:000a0020       ?push_back@?$vector@UVertexPosNorCol@@V?$allocator@UVertexPosNorCol@@@std@@@std@@QAEXABUVertexPosNorCol@@@Z 00579020 f i MeshComponent.obj
 0002:000a0190       ??0?$vector@UVertexPointPSC@@V?$allocator@UVertexPointPSC@@@std@@@std@@QAE@XZ 00579190 f i MeshComponent.obj
 0002:000a0250       ??1?$vector@UVertexPointPSC@@V?$allocator@UVertexPointPSC@@@std@@@std@@QAE@XZ 00579250 f i MeshComponent.obj
 0002:000a02f0       ?push_back@?$vector@UVertexPointPSC@@V?$allocator@UVertexPointPSC@@@std@@@std@@QAEXABUVertexPointPSC@@@Z 005792f0 f i MeshComponent.obj
 0002:000a0460       ??0?$vector@UVertPNT@@V?$allocator@UVertPNT@@@std@@@std@@QAE@XZ 00579460 f i MeshComponent.obj
 0002:000a0520       ??1?$vector@UVertPNT@@V?$allocator@UVertPNT@@@std@@@std@@QAE@XZ 00579520 f i MeshComponent.obj
 0002:000a05c0       ?push_back@?$vector@UVertPNT@@V?$allocator@UVertPNT@@@std@@@std@@QAEXABUVertPNT@@@Z 005795c0 f i MeshComponent.obj
 0002:000a0730       ??1?$_Vector_val@UVertexPosCol@@V?$allocator@UVertexPosCol@@@std@@@std@@QAE@XZ 00579730 f i MeshComponent.obj
 0002:000a0780       ??1?$_Vector_iterator@UVertexPosCol@@V?$allocator@UVertexPosCol@@@std@@@std@@QAE@XZ 00579780 f i MeshComponent.obj
 0002:000a07d0       ??0?$_Vector_const_iterator@UVertexPosCol@@V?$allocator@UVertexPosCol@@@std@@@std@@QAE@ABV01@@Z 005797d0 f i MeshComponent.obj
 0002:000a0840       ??1?$_Vector_const_iterator@UVertexPosCol@@V?$allocator@UVertexPosCol@@@std@@@std@@QAE@XZ 00579840 f i MeshComponent.obj
 0002:000a0890       ??1?$_Vector_const_iterator@VFace@@V?$allocator@VFace@@@std@@@std@@QAE@XZ 00579890 f i MeshComponent.obj
 0002:000a08e0       ??1?$_Vector_iterator@VFace@@V?$allocator@VFace@@@std@@@std@@QAE@XZ 005798e0 f i MeshComponent.obj
 0002:000a0930       ??0?$_Vector_const_iterator@VFace@@V?$allocator@VFace@@@std@@@std@@QAE@ABV01@@Z 00579930 f i MeshComponent.obj
 0002:000a09a0       ??1?$_Vector_val@UVertexPosNorCol@@V?$allocator@UVertexPosNorCol@@@std@@@std@@QAE@XZ 005799a0 f i MeshComponent.obj
 0002:000a09f0       ??1?$_Vector_iterator@UVertexPosNorCol@@V?$allocator@UVertexPosNorCol@@@std@@@std@@QAE@XZ 005799f0 f i MeshComponent.obj
 0002:000a0a40       ??0?$_Vector_const_iterator@UVertexPosNorCol@@V?$allocator@UVertexPosNorCol@@@std@@@std@@QAE@ABV01@@Z 00579a40 f i MeshComponent.obj
 0002:000a0ab0       ??1?$_Vector_const_iterator@UVertexPosNorCol@@V?$allocator@UVertexPosNorCol@@@std@@@std@@QAE@XZ 00579ab0 f i MeshComponent.obj
 0002:000a0b00       ??1?$_Vector_val@UVertexPointPSC@@V?$allocator@UVertexPointPSC@@@std@@@std@@QAE@XZ 00579b00 f i MeshComponent.obj
 0002:000a0b50       ??1?$_Vector_iterator@UVertexPointPSC@@V?$allocator@UVertexPointPSC@@@std@@@std@@QAE@XZ 00579b50 f i MeshComponent.obj
 0002:000a0ba0       ??0?$_Vector_const_iterator@UVertexPointPSC@@V?$allocator@UVertexPointPSC@@@std@@@std@@QAE@ABV01@@Z 00579ba0 f i MeshComponent.obj
 0002:000a0c10       ??1?$_Vector_const_iterator@UVertexPointPSC@@V?$allocator@UVertexPointPSC@@@std@@@std@@QAE@XZ 00579c10 f i MeshComponent.obj
 0002:000a0c60       ??1?$_Vector_val@UVertPNT@@V?$allocator@UVertPNT@@@std@@@std@@QAE@XZ 00579c60 f i MeshComponent.obj
 0002:000a0cb0       ??1?$_Vector_iterator@UVertPNT@@V?$allocator@UVertPNT@@@std@@@std@@QAE@XZ 00579cb0 f i MeshComponent.obj
 0002:000a0d00       ??0?$_Vector_const_iterator@UVertPNT@@V?$allocator@UVertPNT@@@std@@@std@@QAE@ABV01@@Z 00579d00 f i MeshComponent.obj
 0002:000a0d70       ??1?$_Vector_const_iterator@UVertPNT@@V?$allocator@UVertPNT@@@std@@@std@@QAE@XZ 00579d70 f i MeshComponent.obj
 0002:000a0dc0       ??0?$_Ranit@UVertexPosCol@@HPBU1@ABU1@@std@@QAE@ABU01@@Z 00579dc0 f i MeshComponent.obj
 0002:000a0e20       ??1?$_Ranit@UVertexPosCol@@HPBU1@ABU1@@std@@QAE@XZ 00579e20 f i MeshComponent.obj
 0002:000a0e70       ??1?$_Ranit@VFace@@HPBV1@ABV1@@std@@QAE@XZ 00579e70 f i MeshComponent.obj
 0002:000a0ec0       ??0?$_Ranit@VFace@@HPBV1@ABV1@@std@@QAE@ABU01@@Z 00579ec0 f i MeshComponent.obj
 0002:000a0f20       ??0?$_Ranit@UVertexPosNorCol@@HPBU1@ABU1@@std@@QAE@ABU01@@Z 00579f20 f i MeshComponent.obj
 0002:000a0f80       ??1?$_Ranit@UVertexPosNorCol@@HPBU1@ABU1@@std@@QAE@XZ 00579f80 f i MeshComponent.obj
 0002:000a0fd0       ??0?$_Ranit@UVertexPointPSC@@HPBU1@ABU1@@std@@QAE@ABU01@@Z 00579fd0 f i MeshComponent.obj
 0002:000a1030       ??1?$_Ranit@UVertexPointPSC@@HPBU1@ABU1@@std@@QAE@XZ 0057a030 f i MeshComponent.obj
 0002:000a1080       ??0?$_Ranit@UVertPNT@@HPBU1@ABU1@@std@@QAE@ABU01@@Z 0057a080 f i MeshComponent.obj
 0002:000a10e0       ??1?$_Ranit@UVertPNT@@HPBU1@ABU1@@std@@QAE@XZ 0057a0e0 f i MeshComponent.obj
 0002:000a1130       ??0?$_Iterator_with_base@Urandom_access_iterator_tag@std@@UVertexPosCol@@HPBU3@ABU3@V_Iterator_base@2@@std@@QAE@ABU01@@Z 0057a130 f i MeshComponent.obj
 0002:000a1190       ??1?$_Iterator_with_base@Urandom_access_iterator_tag@std@@UVertexPosCol@@HPBU3@ABU3@V_Iterator_base@2@@std@@QAE@XZ 0057a190 f i MeshComponent.obj
 0002:000a11e0       ??1?$_Iterator_with_base@Urandom_access_iterator_tag@std@@VFace@@HPBV3@ABV3@V_Iterator_base@2@@std@@QAE@XZ 0057a1e0 f i MeshComponent.obj
 0002:000a1230       ??0?$_Iterator_with_base@Urandom_access_iterator_tag@std@@VFace@@HPBV3@ABV3@V_Iterator_base@2@@std@@QAE@ABU01@@Z 0057a230 f i MeshComponent.obj
 0002:000a1290       ??0?$_Iterator_with_base@Urandom_access_iterator_tag@std@@UVertexPosNorCol@@HPBU3@ABU3@V_Iterator_base@2@@std@@QAE@ABU01@@Z 0057a290 f i MeshComponent.obj
 0002:000a12f0       ??1?$_Iterator_with_base@Urandom_access_iterator_tag@std@@UVertexPosNorCol@@HPBU3@ABU3@V_Iterator_base@2@@std@@QAE@XZ 0057a2f0 f i MeshComponent.obj
 0002:000a1340       ??0?$_Iterator_with_base@Urandom_access_iterator_tag@std@@UVertexPointPSC@@HPBU3@ABU3@V_Iterator_base@2@@std@@QAE@ABU01@@Z 0057a340 f i MeshComponent.obj
 0002:000a13a0       ??1?$_Iterator_with_base@Urandom_access_iterator_tag@std@@UVertexPointPSC@@HPBU3@ABU3@V_Iterator_base@2@@std@@QAE@XZ 0057a3a0 f i MeshComponent.obj
 0002:000a13f0       ??0?$_Iterator_with_base@Urandom_access_iterator_tag@std@@UVertPNT@@HPBU3@ABU3@V_Iterator_base@2@@std@@QAE@ABU01@@Z 0057a3f0 f i MeshComponent.obj
 0002:000a1450       ??1?$_Iterator_with_base@Urandom_access_iterator_tag@std@@UVertPNT@@HPBU3@ABU3@V_Iterator_base@2@@std@@QAE@XZ 0057a450 f i MeshComponent.obj
 0002:000a14a0       ?capacity@?$vector@UVertexPosCol@@V?$allocator@UVertexPosCol@@@std@@@std@@QBEIXZ 0057a4a0 f i MeshComponent.obj
 0002:000a1520       ?end@?$vector@UVertexPosCol@@V?$allocator@UVertexPosCol@@@std@@@std@@QAE?AV?$_Vector_iterator@UVertexPosCol@@V?$allocator@UVertexPosCol@@@std@@@2@XZ 0057a520 f i MeshComponent.obj
 0002:000a15b0       ?size@?$vector@UVertexPosCol@@V?$allocator@UVertexPosCol@@@std@@@std@@QBEIXZ 0057a5b0 f i MeshComponent.obj
 0002:000a1600       ?insert@?$vector@UVertexPosCol@@V?$allocator@UVertexPosCol@@@std@@@std@@QAE?AV?$_Vector_iterator@UVertexPosCol@@V?$allocator@UVertexPosCol@@@std@@@2@V?$_Vector_const_iterator@UVertexPosCol@@V?$allocator@UVertexPosCol@@@std@@@2@ABUVertexPosCol@@@Z 0057a600 f i MeshComponent.obj
 0002:000a1800       ?_Buy@?$vector@UVertexPosCol@@V?$allocator@UVertexPosCol@@@std@@@std@@IAE_NI@Z 0057a800 f i MeshComponent.obj
 0002:000a18e0       ?_Tidy@?$vector@UVertexPosCol@@V?$allocator@UVertexPosCol@@@std@@@std@@IAEXXZ 0057a8e0 f i MeshComponent.obj
 0002:000a19c0       ?_Ufill@?$vector@UVertexPosCol@@V?$allocator@UVertexPosCol@@@std@@@std@@IAEPAUVertexPosCol@@PAU3@IABU3@@Z 0057a9c0 f i MeshComponent.obj
 0002:000a1a40       ?_Orphan_range@?$vector@UVertexPosCol@@V?$allocator@UVertexPosCol@@@std@@@std@@IBEXPAUVertexPosCol@@0@Z 0057aa40 f i MeshComponent.obj
 0002:000a1b50       ??0?$_Vector_val@UVertexPosCol@@V?$allocator@UVertexPosCol@@@std@@@std@@IAE@V?$allocator@UVertexPosCol@@@1@@Z 0057ab50 f i MeshComponent.obj
 0002:000a1bd0       ??1?$_Container_base_aux_alloc_empty@V?$allocator@UVertexPosCol@@@std@@@std@@IAE@XZ 0057abd0 f i MeshComponent.obj
 0002:000a1c30       ??0?$allocator@UVertexPosCol@@@std@@QAE@XZ 0057ac30 f i MeshComponent.obj
 0002:000a1c70       ?capacity@?$vector@VFace@@V?$allocator@VFace@@@std@@@std@@QBEIXZ 0057ac70 f i MeshComponent.obj
 0002:000a1cf0       ?begin@?$vector@VFace@@V?$allocator@VFace@@@std@@@std@@QBE?AV?$_Vector_const_iterator@VFace@@V?$allocator@VFace@@@std@@@2@XZ 0057acf0 f i MeshComponent.obj
 0002:000a1d80       ?end@?$vector@VFace@@V?$allocator@VFace@@@std@@@std@@QAE?AV?$_Vector_iterator@VFace@@V?$allocator@VFace@@@std@@@2@XZ 0057ad80 f i MeshComponent.obj
 0002:000a1e10       ?end@?$vector@VFace@@V?$allocator@VFace@@@std@@@std@@QBE?AV?$_Vector_const_iterator@VFace@@V?$allocator@VFace@@@std@@@2@XZ 0057ae10 f i MeshComponent.obj
 0002:000a1ea0       ?insert@?$vector@VFace@@V?$allocator@VFace@@@std@@@std@@QAE?AV?$_Vector_iterator@VFace@@V?$allocator@VFace@@@std@@@2@V?$_Vector_const_iterator@VFace@@V?$allocator@VFace@@@std@@@2@ABVFace@@@Z 0057aea0 f i MeshComponent.obj
 0002:000a20a0       ?_Orphan_range@?$vector@VFace@@V?$allocator@VFace@@@std@@@std@@IBEXPAVFace@@0@Z 0057b0a0 f i MeshComponent.obj
 0002:000a21b0       ?capacity@?$vector@UVertexPosNorCol@@V?$allocator@UVertexPosNorCol@@@std@@@std@@QBEIXZ 0057b1b0 f i MeshComponent.obj
 0002:000a2230       ?end@?$vector@UVertexPosNorCol@@V?$allocator@UVertexPosNorCol@@@std@@@std@@QAE?AV?$_Vector_iterator@UVertexPosNorCol@@V?$allocator@UVertexPosNorCol@@@std@@@2@XZ 0057b230 f i MeshComponent.obj
 0002:000a22c0       ?size@?$vector@UVertexPosNorCol@@V?$allocator@UVertexPosNorCol@@@std@@@std@@QBEIXZ 0057b2c0 f i MeshComponent.obj
 0002:000a2310       ?insert@?$vector@UVertexPosNorCol@@V?$allocator@UVertexPosNorCol@@@std@@@std@@QAE?AV?$_Vector_iterator@UVertexPosNorCol@@V?$allocator@UVertexPosNorCol@@@std@@@2@V?$_Vector_const_iterator@UVertexPosNorCol@@V?$allocator@UVertexPosNorCol@@@std@@@2@ABUVertexPosNorCol@@@Z 0057b310 f i MeshComponent.obj
 0002:000a2510       ?_Buy@?$vector@UVertexPosNorCol@@V?$allocator@UVertexPosNorCol@@@std@@@std@@IAE_NI@Z 0057b510 f i MeshComponent.obj
 0002:000a25f0       ?_Tidy@?$vector@UVertexPosNorCol@@V?$allocator@UVertexPosNorCol@@@std@@@std@@IAEXXZ 0057b5f0 f i MeshComponent.obj
 0002:000a26d0       ?_Ufill@?$vector@UVertexPosNorCol@@V?$allocator@UVertexPosNorCol@@@std@@@std@@IAEPAUVertexPosNorCol@@PAU3@IABU3@@Z 0057b6d0 f i MeshComponent.obj
 0002:000a2750       ?_Orphan_range@?$vector@UVertexPosNorCol@@V?$allocator@UVertexPosNorCol@@@std@@@std@@IBEXPAUVertexPosNorCol@@0@Z 0057b750 f i MeshComponent.obj
 0002:000a2860       ??0?$_Vector_val@UVertexPosNorCol@@V?$allocator@UVertexPosNorCol@@@std@@@std@@IAE@V?$allocator@UVertexPosNorCol@@@1@@Z 0057b860 f i MeshComponent.obj
 0002:000a28e0       ??1?$_Container_base_aux_alloc_empty@V?$allocator@UVertexPosNorCol@@@std@@@std@@IAE@XZ 0057b8e0 f i MeshComponent.obj
 0002:000a2940       ??0?$allocator@UVertexPosNorCol@@@std@@QAE@XZ 0057b940 f i MeshComponent.obj
 0002:000a2980       ?capacity@?$vector@UVertexPointPSC@@V?$allocator@UVertexPointPSC@@@std@@@std@@QBEIXZ 0057b980 f i MeshComponent.obj
 0002:000a2a00       ?end@?$vector@UVertexPointPSC@@V?$allocator@UVertexPointPSC@@@std@@@std@@QAE?AV?$_Vector_iterator@UVertexPointPSC@@V?$allocator@UVertexPointPSC@@@std@@@2@XZ 0057ba00 f i MeshComponent.obj
 0002:000a2a90       ?size@?$vector@UVertexPointPSC@@V?$allocator@UVertexPointPSC@@@std@@@std@@QBEIXZ 0057ba90 f i MeshComponent.obj
 0002:000a2ae0       ?insert@?$vector@UVertexPointPSC@@V?$allocator@UVertexPointPSC@@@std@@@std@@QAE?AV?$_Vector_iterator@UVertexPointPSC@@V?$allocator@UVertexPointPSC@@@std@@@2@V?$_Vector_const_iterator@UVertexPointPSC@@V?$allocator@UVertexPointPSC@@@std@@@2@ABUVertexPointPSC@@@Z 0057bae0 f i MeshComponent.obj
 0002:000a2ce0       ?_Buy@?$vector@UVertexPointPSC@@V?$allocator@UVertexPointPSC@@@std@@@std@@IAE_NI@Z 0057bce0 f i MeshComponent.obj
 0002:000a2dc0       ?_Tidy@?$vector@UVertexPointPSC@@V?$allocator@UVertexPointPSC@@@std@@@std@@IAEXXZ 0057bdc0 f i MeshComponent.obj
 0002:000a2ea0       ?_Ufill@?$vector@UVertexPointPSC@@V?$allocator@UVertexPointPSC@@@std@@@std@@IAEPAUVertexPointPSC@@PAU3@IABU3@@Z 0057bea0 f i MeshComponent.obj
 0002:000a2f20       ?_Orphan_range@?$vector@UVertexPointPSC@@V?$allocator@UVertexPointPSC@@@std@@@std@@IBEXPAUVertexPointPSC@@0@Z 0057bf20 f i MeshComponent.obj
 0002:000a3030       ??0?$_Vector_val@UVertexPointPSC@@V?$allocator@UVertexPointPSC@@@std@@@std@@IAE@V?$allocator@UVertexPointPSC@@@1@@Z 0057c030 f i MeshComponent.obj
 0002:000a30b0       ??1?$_Container_base_aux_alloc_empty@V?$allocator@UVertexPointPSC@@@std@@@std@@IAE@XZ 0057c0b0 f i MeshComponent.obj
 0002:000a3110       ??0?$allocator@UVertexPointPSC@@@std@@QAE@XZ 0057c110 f i MeshComponent.obj
 0002:000a3150       ?capacity@?$vector@UVertPNT@@V?$allocator@UVertPNT@@@std@@@std@@QBEIXZ 0057c150 f i MeshComponent.obj
 0002:000a31d0       ?end@?$vector@UVertPNT@@V?$allocator@UVertPNT@@@std@@@std@@QAE?AV?$_Vector_iterator@UVertPNT@@V?$allocator@UVertPNT@@@std@@@2@XZ 0057c1d0 f i MeshComponent.obj
 0002:000a3260       ?size@?$vector@UVertPNT@@V?$allocator@UVertPNT@@@std@@@std@@QBEIXZ 0057c260 f i MeshComponent.obj
 0002:000a32b0       ?insert@?$vector@UVertPNT@@V?$allocator@UVertPNT@@@std@@@std@@QAE?AV?$_Vector_iterator@UVertPNT@@V?$allocator@UVertPNT@@@std@@@2@V?$_Vector_const_iterator@UVertPNT@@V?$allocator@UVertPNT@@@std@@@2@ABUVertPNT@@@Z 0057c2b0 f i MeshComponent.obj
 0002:000a34b0       ?_Buy@?$vector@UVertPNT@@V?$allocator@UVertPNT@@@std@@@std@@IAE_NI@Z 0057c4b0 f i MeshComponent.obj
 0002:000a3590       ?_Tidy@?$vector@UVertPNT@@V?$allocator@UVertPNT@@@std@@@std@@IAEXXZ 0057c590 f i MeshComponent.obj
 0002:000a3670       ?_Ufill@?$vector@UVertPNT@@V?$allocator@UVertPNT@@@std@@@std@@IAEPAUVertPNT@@PAU3@IABU3@@Z 0057c670 f i MeshComponent.obj
 0002:000a36f0       ?_Orphan_range@?$vector@UVertPNT@@V?$allocator@UVertPNT@@@std@@@std@@IBEXPAUVertPNT@@0@Z 0057c6f0 f i MeshComponent.obj
 0002:000a3800       ??0?$_Vector_val@UVertPNT@@V?$allocator@UVertPNT@@@std@@@std@@IAE@V?$allocator@UVertPNT@@@1@@Z 0057c800 f i MeshComponent.obj
 0002:000a3880       ??1?$_Container_base_aux_alloc_empty@V?$allocator@UVertPNT@@@std@@@std@@IAE@XZ 0057c880 f i MeshComponent.obj
 0002:000a38e0       ??0?$allocator@UVertPNT@@@std@@QAE@XZ 0057c8e0 f i MeshComponent.obj
 0002:000a3920       ?begin@?$vector@UVertexPosCol@@V?$allocator@UVertexPosCol@@@std@@@std@@QAE?AV?$_Vector_iterator@UVertexPosCol@@V?$allocator@UVertexPosCol@@@std@@@2@XZ 0057c920 f i MeshComponent.obj
 0002:000a39b0       ?max_size@?$vector@UVertexPosCol@@V?$allocator@UVertexPosCol@@@std@@@std@@QBEIXZ 0057c9b0 f i MeshComponent.obj
 0002:000a3a10       ?_Destroy@?$vector@UVertexPosCol@@V?$allocator@UVertexPosCol@@@std@@@std@@IAEXPAUVertexPosCol@@0@Z 0057ca10 f i MeshComponent.obj
 0002:000a3a80       ?_Insert_n@?$vector@UVertexPosCol@@V?$allocator@UVertexPosCol@@@std@@@std@@IAEXV?$_Vector_const_iterator@UVertexPosCol@@V?$allocator@UVertexPosCol@@@std@@@2@IABUVertexPosCol@@@Z 0057ca80 f i MeshComponent.obj
 0002:000a4020       ?_Xlen@?$vector@UVertexPosCol@@V?$allocator@UVertexPosCol@@@std@@@std@@KAXXZ 0057d020 f i MeshComponent.obj
 0002:000a4110       ??0?$_Container_base_aux_alloc_empty@V?$allocator@UVertexPosCol@@@std@@@std@@IAE@V?$allocator@UVertexPosCol@@@1@@Z 0057d110 f i MeshComponent.obj
 0002:000a4180       ??0?$allocator@UVertexPosCol@@@std@@QAE@ABV01@@Z 0057d180 f i MeshComponent.obj
 0002:000a41c0       ?deallocate@?$allocator@UVertexPosCol@@@std@@QAEXPAUVertexPosCol@@I@Z 0057d1c0 f i MeshComponent.obj
 0002:000a4220       ?allocate@?$allocator@UVertexPosCol@@@std@@QAEPAUVertexPosCol@@I@Z 0057d220 f i MeshComponent.obj
 0002:000a4280       ?begin@?$vector@VFace@@V?$allocator@VFace@@@std@@@std@@QAE?AV?$_Vector_iterator@VFace@@V?$allocator@VFace@@@std@@@2@XZ 0057d280 f i MeshComponent.obj
 0002:000a4310       ?_Insert_n@?$vector@VFace@@V?$allocator@VFace@@@std@@@std@@IAEXV?$_Vector_const_iterator@VFace@@V?$allocator@VFace@@@std@@@2@IABVFace@@@Z 0057d310 f i MeshComponent.obj
 0002:000a48e0       ?begin@?$vector@UVertexPosNorCol@@V?$allocator@UVertexPosNorCol@@@std@@@std@@QAE?AV?$_Vector_iterator@UVertexPosNorCol@@V?$allocator@UVertexPosNorCol@@@std@@@2@XZ 0057d8e0 f i MeshComponent.obj
 0002:000a4970       ?max_size@?$vector@UVertexPosNorCol@@V?$allocator@UVertexPosNorCol@@@std@@@std@@QBEIXZ 0057d970 f i MeshComponent.obj
 0002:000a49d0       ?_Destroy@?$vector@UVertexPosNorCol@@V?$allocator@UVertexPosNorCol@@@std@@@std@@IAEXPAUVertexPosNorCol@@0@Z 0057d9d0 f i MeshComponent.obj
 0002:000a4a40       ?_Insert_n@?$vector@UVertexPosNorCol@@V?$allocator@UVertexPosNorCol@@@std@@@std@@IAEXV?$_Vector_const_iterator@UVertexPosNorCol@@V?$allocator@UVertexPosNorCol@@@std@@@2@IABUVertexPosNorCol@@@Z 0057da40 f i MeshComponent.obj
 0002:000a4fe0       ?_Xlen@?$vector@UVertexPosNorCol@@V?$allocator@UVertexPosNorCol@@@std@@@std@@KAXXZ 0057dfe0 f i MeshComponent.obj
 0002:000a50d0       ??0?$_Container_base_aux_alloc_empty@V?$allocator@UVertexPosNorCol@@@std@@@std@@IAE@V?$allocator@UVertexPosNorCol@@@1@@Z 0057e0d0 f i MeshComponent.obj
 0002:000a5140       ??0?$allocator@UVertexPosNorCol@@@std@@QAE@ABV01@@Z 0057e140 f i MeshComponent.obj
 0002:000a5180       ?deallocate@?$allocator@UVertexPosNorCol@@@std@@QAEXPAUVertexPosNorCol@@I@Z 0057e180 f i MeshComponent.obj
 0002:000a51e0       ?allocate@?$allocator@UVertexPosNorCol@@@std@@QAEPAUVertexPosNorCol@@I@Z 0057e1e0 f i MeshComponent.obj
 0002:000a5240       ?begin@?$vector@UVertexPointPSC@@V?$allocator@UVertexPointPSC@@@std@@@std@@QAE?AV?$_Vector_iterator@UVertexPointPSC@@V?$allocator@UVertexPointPSC@@@std@@@2@XZ 0057e240 f i MeshComponent.obj
 0002:000a52d0       ?max_size@?$vector@UVertexPointPSC@@V?$allocator@UVertexPointPSC@@@std@@@std@@QBEIXZ 0057e2d0 f i MeshComponent.obj
 0002:000a5330       ?_Destroy@?$vector@UVertexPointPSC@@V?$allocator@UVertexPointPSC@@@std@@@std@@IAEXPAUVertexPointPSC@@0@Z 0057e330 f i MeshComponent.obj
 0002:000a53a0       ?_Insert_n@?$vector@UVertexPointPSC@@V?$allocator@UVertexPointPSC@@@std@@@std@@IAEXV?$_Vector_const_iterator@UVertexPointPSC@@V?$allocator@UVertexPointPSC@@@std@@@2@IABUVertexPointPSC@@@Z 0057e3a0 f i MeshComponent.obj
 0002:000a5940       ?_Xlen@?$vector@UVertexPointPSC@@V?$allocator@UVertexPointPSC@@@std@@@std@@KAXXZ 0057e940 f i MeshComponent.obj
 0002:000a5a30       ??0?$_Container_base_aux_alloc_empty@V?$allocator@UVertexPointPSC@@@std@@@std@@IAE@V?$allocator@UVertexPointPSC@@@1@@Z 0057ea30 f i MeshComponent.obj
 0002:000a5aa0       ??0?$allocator@UVertexPointPSC@@@std@@QAE@ABV01@@Z 0057eaa0 f i MeshComponent.obj
 0002:000a5ae0       ?deallocate@?$allocator@UVertexPointPSC@@@std@@QAEXPAUVertexPointPSC@@I@Z 0057eae0 f i MeshComponent.obj
 0002:000a5b40       ?allocate@?$allocator@UVertexPointPSC@@@std@@QAEPAUVertexPointPSC@@I@Z 0057eb40 f i MeshComponent.obj
 0002:000a5ba0       ?begin@?$vector@UVertPNT@@V?$allocator@UVertPNT@@@std@@@std@@QAE?AV?$_Vector_iterator@UVertPNT@@V?$allocator@UVertPNT@@@std@@@2@XZ 0057eba0 f i MeshComponent.obj
 0002:000a5c30       ?max_size@?$vector@UVertPNT@@V?$allocator@UVertPNT@@@std@@@std@@QBEIXZ 0057ec30 f i MeshComponent.obj
 0002:000a5c90       ?_Destroy@?$vector@UVertPNT@@V?$allocator@UVertPNT@@@std@@@std@@IAEXPAUVertPNT@@0@Z 0057ec90 f i MeshComponent.obj
 0002:000a5d00       ?_Insert_n@?$vector@UVertPNT@@V?$allocator@UVertPNT@@@std@@@std@@IAEXV?$_Vector_const_iterator@UVertPNT@@V?$allocator@UVertPNT@@@std@@@2@IABUVertPNT@@@Z 0057ed00 f i MeshComponent.obj
 0002:000a62a0       ?_Xlen@?$vector@UVertPNT@@V?$allocator@UVertPNT@@@std@@@std@@KAXXZ 0057f2a0 f i MeshComponent.obj
 0002:000a6390       ??0?$_Container_base_aux_alloc_empty@V?$allocator@UVertPNT@@@std@@@std@@IAE@V?$allocator@UVertPNT@@@1@@Z 0057f390 f i MeshComponent.obj
 0002:000a6400       ??0?$allocator@UVertPNT@@@std@@QAE@ABV01@@Z 0057f400 f i MeshComponent.obj
 0002:000a6440       ?deallocate@?$allocator@UVertPNT@@@std@@QAEXPAUVertPNT@@I@Z 0057f440 f i MeshComponent.obj
 0002:000a64a0       ?allocate@?$allocator@UVertPNT@@@std@@QAEPAUVertPNT@@I@Z 0057f4a0 f i MeshComponent.obj
 0002:000a6500       ??0?$_Vector_iterator@UVertexPosCol@@V?$allocator@UVertexPosCol@@@std@@@std@@QAE@PAUVertexPosCol@@PBV_Container_base_secure@1@@Z 0057f500 f i MeshComponent.obj
 0002:000a6560       ??H?$_Vector_iterator@UVertexPosCol@@V?$allocator@UVertexPosCol@@@std@@@std@@QBE?AV01@H@Z 0057f560 f i MeshComponent.obj
 0002:000a6680       ??G?$_Vector_const_iterator@UVertexPosCol@@V?$allocator@UVertexPosCol@@@std@@@std@@QBEHABV01@@Z 0057f680 f i MeshComponent.obj
 0002:000a66f0       ??0?$_Vector_const_iterator@VFace@@V?$allocator@VFace@@@std@@@std@@QAE@PAVFace@@PBV_Container_base_secure@1@@Z 0057f6f0 f i MeshComponent.obj
 0002:000a6840       ??G?$_Vector_const_iterator@VFace@@V?$allocator@VFace@@@std@@@std@@QBEHABV01@@Z 0057f840 f i MeshComponent.obj
 0002:000a68b0       ??0?$_Vector_iterator@VFace@@V?$allocator@VFace@@@std@@@std@@QAE@PAVFace@@PBV_Container_base_secure@1@@Z 0057f8b0 f i MeshComponent.obj
 0002:000a6910       ??H?$_Vector_iterator@VFace@@V?$allocator@VFace@@@std@@@std@@QBE?AV01@H@Z 0057f910 f i MeshComponent.obj
 0002:000a6a30       ??0?$_Vector_iterator@UVertexPosNorCol@@V?$allocator@UVertexPosNorCol@@@std@@@std@@QAE@PAUVertexPosNorCol@@PBV_Container_base_secure@1@@Z 0057fa30 f i MeshComponent.obj
 0002:000a6a90       ??H?$_Vector_iterator@UVertexPosNorCol@@V?$allocator@UVertexPosNorCol@@@std@@@std@@QBE?AV01@H@Z 0057fa90 f i MeshComponent.obj
 0002:000a6bb0       ??G?$_Vector_const_iterator@UVertexPosNorCol@@V?$allocator@UVertexPosNorCol@@@std@@@std@@QBEHABV01@@Z 0057fbb0 f i MeshComponent.obj
 0002:000a6c20       ??0?$_Vector_iterator@UVertexPointPSC@@V?$allocator@UVertexPointPSC@@@std@@@std@@QAE@PAUVertexPointPSC@@PBV_Container_base_secure@1@@Z 0057fc20 f i MeshComponent.obj
 0002:000a6c80       ??H?$_Vector_iterator@UVertexPointPSC@@V?$allocator@UVertexPointPSC@@@std@@@std@@QBE?AV01@H@Z 0057fc80 f i MeshComponent.obj
 0002:000a6da0       ??G?$_Vector_const_iterator@UVertexPointPSC@@V?$allocator@UVertexPointPSC@@@std@@@std@@QBEHABV01@@Z 0057fda0 f i MeshComponent.obj
 0002:000a6e10       ??0?$_Vector_iterator@UVertPNT@@V?$allocator@UVertPNT@@@std@@@std@@QAE@PAUVertPNT@@PBV_Container_base_secure@1@@Z 0057fe10 f i MeshComponent.obj
 0002:000a6e70       ??H?$_Vector_iterator@UVertPNT@@V?$allocator@UVertPNT@@@std@@@std@@QBE?AV01@H@Z 0057fe70 f i MeshComponent.obj
 0002:000a6f90       ??G?$_Vector_const_iterator@UVertPNT@@V?$allocator@UVertPNT@@@std@@@std@@QBEHABV01@@Z 0057ff90 f i MeshComponent.obj
 0002:000a7000       ??0?$_Vector_iterator@UVertexPosCol@@V?$allocator@UVertexPosCol@@@std@@@std@@QAE@ABV01@@Z 00580000 f i MeshComponent.obj
 0002:000a7060       ??0?$_Ranit@VFace@@HPBV1@ABV1@@std@@QAE@XZ 00580060 f i MeshComponent.obj
 0002:000a70c0       ??0?$_Vector_iterator@VFace@@V?$allocator@VFace@@@std@@@std@@QAE@ABV01@@Z 005800c0 f i MeshComponent.obj
 0002:000a7120       ??0?$_Vector_iterator@UVertexPosNorCol@@V?$allocator@UVertexPosNorCol@@@std@@@std@@QAE@ABV01@@Z 00580120 f i MeshComponent.obj
 0002:000a7180       ??0?$_Vector_iterator@UVertexPointPSC@@V?$allocator@UVertexPointPSC@@@std@@@std@@QAE@ABV01@@Z 00580180 f i MeshComponent.obj
 0002:000a71e0       ??0?$_Vector_iterator@UVertPNT@@V?$allocator@UVertPNT@@@std@@@std@@QAE@ABV01@@Z 005801e0 f i MeshComponent.obj
 0002:000a7240       ??0?$_Iterator_with_base@Urandom_access_iterator_tag@std@@VFace@@HPBV3@ABV3@V_Iterator_base@2@@std@@QAE@XZ 00580240 f i MeshComponent.obj
 0002:000a72a0       ?max_size@?$allocator@UVertexPosCol@@@std@@QBEIXZ 005802a0 f i MeshComponent.obj
 0002:000a7310       ?max_size@?$allocator@UVertexPosNorCol@@@std@@QBEIXZ 00580310 f i MeshComponent.obj
 0002:000a7380       ?max_size@?$allocator@UVertexPointPSC@@@std@@QBEIXZ 00580380 f i MeshComponent.obj
 0002:000a73f0       ?max_size@?$allocator@UVertPNT@@@std@@QBEIXZ 005803f0 f i MeshComponent.obj
 0002:000a7460       ??Y?$_Vector_iterator@UVertexPosCol@@V?$allocator@UVertexPosCol@@@std@@@std@@QAEAAV01@H@Z 00580460 f i MeshComponent.obj
 0002:000a74c0       ??0?$_Vector_const_iterator@UVertexPosCol@@V?$allocator@UVertexPosCol@@@std@@@std@@QAE@PAUVertexPosCol@@PBV_Container_base_secure@1@@Z 005804c0 f i MeshComponent.obj
 0002:000a7610       ?_Compat@?$_Vector_const_iterator@UVertexPosCol@@V?$allocator@UVertexPosCol@@@std@@@std@@QBEXABV12@@Z 00580610 f i MeshComponent.obj
 0002:000a7710       ?_Compat@?$_Vector_const_iterator@VFace@@V?$allocator@VFace@@@std@@@std@@QBEXABV12@@Z 00580710 f i MeshComponent.obj
 0002:000a7810       ??Y?$_Vector_iterator@VFace@@V?$allocator@VFace@@@std@@@std@@QAEAAV01@H@Z 00580810 f i MeshComponent.obj
 0002:000a7870       ??Y?$_Vector_iterator@UVertexPosNorCol@@V?$allocator@UVertexPosNorCol@@@std@@@std@@QAEAAV01@H@Z 00580870 f i MeshComponent.obj
 0002:000a78d0       ??0?$_Vector_const_iterator@UVertexPosNorCol@@V?$allocator@UVertexPosNorCol@@@std@@@std@@QAE@PAUVertexPosNorCol@@PBV_Container_base_secure@1@@Z 005808d0 f i MeshComponent.obj
 0002:000a7a20       ?_Compat@?$_Vector_const_iterator@UVertexPosNorCol@@V?$allocator@UVertexPosNorCol@@@std@@@std@@QBEXABV12@@Z 00580a20 f i MeshComponent.obj
 0002:000a7b20       ??Y?$_Vector_iterator@UVertexPointPSC@@V?$allocator@UVertexPointPSC@@@std@@@std@@QAEAAV01@H@Z 00580b20 f i MeshComponent.obj
 0002:000a7b80       ??0?$_Vector_const_iterator@UVertexPointPSC@@V?$allocator@UVertexPointPSC@@@std@@@std@@QAE@PAUVertexPointPSC@@PBV_Container_base_secure@1@@Z 00580b80 f i MeshComponent.obj
 0002:000a7cd0       ?_Compat@?$_Vector_const_iterator@UVertexPointPSC@@V?$allocator@UVertexPointPSC@@@std@@@std@@QBEXABV12@@Z 00580cd0 f i MeshComponent.obj
 0002:000a7dd0       ??Y?$_Vector_iterator@UVertPNT@@V?$allocator@UVertPNT@@@std@@@std@@QAEAAV01@H@Z 00580dd0 f i MeshComponent.obj
 0002:000a7e30       ??0?$_Vector_const_iterator@UVertPNT@@V?$allocator@UVertPNT@@@std@@@std@@QAE@PAUVertPNT@@PBV_Container_base_secure@1@@Z 00580e30 f i MeshComponent.obj
 0002:000a7f80       ?_Compat@?$_Vector_const_iterator@UVertPNT@@V?$allocator@UVertPNT@@@std@@@std@@QBEXABV12@@Z 00580f80 f i MeshComponent.obj
 0002:000a8080       ??0?$_Ranit@UVertexPosCol@@HPBU1@ABU1@@std@@QAE@XZ 00581080 f i MeshComponent.obj
 0002:000a80e0       ??0?$_Ranit@UVertexPosNorCol@@HPBU1@ABU1@@std@@QAE@XZ 005810e0 f i MeshComponent.obj
 0002:000a8140       ??0?$_Ranit@UVertexPointPSC@@HPBU1@ABU1@@std@@QAE@XZ 00581140 f i MeshComponent.obj
 0002:000a81a0       ??0?$_Ranit@UVertPNT@@HPBU1@ABU1@@std@@QAE@XZ 005811a0 f i MeshComponent.obj
 0002:000a8200       ??0?$_Iterator_with_base@Urandom_access_iterator_tag@std@@UVertexPosCol@@HPBU3@ABU3@V_Iterator_base@2@@std@@QAE@XZ 00581200 f i MeshComponent.obj
 0002:000a8260       ??0?$_Iterator_with_base@Urandom_access_iterator_tag@std@@UVertexPosNorCol@@HPBU3@ABU3@V_Iterator_base@2@@std@@QAE@XZ 00581260 f i MeshComponent.obj
 0002:000a82c0       ??0?$_Iterator_with_base@Urandom_access_iterator_tag@std@@UVertexPointPSC@@HPBU3@ABU3@V_Iterator_base@2@@std@@QAE@XZ 005812c0 f i MeshComponent.obj
 0002:000a8320       ??0?$_Iterator_with_base@Urandom_access_iterator_tag@std@@UVertPNT@@HPBU3@ABU3@V_Iterator_base@2@@std@@QAE@XZ 00581320 f i MeshComponent.obj
 0002:000a8380       ??Y?$_Vector_const_iterator@UVertexPosCol@@V?$allocator@UVertexPosCol@@@std@@@std@@QAEAAV01@H@Z 00581380 f i MeshComponent.obj
 0002:000a8520       ??Y?$_Vector_const_iterator@VFace@@V?$allocator@VFace@@@std@@@std@@QAEAAV01@H@Z 00581520 f i MeshComponent.obj
 0002:000a86c0       ??Y?$_Vector_const_iterator@UVertexPosNorCol@@V?$allocator@UVertexPosNorCol@@@std@@@std@@QAEAAV01@H@Z 005816c0 f i MeshComponent.obj
 0002:000a8860       ??Y?$_Vector_const_iterator@UVertexPointPSC@@V?$allocator@UVertexPointPSC@@@std@@@std@@QAEAAV01@H@Z 00581860 f i MeshComponent.obj
 0002:000a8a00       ??Y?$_Vector_const_iterator@UVertPNT@@V?$allocator@UVertPNT@@@std@@@std@@QAEAAV01@H@Z 00581a00 f i MeshComponent.obj
 0002:000a8ba0       ??$_Ucopy@V?$_Vector_const_iterator@VFace@@V?$allocator@VFace@@@std@@@std@@@?$vector@VFace@@V?$allocator@VFace@@@std@@@std@@IAEPAVFace@@V?$_Vector_const_iterator@VFace@@V?$allocator@VFace@@@std@@@1@0PAV2@@Z 00581ba0 f i MeshComponent.obj
 0002:000a8ce0       ??$unchecked_uninitialized_fill_n@PAUVertexPosCol@@IU1@V?$allocator@UVertexPosCol@@@std@@@stdext@@YAXPAUVertexPosCol@@IABU1@AAV?$allocator@UVertexPosCol@@@std@@@Z 00581ce0 f i MeshComponent.obj
 0002:000a8d80       ??$unchecked_uninitialized_fill_n@PAUVertexPosNorCol@@IU1@V?$allocator@UVertexPosNorCol@@@std@@@stdext@@YAXPAUVertexPosNorCol@@IABU1@AAV?$allocator@UVertexPosNorCol@@@std@@@Z 00581d80 f i MeshComponent.obj
 0002:000a8e20       ??$unchecked_uninitialized_fill_n@PAUVertexPointPSC@@IU1@V?$allocator@UVertexPointPSC@@@std@@@stdext@@YAXPAUVertexPointPSC@@IABU1@AAV?$allocator@UVertexPointPSC@@@std@@@Z 00581e20 f i MeshComponent.obj
 0002:000a8ec0       ??$unchecked_uninitialized_fill_n@PAUVertPNT@@IU1@V?$allocator@UVertPNT@@@std@@@stdext@@YAXPAUVertPNT@@IABU1@AAV?$allocator@UVertPNT@@@std@@@Z 00581ec0 f i MeshComponent.obj
 0002:000a8f60       ??$_Destroy_range@V?$allocator@UVertexPosCol@@@std@@@std@@YAXPAUVertexPosCol@@0AAV?$allocator@UVertexPosCol@@@0@@Z 00581f60 f i MeshComponent.obj
 0002:000a8fe0       ??$_Umove@PAUVertexPosCol@@@?$vector@UVertexPosCol@@V?$allocator@UVertexPosCol@@@std@@@std@@IAEPAUVertexPosCol@@PAU2@00@Z 00581fe0 f i MeshComponent.obj
 0002:000a9050       ??$fill@PAUVertexPosCol@@U1@@std@@YAXPAUVertexPosCol@@0ABU1@@Z 00582050 f i MeshComponent.obj
 0002:000a90c0       ??$_Unchecked_move_backward@PAUVertexPosCol@@PAU1@@stdext@@YAPAUVertexPosCol@@PAU1@00@Z 005820c0 f i MeshComponent.obj
 0002:000a9190       ??$_Allocate@UVertexPosCol@@@std@@YAPAUVertexPosCol@@IPAU1@@Z 00582190 f i MeshComponent.obj
 0002:000a9230       ??$_Umove@PAVFace@@@?$vector@VFace@@V?$allocator@VFace@@@std@@@std@@IAEPAVFace@@PAV2@00@Z 00582230 f i MeshComponent.obj
 0002:000a92a0       ??$fill@PAVFace@@V1@@std@@YAXPAVFace@@0ABV1@@Z 005822a0 f i MeshComponent.obj
 0002:000a9310       ??$_Unchecked_move_backward@PAVFace@@PAV1@@stdext@@YAPAVFace@@PAV1@00@Z 00582310 f i MeshComponent.obj
 0002:000a93e0       ??$_Destroy_range@V?$allocator@UVertexPosNorCol@@@std@@@std@@YAXPAUVertexPosNorCol@@0AAV?$allocator@UVertexPosNorCol@@@0@@Z 005823e0 f i MeshComponent.obj
 0002:000a9460       ??$_Umove@PAUVertexPosNorCol@@@?$vector@UVertexPosNorCol@@V?$allocator@UVertexPosNorCol@@@std@@@std@@IAEPAUVertexPosNorCol@@PAU2@00@Z 00582460 f i MeshComponent.obj
 0002:000a94d0       ??$fill@PAUVertexPosNorCol@@U1@@std@@YAXPAUVertexPosNorCol@@0ABU1@@Z 005824d0 f i MeshComponent.obj
 0002:000a9540       ??$_Unchecked_move_backward@PAUVertexPosNorCol@@PAU1@@stdext@@YAPAUVertexPosNorCol@@PAU1@00@Z 00582540 f i MeshComponent.obj
 0002:000a9610       ??$_Allocate@UVertexPosNorCol@@@std@@YAPAUVertexPosNorCol@@IPAU1@@Z 00582610 f i MeshComponent.obj
 0002:000a96b0       ??$_Destroy_range@V?$allocator@UVertexPointPSC@@@std@@@std@@YAXPAUVertexPointPSC@@0AAV?$allocator@UVertexPointPSC@@@0@@Z 005826b0 f i MeshComponent.obj
 0002:000a9730       ??$_Umove@PAUVertexPointPSC@@@?$vector@UVertexPointPSC@@V?$allocator@UVertexPointPSC@@@std@@@std@@IAEPAUVertexPointPSC@@PAU2@00@Z 00582730 f i MeshComponent.obj
 0002:000a97a0       ??$fill@PAUVertexPointPSC@@U1@@std@@YAXPAUVertexPointPSC@@0ABU1@@Z 005827a0 f i MeshComponent.obj
 0002:000a9810       ??$_Unchecked_move_backward@PAUVertexPointPSC@@PAU1@@stdext@@YAPAUVertexPointPSC@@PAU1@00@Z 00582810 f i MeshComponent.obj
 0002:000a98e0       ??$_Allocate@UVertexPointPSC@@@std@@YAPAUVertexPointPSC@@IPAU1@@Z 005828e0 f i MeshComponent.obj
 0002:000a9980       ??$_Destroy_range@V?$allocator@UVertPNT@@@std@@@std@@YAXPAUVertPNT@@0AAV?$allocator@UVertPNT@@@0@@Z 00582980 f i MeshComponent.obj
 0002:000a9a00       ??$_Umove@PAUVertPNT@@@?$vector@UVertPNT@@V?$allocator@UVertPNT@@@std@@@std@@IAEPAUVertPNT@@PAU2@00@Z 00582a00 f i MeshComponent.obj
 0002:000a9a70       ??$fill@PAUVertPNT@@U1@@std@@YAXPAUVertPNT@@0ABU1@@Z 00582a70 f i MeshComponent.obj
 0002:000a9ae0       ??$_Unchecked_move_backward@PAUVertPNT@@PAU1@@stdext@@YAPAUVertPNT@@PAU1@00@Z 00582ae0 f i MeshComponent.obj
 0002:000a9bb0       ??$_Allocate@UVertPNT@@@std@@YAPAUVertPNT@@IPAU1@@Z 00582bb0 f i MeshComponent.obj
 0002:000a9c50       ??$unchecked_uninitialized_copy@V?$_Vector_const_iterator@VFace@@V?$allocator@VFace@@@std@@@std@@PAVFace@@V?$allocator@VFace@@@2@@stdext@@YAPAVFace@@V?$_Vector_const_iterator@VFace@@V?$allocator@VFace@@@std@@@std@@0PAV1@AAV?$allocator@VFace@@@3@@Z 00582c50 f i MeshComponent.obj
 0002:000a9dc0       ??$_Ptr_cat@PAUVertexPosCol@@PAU1@@std@@YA?AU_Nonscalar_ptr_iterator_tag@0@AAPAUVertexPosCol@@0@Z 00582dc0 f i MeshComponent.obj
 0002:000a9e30       ??$_Uninit_fill_n@PAUVertexPosCol@@IU1@V?$allocator@UVertexPosCol@@@std@@@std@@YAXPAUVertexPosCol@@IABU1@AAV?$allocator@UVertexPosCol@@@0@U_Nonscalar_ptr_iterator_tag@0@U_Range_checked_iterator_tag@0@@Z 00582e30 f i MeshComponent.obj
 0002:000a9f40       ??$_Ptr_cat@PAUVertexPosNorCol@@PAU1@@std@@YA?AU_Nonscalar_ptr_iterator_tag@0@AAPAUVertexPosNorCol@@0@Z 00582f40 f i MeshComponent.obj
 0002:000a9fb0       ??$_Uninit_fill_n@PAUVertexPosNorCol@@IU1@V?$allocator@UVertexPosNorCol@@@std@@@std@@YAXPAUVertexPosNorCol@@IABU1@AAV?$allocator@UVertexPosNorCol@@@0@U_Nonscalar_ptr_iterator_tag@0@U_Range_checked_iterator_tag@0@@Z 00582fb0 f i MeshComponent.obj
 0002:000aa0c0       ??$_Ptr_cat@PAUVertexPointPSC@@PAU1@@std@@YA?AU_Nonscalar_ptr_iterator_tag@0@AAPAUVertexPointPSC@@0@Z 005830c0 f i MeshComponent.obj
 0002:000aa130       ??$_Uninit_fill_n@PAUVertexPointPSC@@IU1@V?$allocator@UVertexPointPSC@@@std@@@std@@YAXPAUVertexPointPSC@@IABU1@AAV?$allocator@UVertexPointPSC@@@0@U_Nonscalar_ptr_iterator_tag@0@U_Range_checked_iterator_tag@0@@Z 00583130 f i MeshComponent.obj
 0002:000aa240       ??$_Ptr_cat@PAUVertPNT@@PAU1@@std@@YA?AU_Nonscalar_ptr_iterator_tag@0@AAPAUVertPNT@@0@Z 00583240 f i MeshComponent.obj
 0002:000aa2b0       ??$_Uninit_fill_n@PAUVertPNT@@IU1@V?$allocator@UVertPNT@@@std@@@std@@YAXPAUVertPNT@@IABU1@AAV?$allocator@UVertPNT@@@0@U_Nonscalar_ptr_iterator_tag@0@U_Range_checked_iterator_tag@0@@Z 005832b0 f i MeshComponent.obj
 0002:000aa3c0       ??$_Destroy_range@V?$allocator@UVertexPosCol@@@std@@@std@@YAXPAUVertexPosCol@@0AAV?$allocator@UVertexPosCol@@@0@U_Nonscalar_ptr_iterator_tag@0@@Z 005833c0 f i MeshComponent.obj
 0002:000aa430       ??$_Unchecked_uninitialized_move@PAUVertexPosCol@@PAU1@V?$allocator@UVertexPosCol@@@std@@@stdext@@YAPAUVertexPosCol@@PAU1@00AAV?$allocator@UVertexPosCol@@@std@@@Z 00583430 f i MeshComponent.obj
 0002:000aa4e0       ??$_Checked_base@PAUVertexPosCol@@@std@@YAPAUVertexPosCol@@AAPAU1@@Z 005834e0 f i MeshComponent.obj
 0002:000aa570       ??$_Fill@PAUVertexPosCol@@U1@@std@@YAXPAUVertexPosCol@@0ABU1@@Z 00583570 f i MeshComponent.obj
 0002:000aa600       ??$_Iter_random@PAUVertexPosCol@@PAU1@@std@@YA?AUrandom_access_iterator_tag@0@ABQAUVertexPosCol@@0@Z 00583600 f i MeshComponent.obj
 0002:000aa670       ??$_Move_cat@PAUVertexPosCol@@@std@@YA?AU_Undefined_move_tag@0@ABQAUVertexPosCol@@@Z 00583670 f i MeshComponent.obj
 0002:000aa6e0       ??$_Move_backward_opt@PAUVertexPosCol@@PAU1@Urandom_access_iterator_tag@std@@U_Undefined_move_tag@3@@std@@YAPAUVertexPosCol@@PAU1@00Urandom_access_iterator_tag@0@U_Undefined_move_tag@0@U_Range_checked_iterator_tag@0@@Z 005836e0 f i MeshComponent.obj
 0002:000aa780       ??$_Unchecked_uninitialized_move@PAVFace@@PAV1@V?$allocator@VFace@@@std@@@stdext@@YAPAVFace@@PAV1@00AAV?$allocator@VFace@@@std@@@Z 00583780 f i MeshComponent.obj
 0002:000aa830       ??$_Checked_base@PAVFace@@@std@@YAPAVFace@@AAPAV1@@Z 00583830 f i MeshComponent.obj
 0002:000aa8c0       ??$_Fill@PAVFace@@V1@@std@@YAXPAVFace@@0ABV1@@Z 005838c0 f i MeshComponent.obj
 0002:000aa950       ??$_Iter_random@PAVFace@@PAV1@@std@@YA?AUrandom_access_iterator_tag@0@ABQAVFace@@0@Z 00583950 f i MeshComponent.obj
 0002:000aa9c0       ??$_Move_cat@PAVFace@@@std@@YA?AU_Undefined_move_tag@0@ABQAVFace@@@Z 005839c0 f i MeshComponent.obj
 0002:000aaa30       ??$_Move_backward_opt@PAVFace@@PAV1@Urandom_access_iterator_tag@std@@U_Undefined_move_tag@3@@std@@YAPAVFace@@PAV1@00Urandom_access_iterator_tag@0@U_Undefined_move_tag@0@U_Range_checked_iterator_tag@0@@Z 00583a30 f i MeshComponent.obj
 0002:000aaad0       ??$_Destroy_range@V?$allocator@UVertexPosNorCol@@@std@@@std@@YAXPAUVertexPosNorCol@@0AAV?$allocator@UVertexPosNorCol@@@0@U_Nonscalar_ptr_iterator_tag@0@@Z 00583ad0 f i MeshComponent.obj
 0002:000aab40       ??$_Unchecked_uninitialized_move@PAUVertexPosNorCol@@PAU1@V?$allocator@UVertexPosNorCol@@@std@@@stdext@@YAPAUVertexPosNorCol@@PAU1@00AAV?$allocator@UVertexPosNorCol@@@std@@@Z 00583b40 f i MeshComponent.obj
 0002:000aabf0       ??$_Checked_base@PAUVertexPosNorCol@@@std@@YAPAUVertexPosNorCol@@AAPAU1@@Z 00583bf0 f i MeshComponent.obj
 0002:000aac80       ??$_Fill@PAUVertexPosNorCol@@U1@@std@@YAXPAUVertexPosNorCol@@0ABU1@@Z 00583c80 f i MeshComponent.obj
 0002:000aad10       ??$_Iter_random@PAUVertexPosNorCol@@PAU1@@std@@YA?AUrandom_access_iterator_tag@0@ABQAUVertexPosNorCol@@0@Z 00583d10 f i MeshComponent.obj
 0002:000aad80       ??$_Move_cat@PAUVertexPosNorCol@@@std@@YA?AU_Undefined_move_tag@0@ABQAUVertexPosNorCol@@@Z 00583d80 f i MeshComponent.obj
 0002:000aadf0       ??$_Move_backward_opt@PAUVertexPosNorCol@@PAU1@Urandom_access_iterator_tag@std@@U_Undefined_move_tag@3@@std@@YAPAUVertexPosNorCol@@PAU1@00Urandom_access_iterator_tag@0@U_Undefined_move_tag@0@U_Range_checked_iterator_tag@0@@Z 00583df0 f i MeshComponent.obj
 0002:000aae90       ??$_Destroy_range@V?$allocator@UVertexPointPSC@@@std@@@std@@YAXPAUVertexPointPSC@@0AAV?$allocator@UVertexPointPSC@@@0@U_Nonscalar_ptr_iterator_tag@0@@Z 00583e90 f i MeshComponent.obj
 0002:000aaf00       ??$_Unchecked_uninitialized_move@PAUVertexPointPSC@@PAU1@V?$allocator@UVertexPointPSC@@@std@@@stdext@@YAPAUVertexPointPSC@@PAU1@00AAV?$allocator@UVertexPointPSC@@@std@@@Z 00583f00 f i MeshComponent.obj
 0002:000aafb0       ??$_Checked_base@PAUVertexPointPSC@@@std@@YAPAUVertexPointPSC@@AAPAU1@@Z 00583fb0 f i MeshComponent.obj
 0002:000ab040       ??$_Fill@PAUVertexPointPSC@@U1@@std@@YAXPAUVertexPointPSC@@0ABU1@@Z 00584040 f i MeshComponent.obj
 0002:000ab0d0       ??$_Iter_random@PAUVertexPointPSC@@PAU1@@std@@YA?AUrandom_access_iterator_tag@0@ABQAUVertexPointPSC@@0@Z 005840d0 f i MeshComponent.obj
 0002:000ab140       ??$_Move_cat@PAUVertexPointPSC@@@std@@YA?AU_Undefined_move_tag@0@ABQAUVertexPointPSC@@@Z 00584140 f i MeshComponent.obj
 0002:000ab1b0       ??$_Move_backward_opt@PAUVertexPointPSC@@PAU1@Urandom_access_iterator_tag@std@@U_Undefined_move_tag@3@@std@@YAPAUVertexPointPSC@@PAU1@00Urandom_access_iterator_tag@0@U_Undefined_move_tag@0@U_Range_checked_iterator_tag@0@@Z 005841b0 f i MeshComponent.obj
 0002:000ab250       ??$_Destroy_range@V?$allocator@UVertPNT@@@std@@@std@@YAXPAUVertPNT@@0AAV?$allocator@UVertPNT@@@0@U_Nonscalar_ptr_iterator_tag@0@@Z 00584250 f i MeshComponent.obj
 0002:000ab2c0       ??$_Unchecked_uninitialized_move@PAUVertPNT@@PAU1@V?$allocator@UVertPNT@@@std@@@stdext@@YAPAUVertPNT@@PAU1@00AAV?$allocator@UVertPNT@@@std@@@Z 005842c0 f i MeshComponent.obj
 0002:000ab370       ??$_Checked_base@PAUVertPNT@@@std@@YAPAUVertPNT@@AAPAU1@@Z 00584370 f i MeshComponent.obj
 0002:000ab400       ??$_Fill@PAUVertPNT@@U1@@std@@YAXPAUVertPNT@@0ABU1@@Z 00584400 f i MeshComponent.obj
 0002:000ab490       ??$_Iter_random@PAUVertPNT@@PAU1@@std@@YA?AUrandom_access_iterator_tag@0@ABQAUVertPNT@@0@Z 00584490 f i MeshComponent.obj
 0002:000ab500       ??$_Move_cat@PAUVertPNT@@@std@@YA?AU_Undefined_move_tag@0@ABQAUVertPNT@@@Z 00584500 f i MeshComponent.obj
 0002:000ab570       ??$_Move_backward_opt@PAUVertPNT@@PAU1@Urandom_access_iterator_tag@std@@U_Undefined_move_tag@3@@std@@YAPAUVertPNT@@PAU1@00Urandom_access_iterator_tag@0@U_Undefined_move_tag@0@U_Range_checked_iterator_tag@0@@Z 00584570 f i MeshComponent.obj
 0002:000ab610       ?construct@?$allocator@UVertexPosCol@@@std@@QAEXPAUVertexPosCol@@ABU3@@Z 00584610 f i MeshComponent.obj
 0002:000ab670       ?destroy@?$allocator@UVertexPosCol@@@std@@QAEXPAUVertexPosCol@@@Z 00584670 f i MeshComponent.obj
 0002:000ab6d0       ?construct@?$allocator@UVertexPosNorCol@@@std@@QAEXPAUVertexPosNorCol@@ABU3@@Z 005846d0 f i MeshComponent.obj
 0002:000ab730       ?destroy@?$allocator@UVertexPosNorCol@@@std@@QAEXPAUVertexPosNorCol@@@Z 00584730 f i MeshComponent.obj
 0002:000ab790       ?construct@?$allocator@UVertexPointPSC@@@std@@QAEXPAUVertexPointPSC@@ABU3@@Z 00584790 f i MeshComponent.obj
 0002:000ab7f0       ?destroy@?$allocator@UVertexPointPSC@@@std@@QAEXPAUVertexPointPSC@@@Z 005847f0 f i MeshComponent.obj
 0002:000ab850       ?construct@?$allocator@UVertPNT@@@std@@QAEXPAUVertPNT@@ABU3@@Z 00584850 f i MeshComponent.obj
 0002:000ab8b0       ?destroy@?$allocator@UVertPNT@@@std@@QAEXPAUVertPNT@@@Z 005848b0 f i MeshComponent.obj
 0002:000ab910       ??$_Checked_base@V?$_Vector_const_iterator@VFace@@V?$allocator@VFace@@@std@@@std@@@std@@YA?AV?$_Vector_const_iterator@VFace@@V?$allocator@VFace@@@std@@@0@AAV10@@Z 00584910 f i MeshComponent.obj
 0002:000ab9d0       ??$_Ptr_cat@V?$_Vector_const_iterator@VFace@@V?$allocator@VFace@@@std@@@std@@PAVFace@@@std@@YA?AU_Nonscalar_ptr_iterator_tag@0@AAV?$_Vector_const_iterator@VFace@@V?$allocator@VFace@@@std@@@0@AAPAVFace@@@Z 005849d0 f i MeshComponent.obj
 0002:000aba40       ??$_Uninit_copy@V?$_Vector_const_iterator@VFace@@V?$allocator@VFace@@@std@@@std@@PAVFace@@V?$allocator@VFace@@@2@@std@@YAPAVFace@@V?$_Vector_const_iterator@VFace@@V?$allocator@VFace@@@std@@@0@0PAV1@AAV?$allocator@VFace@@@0@U_Nonscalar_ptr_iterator_tag@0@U_Range_checked_iterator_tag@0@@Z 00584a40 f i MeshComponent.obj
 0002:000abc40       ??$_Uninit_move@PAUVertexPosCol@@PAU1@V?$allocator@UVertexPosCol@@@std@@U_Undefined_move_tag@3@@std@@YAPAUVertexPosCol@@PAU1@00AAV?$allocator@UVertexPosCol@@@0@U_Undefined_move_tag@0@U_Range_checked_iterator_tag@0@@Z 00584c40 f i MeshComponent.obj
 0002:000abca0       ??$_Checked_base@PAUVertexPosCol@@@std@@YAPAUVertexPosCol@@AAPAU1@U_Unchanged_checked_iterator_base_type_tag@0@@Z 00584ca0 f i MeshComponent.obj
 0002:000abce0       ??$_Debug_range@PAUVertexPosCol@@@std@@YAXPAUVertexPosCol@@0PB_WI@Z 00584ce0 f i MeshComponent.obj
 0002:000abd60       ??$_Copy_backward_opt@PAUVertexPosCol@@PAU1@@std@@YAPAUVertexPosCol@@PAU1@00Urandom_access_iterator_tag@0@U_Nonscalar_ptr_iterator_tag@0@U_Range_checked_iterator_tag@0@@Z 00584d60 f i MeshComponent.obj
 0002:000abe20       ??$_Uninit_move@PAVFace@@PAV1@V?$allocator@VFace@@@std@@U_Undefined_move_tag@3@@std@@YAPAVFace@@PAV1@00AAV?$allocator@VFace@@@0@U_Undefined_move_tag@0@U_Range_checked_iterator_tag@0@@Z 00584e20 f i MeshComponent.obj
 0002:000abe80       ??$_Checked_base@PAVFace@@@std@@YAPAVFace@@AAPAV1@U_Unchanged_checked_iterator_base_type_tag@0@@Z 00584e80 f i MeshComponent.obj
 0002:000abec0       ??$_Debug_range@PAVFace@@@std@@YAXPAVFace@@0PB_WI@Z 00584ec0 f i MeshComponent.obj
 0002:000abf40       ??$_Copy_backward_opt@PAVFace@@PAV1@@std@@YAPAVFace@@PAV1@00Urandom_access_iterator_tag@0@U_Nonscalar_ptr_iterator_tag@0@U_Range_checked_iterator_tag@0@@Z 00584f40 f i MeshComponent.obj
 0002:000ac000       ??$_Uninit_move@PAUVertexPosNorCol@@PAU1@V?$allocator@UVertexPosNorCol@@@std@@U_Undefined_move_tag@3@@std@@YAPAUVertexPosNorCol@@PAU1@00AAV?$allocator@UVertexPosNorCol@@@0@U_Undefined_move_tag@0@U_Range_checked_iterator_tag@0@@Z 00585000 f i MeshComponent.obj
 0002:000ac060       ??$_Checked_base@PAUVertexPosNorCol@@@std@@YAPAUVertexPosNorCol@@AAPAU1@U_Unchanged_checked_iterator_base_type_tag@0@@Z 00585060 f i MeshComponent.obj
 0002:000ac0a0       ??$_Debug_range@PAUVertexPosNorCol@@@std@@YAXPAUVertexPosNorCol@@0PB_WI@Z 005850a0 f i MeshComponent.obj
 0002:000ac120       ??$_Copy_backward_opt@PAUVertexPosNorCol@@PAU1@@std@@YAPAUVertexPosNorCol@@PAU1@00Urandom_access_iterator_tag@0@U_Nonscalar_ptr_iterator_tag@0@U_Range_checked_iterator_tag@0@@Z 00585120 f i MeshComponent.obj
 0002:000ac1e0       ??$_Uninit_move@PAUVertexPointPSC@@PAU1@V?$allocator@UVertexPointPSC@@@std@@U_Undefined_move_tag@3@@std@@YAPAUVertexPointPSC@@PAU1@00AAV?$allocator@UVertexPointPSC@@@0@U_Undefined_move_tag@0@U_Range_checked_iterator_tag@0@@Z 005851e0 f i MeshComponent.obj
 0002:000ac240       ??$_Checked_base@PAUVertexPointPSC@@@std@@YAPAUVertexPointPSC@@AAPAU1@U_Unchanged_checked_iterator_base_type_tag@0@@Z 00585240 f i MeshComponent.obj
 0002:000ac280       ??$_Debug_range@PAUVertexPointPSC@@@std@@YAXPAUVertexPointPSC@@0PB_WI@Z 00585280 f i MeshComponent.obj
 0002:000ac300       ??$_Copy_backward_opt@PAUVertexPointPSC@@PAU1@@std@@YAPAUVertexPointPSC@@PAU1@00Urandom_access_iterator_tag@0@U_Nonscalar_ptr_iterator_tag@0@U_Range_checked_iterator_tag@0@@Z 00585300 f i MeshComponent.obj
 0002:000ac3c0       ??$_Uninit_move@PAUVertPNT@@PAU1@V?$allocator@UVertPNT@@@std@@U_Undefined_move_tag@3@@std@@YAPAUVertPNT@@PAU1@00AAV?$allocator@UVertPNT@@@0@U_Undefined_move_tag@0@U_Range_checked_iterator_tag@0@@Z 005853c0 f i MeshComponent.obj
 0002:000ac420       ??$_Checked_base@PAUVertPNT@@@std@@YAPAUVertPNT@@AAPAU1@U_Unchanged_checked_iterator_base_type_tag@0@@Z 00585420 f i MeshComponent.obj
 0002:000ac460       ??$_Debug_range@PAUVertPNT@@@std@@YAXPAUVertPNT@@0PB_WI@Z 00585460 f i MeshComponent.obj
 0002:000ac4e0       ??$_Copy_backward_opt@PAUVertPNT@@PAU1@@std@@YAPAUVertPNT@@PAU1@00Urandom_access_iterator_tag@0@U_Nonscalar_ptr_iterator_tag@0@U_Range_checked_iterator_tag@0@@Z 005854e0 f i MeshComponent.obj
 0002:000ac5a0       ??$_Construct@UVertexPosCol@@U1@@std@@YAXPAUVertexPosCol@@ABU1@@Z 005855a0 f i MeshComponent.obj
 0002:000ac640       ??$_Destroy@UVertexPosCol@@@std@@YAXPAUVertexPosCol@@@Z 00585640 f i MeshComponent.obj
 0002:000ac670       ??$_Construct@UVertexPosNorCol@@U1@@std@@YAXPAUVertexPosNorCol@@ABU1@@Z 00585670 f i MeshComponent.obj
 0002:000ac710       ??$_Destroy@UVertexPosNorCol@@@std@@YAXPAUVertexPosNorCol@@@Z 00585710 f i MeshComponent.obj
 0002:000ac740       ??$_Construct@UVertexPointPSC@@U1@@std@@YAXPAUVertexPointPSC@@ABU1@@Z 00585740 f i MeshComponent.obj
 0002:000ac7e0       ??$_Destroy@UVertexPointPSC@@@std@@YAXPAUVertexPointPSC@@@Z 005857e0 f i MeshComponent.obj
 0002:000ac810       ??$_Construct@UVertPNT@@U1@@std@@YAXPAUVertPNT@@ABU1@@Z 00585810 f i MeshComponent.obj
 0002:000ac8b0       ??$_Destroy@UVertPNT@@@std@@YAXPAUVertPNT@@@Z 005858b0 f i MeshComponent.obj
 0002:000ac8e0       ??D?$_Vector_const_iterator@VFace@@V?$allocator@VFace@@@std@@@std@@QBEABVFace@@XZ 005858e0 f i MeshComponent.obj
 0002:000ac9f0       ??E?$_Vector_const_iterator@VFace@@V?$allocator@VFace@@@std@@@std@@QAEAAV01@XZ 005859f0 f i MeshComponent.obj
 0002:000acb90       ??9?$_Vector_const_iterator@VFace@@V?$allocator@VFace@@@std@@@std@@QBE_NABV01@@Z 00585b90 f i MeshComponent.obj
 0002:000acc00       ??8?$_Vector_const_iterator@VFace@@V?$allocator@VFace@@@std@@@std@@QBE_NABV01@@Z 00585c00 f i MeshComponent.obj
 0002:000acc70       ??$_Checked_base@V?$_Vector_const_iterator@VFace@@V?$allocator@VFace@@@std@@@std@@@std@@YA?AV?$_Vector_const_iterator@VFace@@V?$allocator@VFace@@@std@@@0@AAV10@U_Unchanged_checked_iterator_base_type_tag@0@@Z 00585c70 f i MeshComponent.obj
 0002:000acce0       ??$_Debug_range@V?$_Vector_const_iterator@VFace@@V?$allocator@VFace@@@std@@@std@@@std@@YAXV?$_Vector_const_iterator@VFace@@V?$allocator@VFace@@@std@@@0@0PB_WI@Z 00585ce0 f i MeshComponent.obj
 0002:000ace10       ??$_Debug_pointer@VFace@@@std@@YAXPAVFace@@PB_WI@Z 00585e10 f i MeshComponent.obj
 0002:000ace80       ??$unchecked_uninitialized_copy@PAUVertexPosCol@@PAU1@V?$allocator@UVertexPosCol@@@std@@@stdext@@YAPAUVertexPosCol@@PAU1@00AAV?$allocator@UVertexPosCol@@@std@@@Z 00585e80 f i MeshComponent.obj
 0002:000acf30       ??$_Iter_cat@PAUVertexPosCol@@@std@@YA?AUrandom_access_iterator_tag@0@ABQAUVertexPosCol@@@Z 00585f30 f i MeshComponent.obj
 0002:000acfa0       ??$_Debug_range2@PAUVertexPosCol@@@std@@YAXPAUVertexPosCol@@0PB_WIUrandom_access_iterator_tag@0@@Z 00585fa0 f i MeshComponent.obj
 0002:000ad050       ??$_Copy_backward_opt@PAUVertexPosCol@@PAU1@Uforward_iterator_tag@std@@@std@@YAPAUVertexPosCol@@PAU1@00Uforward_iterator_tag@0@U_Nonscalar_ptr_iterator_tag@0@U_Range_checked_iterator_tag@0@@Z 00586050 f i MeshComponent.obj
 0002:000ad0f0       ??$unchecked_uninitialized_copy@PAVFace@@PAV1@V?$allocator@VFace@@@std@@@stdext@@YAPAVFace@@PAV1@00AAV?$allocator@VFace@@@std@@@Z 005860f0 f i MeshComponent.obj
 0002:000ad1a0       ??$_Iter_cat@PAVFace@@@std@@YA?AUrandom_access_iterator_tag@0@ABQAVFace@@@Z 005861a0 f i MeshComponent.obj
 0002:000ad210       ??$_Debug_range2@PAVFace@@@std@@YAXPAVFace@@0PB_WIUrandom_access_iterator_tag@0@@Z 00586210 f i MeshComponent.obj
 0002:000ad2c0       ??$_Copy_backward_opt@PAVFace@@PAV1@Uforward_iterator_tag@std@@@std@@YAPAVFace@@PAV1@00Uforward_iterator_tag@0@U_Nonscalar_ptr_iterator_tag@0@U_Range_checked_iterator_tag@0@@Z 005862c0 f i MeshComponent.obj
 0002:000ad360       ??$unchecked_uninitialized_copy@PAUVertexPosNorCol@@PAU1@V?$allocator@UVertexPosNorCol@@@std@@@stdext@@YAPAUVertexPosNorCol@@PAU1@00AAV?$allocator@UVertexPosNorCol@@@std@@@Z 00586360 f i MeshComponent.obj
 0002:000ad410       ??$_Iter_cat@PAUVertexPosNorCol@@@std@@YA?AUrandom_access_iterator_tag@0@ABQAUVertexPosNorCol@@@Z 00586410 f i MeshComponent.obj
 0002:000ad480       ??$_Debug_range2@PAUVertexPosNorCol@@@std@@YAXPAUVertexPosNorCol@@0PB_WIUrandom_access_iterator_tag@0@@Z 00586480 f i MeshComponent.obj
 0002:000ad530       ??$_Copy_backward_opt@PAUVertexPosNorCol@@PAU1@Uforward_iterator_tag@std@@@std@@YAPAUVertexPosNorCol@@PAU1@00Uforward_iterator_tag@0@U_Nonscalar_ptr_iterator_tag@0@U_Range_checked_iterator_tag@0@@Z 00586530 f i MeshComponent.obj
 0002:000ad5d0       ??$unchecked_uninitialized_copy@PAUVertexPointPSC@@PAU1@V?$allocator@UVertexPointPSC@@@std@@@stdext@@YAPAUVertexPointPSC@@PAU1@00AAV?$allocator@UVertexPointPSC@@@std@@@Z 005865d0 f i MeshComponent.obj
 0002:000ad680       ??$_Iter_cat@PAUVertexPointPSC@@@std@@YA?AUrandom_access_iterator_tag@0@ABQAUVertexPointPSC@@@Z 00586680 f i MeshComponent.obj
 0002:000ad6f0       ??$_Debug_range2@PAUVertexPointPSC@@@std@@YAXPAUVertexPointPSC@@0PB_WIUrandom_access_iterator_tag@0@@Z 005866f0 f i MeshComponent.obj
 0002:000ad7a0       ??$_Copy_backward_opt@PAUVertexPointPSC@@PAU1@Uforward_iterator_tag@std@@@std@@YAPAUVertexPointPSC@@PAU1@00Uforward_iterator_tag@0@U_Nonscalar_ptr_iterator_tag@0@U_Range_checked_iterator_tag@0@@Z 005867a0 f i MeshComponent.obj
 0002:000ad840       ??$unchecked_uninitialized_copy@PAUVertPNT@@PAU1@V?$allocator@UVertPNT@@@std@@@stdext@@YAPAUVertPNT@@PAU1@00AAV?$allocator@UVertPNT@@@std@@@Z 00586840 f i MeshComponent.obj
 0002:000ad8f0       ??$_Iter_cat@PAUVertPNT@@@std@@YA?AUrandom_access_iterator_tag@0@ABQAUVertPNT@@@Z 005868f0 f i MeshComponent.obj
 0002:000ad960       ??$_Debug_range2@PAUVertPNT@@@std@@YAXPAUVertPNT@@0PB_WIUrandom_access_iterator_tag@0@@Z 00586960 f i MeshComponent.obj
 0002:000ada10       ??$_Copy_backward_opt@PAUVertPNT@@PAU1@Uforward_iterator_tag@std@@@std@@YAPAUVertPNT@@PAU1@00Uforward_iterator_tag@0@U_Nonscalar_ptr_iterator_tag@0@U_Range_checked_iterator_tag@0@@Z 00586a10 f i MeshComponent.obj
 0002:000adab0       ??$_Iter_cat@V?$_Vector_const_iterator@VFace@@V?$allocator@VFace@@@std@@@std@@@std@@YA?AUrandom_access_iterator_tag@0@ABV?$_Vector_const_iterator@VFace@@V?$allocator@VFace@@@std@@@0@@Z 00586ab0 f i MeshComponent.obj
 0002:000adb20       ??$_Debug_range2@V?$_Vector_const_iterator@VFace@@V?$allocator@VFace@@@std@@@std@@@std@@YAXV?$_Vector_const_iterator@VFace@@V?$allocator@VFace@@@std@@@0@0PB_WIUrandom_access_iterator_tag@0@@Z 00586b20 f i MeshComponent.obj
 0002:000adc50       ??$_Uninit_copy@PAUVertexPosCol@@PAU1@V?$allocator@UVertexPosCol@@@std@@@std@@YAPAUVertexPosCol@@PAU1@00AAV?$allocator@UVertexPosCol@@@0@U_Nonscalar_ptr_iterator_tag@0@U_Range_checked_iterator_tag@0@@Z 00586c50 f i MeshComponent.obj
 0002:000adda0       ??$_Debug_pointer@UVertexPosCol@@@std@@YAXPAUVertexPosCol@@PB_WI@Z 00586da0 f i MeshComponent.obj
 0002:000ade10       ??$_Uninit_copy@PAVFace@@PAV1@V?$allocator@VFace@@@std@@@std@@YAPAVFace@@PAV1@00AAV?$allocator@VFace@@@0@U_Nonscalar_ptr_iterator_tag@0@U_Range_checked_iterator_tag@0@@Z 00586e10 f i MeshComponent.obj
 0002:000adf60       ??$_Uninit_copy@PAUVertexPosNorCol@@PAU1@V?$allocator@UVertexPosNorCol@@@std@@@std@@YAPAUVertexPosNorCol@@PAU1@00AAV?$allocator@UVertexPosNorCol@@@0@U_Nonscalar_ptr_iterator_tag@0@U_Range_checked_iterator_tag@0@@Z 00586f60 f i MeshComponent.obj
 0002:000ae0b0       ??$_Debug_pointer@UVertexPosNorCol@@@std@@YAXPAUVertexPosNorCol@@PB_WI@Z 005870b0 f i MeshComponent.obj
 0002:000ae120       ??$_Uninit_copy@PAUVertexPointPSC@@PAU1@V?$allocator@UVertexPointPSC@@@std@@@std@@YAPAUVertexPointPSC@@PAU1@00AAV?$allocator@UVertexPointPSC@@@0@U_Nonscalar_ptr_iterator_tag@0@U_Range_checked_iterator_tag@0@@Z 00587120 f i MeshComponent.obj
 0002:000ae270       ??$_Debug_pointer@UVertexPointPSC@@@std@@YAXPAUVertexPointPSC@@PB_WI@Z 00587270 f i MeshComponent.obj
 0002:000ae2e0       ??$_Uninit_copy@PAUVertPNT@@PAU1@V?$allocator@UVertPNT@@@std@@@std@@YAPAUVertPNT@@PAU1@00AAV?$allocator@UVertPNT@@@0@U_Nonscalar_ptr_iterator_tag@0@U_Range_checked_iterator_tag@0@@Z 005872e0 f i MeshComponent.obj
 0002:000ae430       ??$_Debug_pointer@UVertPNT@@@std@@YAXPAUVertPNT@@PB_WI@Z 00587430 f i MeshComponent.obj
 0002:000ae4a0       ??M?$_Vector_const_iterator@VFace@@V?$allocator@VFace@@@std@@@std@@QBE_NABV01@@Z 005874a0 f i MeshComponent.obj
 0002:000ae510       ??$_Debug_pointer@V?$_Vector_const_iterator@VFace@@V?$allocator@VFace@@@std@@@std@@@std@@YAXAAV?$_Vector_const_iterator@VFace@@V?$allocator@VFace@@@std@@@0@PB_WI@Z 00587510 f i MeshComponent.obj
 0002:000ae540       ??1MeshComponentSerial@@QAE@XZ 00587540 f   MeshComponentSerial.obj
 0002:000ae660       ??_GHE_meshSerial@@QAEPAXI@Z 00587660 f i MeshComponentSerial.obj
 0002:000ae6d0       ??1HE_meshSerial@@QAE@XZ   005876d0 f i MeshComponentSerial.obj
 0002:000ae7b0       ??0MeshComponentSerial@@QAE@ABVMeshComponent@@@Z 005877b0 f   MeshComponentSerial.obj
 0002:000aebc0       ??1?$vector@VHE_edge@@V?$allocator@VHE_edge@@@std@@@std@@QAE@XZ 00587bc0 f i MeshComponentSerial.obj
 0002:000aec60       ??1?$vector@VHE_face@@V?$allocator@VHE_face@@@std@@@std@@QAE@XZ 00587c60 f i MeshComponentSerial.obj
 0002:000aed00       ??1?$vector@VHE_vert@@V?$allocator@VHE_vert@@@std@@@std@@QAE@XZ 00587d00 f i MeshComponentSerial.obj
 0002:000aeda0       ??1?$_Vector_val@VHE_edge@@V?$allocator@VHE_edge@@@std@@@std@@QAE@XZ 00587da0 f i MeshComponentSerial.obj
 0002:000aedf0       ??1?$_Vector_val@VHE_face@@V?$allocator@VHE_face@@@std@@@std@@QAE@XZ 00587df0 f i MeshComponentSerial.obj
 0002:000aee40       ??1?$_Vector_val@VHE_vert@@V?$allocator@VHE_vert@@@std@@@std@@QAE@XZ 00587e40 f i MeshComponentSerial.obj
 0002:000aee90       ?_Tidy@?$vector@VHE_edge@@V?$allocator@VHE_edge@@@std@@@std@@IAEXXZ 00587e90 f i MeshComponentSerial.obj
 0002:000aef70       ??1?$_Container_base_aux_alloc_empty@V?$allocator@VHE_edge@@@std@@@std@@IAE@XZ 00587f70 f i MeshComponentSerial.obj
 0002:000aefd0       ?_Tidy@?$vector@VHE_face@@V?$allocator@VHE_face@@@std@@@std@@IAEXXZ 00587fd0 f i MeshComponentSerial.obj
 0002:000af0b0       ??1?$_Container_base_aux_alloc_empty@V?$allocator@VHE_face@@@std@@@std@@IAE@XZ 005880b0 f i MeshComponentSerial.obj
 0002:000af110       ?_Tidy@?$vector@VHE_vert@@V?$allocator@VHE_vert@@@std@@@std@@IAEXXZ 00588110 f i MeshComponentSerial.obj
 0002:000af1f0       ??1?$_Container_base_aux_alloc_empty@V?$allocator@VHE_vert@@@std@@@std@@IAE@XZ 005881f0 f i MeshComponentSerial.obj
 0002:000af250       ?_Destroy@?$vector@VHE_edge@@V?$allocator@VHE_edge@@@std@@@std@@IAEXPAVHE_edge@@0@Z 00588250 f i MeshComponentSerial.obj
 0002:000af2c0       ?deallocate@?$allocator@VHE_edge@@@std@@QAEXPAVHE_edge@@I@Z 005882c0 f i MeshComponentSerial.obj
 0002:000af320       ?_Destroy@?$vector@VHE_face@@V?$allocator@VHE_face@@@std@@@std@@IAEXPAVHE_face@@0@Z 00588320 f i MeshComponentSerial.obj
 0002:000af390       ?deallocate@?$allocator@VHE_face@@@std@@QAEXPAVHE_face@@I@Z 00588390 f i MeshComponentSerial.obj
 0002:000af3f0       ?_Destroy@?$vector@VHE_vert@@V?$allocator@VHE_vert@@@std@@@std@@IAEXPAVHE_vert@@0@Z 005883f0 f i MeshComponentSerial.obj
 0002:000af460       ?deallocate@?$allocator@VHE_vert@@@std@@QAEXPAVHE_vert@@I@Z 00588460 f i MeshComponentSerial.obj
 0002:000af4c0       ??$_Destroy_range@V?$allocator@VHE_edge@@@std@@@std@@YAXPAVHE_edge@@0AAV?$allocator@VHE_edge@@@0@@Z 005884c0 f i MeshComponentSerial.obj
 0002:000af540       ??$_Destroy_range@V?$allocator@VHE_face@@@std@@@std@@YAXPAVHE_face@@0AAV?$allocator@VHE_face@@@0@@Z 00588540 f i MeshComponentSerial.obj
 0002:000af5c0       ??$_Destroy_range@V?$allocator@VHE_vert@@@std@@@std@@YAXPAVHE_vert@@0AAV?$allocator@VHE_vert@@@0@@Z 005885c0 f i MeshComponentSerial.obj
 0002:000af640       ??$_Ptr_cat@PAVHE_edge@@PAV1@@std@@YA?AU_Nonscalar_ptr_iterator_tag@0@AAPAVHE_edge@@0@Z 00588640 f i MeshComponentSerial.obj
 0002:000af6b0       ??$_Destroy_range@V?$allocator@VHE_edge@@@std@@@std@@YAXPAVHE_edge@@0AAV?$allocator@VHE_edge@@@0@U_Nonscalar_ptr_iterator_tag@0@@Z 005886b0 f i MeshComponentSerial.obj
 0002:000af720       ??$_Ptr_cat@PAVHE_face@@PAV1@@std@@YA?AU_Nonscalar_ptr_iterator_tag@0@AAPAVHE_face@@0@Z 00588720 f i MeshComponentSerial.obj
 0002:000af790       ??$_Destroy_range@V?$allocator@VHE_face@@@std@@@std@@YAXPAVHE_face@@0AAV?$allocator@VHE_face@@@0@U_Nonscalar_ptr_iterator_tag@0@@Z 00588790 f i MeshComponentSerial.obj
 0002:000af800       ??$_Ptr_cat@PAVHE_vert@@PAV1@@std@@YA?AU_Nonscalar_ptr_iterator_tag@0@AAPAVHE_vert@@0@Z 00588800 f i MeshComponentSerial.obj
 0002:000af870       ??$_Destroy_range@V?$allocator@VHE_vert@@@std@@@std@@YAXPAVHE_vert@@0AAV?$allocator@VHE_vert@@@0@U_Nonscalar_ptr_iterator_tag@0@@Z 00588870 f i MeshComponentSerial.obj
 0002:000af8e0       ?destroy@?$allocator@VHE_edge@@@std@@QAEXPAVHE_edge@@@Z 005888e0 f i MeshComponentSerial.obj
 0002:000af940       ?destroy@?$allocator@VHE_face@@@std@@QAEXPAVHE_face@@@Z 00588940 f i MeshComponentSerial.obj
 0002:000af9a0       ?destroy@?$allocator@VHE_vert@@@std@@QAEXPAVHE_vert@@@Z 005889a0 f i MeshComponentSerial.obj
 0002:000afa00       ??$_Destroy@VHE_edge@@@std@@YAXPAVHE_edge@@@Z 00588a00 f i MeshComponentSerial.obj
 0002:000afa30       ??$_Destroy@VHE_face@@@std@@YAXPAVHE_face@@@Z 00588a30 f i MeshComponentSerial.obj
 0002:000afa60       ??$_Destroy@VHE_vert@@@std@@YAXPAVHE_vert@@@Z 00588a60 f i MeshComponentSerial.obj
 0002:000afa90       ??1HE_mesh@@QAE@XZ         00588a90 f   MeshHalfEdge.obj
 0002:000afcc0       ??0HE_mesh@@QAE@ABVHE_meshSerial@@@Z 00588cc0 f   MeshHalfEdge.obj
 0002:000b03a0       ??0HE_edge@@QAE@ABV0@@Z    005893a0 f i MeshHalfEdge.obj
 0002:000b0440       ?newVertex@HE_mesh@@QAEPAVHE_vert@@ABVVertexObj@@@Z 00589440 f   MeshHalfEdge.obj
 0002:000b0590       ?newHalfEdge@HE_mesh@@QAEPAVHE_edge@@PAVHE_vert@@PAVHE_face@@@Z 00589590 f   MeshHalfEdge.obj
 0002:000b06f0       ??0HE_edge@@QAE@PAVHE_vert@@PAVHE_face@@H@Z 005896f0 f i MeshHalfEdge.obj
 0002:000b0780       ?newFace@HE_mesh@@QAEPAVHE_face@@XZ 00589780 f   MeshHalfEdge.obj
 0002:000b08c0       ??0HE_face@@QAE@H@Z        005898c0 f i MeshHalfEdge.obj
 0002:000b0910       ?vertex@HE_mesh@@QBE?AVVertexObj@@H@Z 00589910 f   MeshHalfEdge.obj
 0002:000b0990       ?face@HE_mesh@@QBE?AVFace@@H@Z 00589990 f   MeshHalfEdge.obj
 0002:000b0c90       ?modifyVertex@HE_mesh@@QAEXHABVVertexObj@@@Z 00589c90 f   MeshHalfEdge.obj
 0002:000b0d00       ?hface@HE_mesh@@QBEPAVHE_face@@H@Z 00589d00 f   MeshHalfEdge.obj
 0002:000b0d60       ?nVertices@HE_mesh@@QBEHXZ 00589d60 f   MeshHalfEdge.obj
 0002:000b0dc0       ?nFaces@HE_mesh@@QBEHXZ    00589dc0 f   MeshHalfEdge.obj
 0002:000b0e20       ?hvert@HE_mesh@@QBEPAVHE_vert@@H@Z 00589e20 f   MeshHalfEdge.obj
 0002:000b0e80       ?hedge@HE_mesh@@QBEPAVHE_edge@@H@Z 00589e80 f   MeshHalfEdge.obj
 0002:000b0ee0       ?serialIdv@HE_mesh@@QBEPAVHE_vert@@PAV2@@Z 00589ee0 f   MeshHalfEdge.obj
 0002:000b0f80       ?serialIdf@HE_mesh@@QBEPAVHE_face@@PAV2@@Z 00589f80 f   MeshHalfEdge.obj
 0002:000b1020       ?serialIde@HE_mesh@@QBEPAVHE_edge@@PAV2@@Z 0058a020 f   MeshHalfEdge.obj
 0002:000b10b0       ?unserialIdv@HE_mesh@@QBEPAVHE_vert@@PAV2@@Z 0058a0b0 f   MeshHalfEdge.obj
 0002:000b1110       ?unserialIdf@HE_mesh@@QBEPAVHE_face@@PAV2@@Z 0058a110 f   MeshHalfEdge.obj
 0002:000b1170       ?unserialIde@HE_mesh@@QBEPAVHE_edge@@PAV2@@Z 0058a170 f   MeshHalfEdge.obj
 0002:000b11d0       ?nHalfEdges@HE_mesh@@QBEHXZ 0058a1d0 f   MeshHalfEdge.obj
 0002:000b1220       ?nFullEdges@HE_mesh@@QBEHXZ 0058a220 f   MeshHalfEdge.obj
 0002:000b1280       ?faceContainsHalfEdge@HE_mesh@@QBE_NPBVHE_face@@PBVHE_edge@@@Z 0058a280 f   MeshHalfEdge.obj
 0002:000b13c0       ?splitEdge@HE_mesh@@QAEPAVHE_vert@@PAVHE_edge@@ABVVertexObj@@@Z 0058a3c0 f   MeshHalfEdge.obj
 0002:000b1590       ?newFullEdge@HE_mesh@@QAEXPBVHE_edge@@0@Z 0058a590 f   MeshHalfEdge.obj
 0002:000b1660       ?recycleFullEdge@HE_mesh@@QAEXHPBVHE_edge@@0@Z 0058a660 f   MeshHalfEdge.obj
 0002:000b1700       ?fullEdge@HE_mesh@@QBE?AVEdge@@H@Z 0058a700 f   MeshHalfEdge.obj
 0002:000b17f0       ??0Edge@@QAE@HH@Z          0058a7f0 f i MeshHalfEdge.obj
 0002:000b1840       ?sharedFace@HE_mesh@@QBEPAVHE_face@@PAVHE_vert@@0@Z 0058a840 f   MeshHalfEdge.obj
 0002:000b1bc0       ?sharedFace@HE_mesh@@QBEPAVHE_face@@PAVHE_edge@@PAVHE_vert@@@Z 0058abc0 f   MeshHalfEdge.obj
 0002:000b1f40       ?sharedFace@HE_mesh@@QBEPAVHE_face@@PAVHE_edge@@0@Z 0058af40 f   MeshHalfEdge.obj
 0002:000b22c0       ?sharedFace@HE_mesh@@QBEPAVHE_face@@PAVHE_vert@@PAVHE_edge@@@Z 0058b2c0 f   MeshHalfEdge.obj
 0002:000b2320       ?splitFace@HE_mesh@@QAEPAVHE_vert@@PAVHE_face@@PAV2@1@Z 0058b320 f   MeshHalfEdge.obj
 0002:000b25c0       ?checkIntegrity@HE_mesh@@QAEXXZ 0058b5c0 f   MeshHalfEdge.obj
 0002:000b2720       ?verticesOfEdgesOfCorner@HE_mesh@@QBE?AV?$vector@HV?$allocator@H@std@@@std@@HH@Z 0058b720 f   MeshHalfEdge.obj
 0002:000b28d0       ?bevelSingleEdgeHIGH@HE_mesh@@QAE?AV?$vector@PAVHE_vert@@V?$allocator@PAVHE_vert@@@std@@@std@@HH@Z 0058b8d0 f   MeshHalfEdge.obj
 0002:000b2e80       ?bevelESingleCornerE@HE_mesh@@QAEXPAVHE_vert@@0PAPAV2@PAPAVHE_edge@@222PAUD3DXVECTOR3@@@Z 0058be80 f   MeshHalfEdge.obj
 0002:000b3210       ?bevelESingleCornerB@HE_mesh@@QAEXPAVHE_vert@@0PAPAV2@PAPAVHE_edge@@222PAUD3DXVECTOR3@@@Z 0058c210 f   MeshHalfEdge.obj
 0002:000b35b0       ?bevelESharedCorner@HE_mesh@@QAEXPAVHE_vert@@PAVHE_edge@@1PAPAV2@PAPAV3@333@Z 0058c5b0 f   MeshHalfEdge.obj
 0002:000b37f0       ?nonIncidentEdges@HE_edge@@QBE?AV?$vector@PAVHE_edge@@V?$allocator@PAVHE_edge@@@std@@@std@@XZ 0058c7f0 f i MeshHalfEdge.obj
 0002:000b3960       ?bevelESingleEdge@HE_mesh@@QAEXPAVHE_vert@@0PAVHE_edge@@110011@Z 0058c960 f   MeshHalfEdge.obj
